
WordLadder-Demo-64:     file format elf64-x86-64


Disassembly of section .init:

0000000000402320 <_init>:
  402320:	48 83 ec 08          	sub    $0x8,%rsp
  402324:	48 8b 05 cd fc 20 00 	mov    0x20fccd(%rip),%rax        # 611ff8 <_DYNAMIC+0x1f0>
  40232b:	48 85 c0             	test   %rax,%rax
  40232e:	74 05                	je     402335 <_init+0x15>
  402330:	e8 fb 00 00 00       	callq  402430 <__gmon_start__@plt>
  402335:	48 83 c4 08          	add    $0x8,%rsp
  402339:	c3                   	retq   

Disassembly of section .plt:

0000000000402340 <_ZNSs6appendEPKcm@plt-0x10>:
  402340:	ff 35 c2 fc 20 00    	pushq  0x20fcc2(%rip)        # 612008 <_GLOBAL_OFFSET_TABLE_+0x8>
  402346:	ff 25 c4 fc 20 00    	jmpq   *0x20fcc4(%rip)        # 612010 <_GLOBAL_OFFSET_TABLE_+0x10>
  40234c:	0f 1f 40 00          	nopl   0x0(%rax)

0000000000402350 <_ZNSs6appendEPKcm@plt>:
  402350:	ff 25 c2 fc 20 00    	jmpq   *0x20fcc2(%rip)        # 612018 <_GLOBAL_OFFSET_TABLE_+0x18>
  402356:	68 00 00 00 00       	pushq  $0x0
  40235b:	e9 e0 ff ff ff       	jmpq   402340 <_init+0x20>

0000000000402360 <_ZNSirsEPFRSiS_E@plt>:
  402360:	ff 25 ba fc 20 00    	jmpq   *0x20fcba(%rip)        # 612020 <_GLOBAL_OFFSET_TABLE_+0x20>
  402366:	68 01 00 00 00       	pushq  $0x1
  40236b:	e9 d0 ff ff ff       	jmpq   402340 <_init+0x20>

0000000000402370 <_ZSt20__throw_length_errorPKc@plt>:
  402370:	ff 25 b2 fc 20 00    	jmpq   *0x20fcb2(%rip)        # 612028 <_GLOBAL_OFFSET_TABLE_+0x28>
  402376:	68 02 00 00 00       	pushq  $0x2
  40237b:	e9 c0 ff ff ff       	jmpq   402340 <_init+0x20>

0000000000402380 <_ZNSolsEd@plt>:
  402380:	ff 25 aa fc 20 00    	jmpq   *0x20fcaa(%rip)        # 612030 <_GLOBAL_OFFSET_TABLE_+0x30>
  402386:	68 03 00 00 00       	pushq  $0x3
  40238b:	e9 b0 ff ff ff       	jmpq   402340 <_init+0x20>

0000000000402390 <_ZNSsaSEPKc@plt>:
  402390:	ff 25 a2 fc 20 00    	jmpq   *0x20fca2(%rip)        # 612038 <_GLOBAL_OFFSET_TABLE_+0x38>
  402396:	68 04 00 00 00       	pushq  $0x4
  40239b:	e9 a0 ff ff ff       	jmpq   402340 <_init+0x20>

00000000004023a0 <_ZNSsC1Ev@plt>:
  4023a0:	ff 25 9a fc 20 00    	jmpq   *0x20fc9a(%rip)        # 612040 <_GLOBAL_OFFSET_TABLE_+0x40>
  4023a6:	68 05 00 00 00       	pushq  $0x5
  4023ab:	e9 90 ff ff ff       	jmpq   402340 <_init+0x20>

00000000004023b0 <_ZNSt14basic_ifstreamIcSt11char_traitsIcEE5closeEv@plt>:
  4023b0:	ff 25 92 fc 20 00    	jmpq   *0x20fc92(%rip)        # 612048 <_GLOBAL_OFFSET_TABLE_+0x48>
  4023b6:	68 06 00 00 00       	pushq  $0x6
  4023bb:	e9 80 ff ff ff       	jmpq   402340 <_init+0x20>

00000000004023c0 <_ZNSolsEi@plt>:
  4023c0:	ff 25 8a fc 20 00    	jmpq   *0x20fc8a(%rip)        # 612050 <_GLOBAL_OFFSET_TABLE_+0x50>
  4023c6:	68 07 00 00 00       	pushq  $0x7
  4023cb:	e9 70 ff ff ff       	jmpq   402340 <_init+0x20>

00000000004023d0 <_ZNSirsERd@plt>:
  4023d0:	ff 25 82 fc 20 00    	jmpq   *0x20fc82(%rip)        # 612058 <_GLOBAL_OFFSET_TABLE_+0x58>
  4023d6:	68 08 00 00 00       	pushq  $0x8
  4023db:	e9 60 ff ff ff       	jmpq   402340 <_init+0x20>

00000000004023e0 <_ZNSi5ungetEv@plt>:
  4023e0:	ff 25 7a fc 20 00    	jmpq   *0x20fc7a(%rip)        # 612060 <_GLOBAL_OFFSET_TABLE_+0x60>
  4023e6:	68 09 00 00 00       	pushq  $0x9
  4023eb:	e9 50 ff ff ff       	jmpq   402340 <_init+0x20>

00000000004023f0 <_ZNKSs6substrEmm@plt>:
  4023f0:	ff 25 72 fc 20 00    	jmpq   *0x20fc72(%rip)        # 612068 <_GLOBAL_OFFSET_TABLE_+0x68>
  4023f6:	68 0a 00 00 00       	pushq  $0xa
  4023fb:	e9 40 ff ff ff       	jmpq   402340 <_init+0x20>

0000000000402400 <_ZNKSt9basic_iosIcSt11char_traitsIcEEcvPvEv@plt>:
  402400:	ff 25 6a fc 20 00    	jmpq   *0x20fc6a(%rip)        # 612070 <_GLOBAL_OFFSET_TABLE_+0x70>
  402406:	68 0b 00 00 00       	pushq  $0xb
  40240b:	e9 30 ff ff ff       	jmpq   402340 <_init+0x20>

0000000000402410 <_ZNSspLEc@plt>:
  402410:	ff 25 62 fc 20 00    	jmpq   *0x20fc62(%rip)        # 612078 <_GLOBAL_OFFSET_TABLE_+0x78>
  402416:	68 0c 00 00 00       	pushq  $0xc
  40241b:	e9 20 ff ff ff       	jmpq   402340 <_init+0x20>

0000000000402420 <_ZSt7getlineIcSt11char_traitsIcESaIcEERSt13basic_istreamIT_T0_ES7_RSbIS4_S5_T1_E@plt>:
  402420:	ff 25 5a fc 20 00    	jmpq   *0x20fc5a(%rip)        # 612080 <_GLOBAL_OFFSET_TABLE_+0x80>
  402426:	68 0d 00 00 00       	pushq  $0xd
  40242b:	e9 10 ff ff ff       	jmpq   402340 <_init+0x20>

0000000000402430 <__gmon_start__@plt>:
  402430:	ff 25 52 fc 20 00    	jmpq   *0x20fc52(%rip)        # 612088 <_GLOBAL_OFFSET_TABLE_+0x88>
  402436:	68 0e 00 00 00       	pushq  $0xe
  40243b:	e9 00 ff ff ff       	jmpq   402340 <_init+0x20>

0000000000402440 <_ZNKSs5c_strEv@plt>:
  402440:	ff 25 4a fc 20 00    	jmpq   *0x20fc4a(%rip)        # 612090 <_GLOBAL_OFFSET_TABLE_+0x90>
  402446:	68 0f 00 00 00       	pushq  $0xf
  40244b:	e9 f0 fe ff ff       	jmpq   402340 <_init+0x20>

0000000000402450 <_Znam@plt>:
  402450:	ff 25 42 fc 20 00    	jmpq   *0x20fc42(%rip)        # 612098 <_GLOBAL_OFFSET_TABLE_+0x98>
  402456:	68 10 00 00 00       	pushq  $0x10
  40245b:	e9 e0 fe ff ff       	jmpq   402340 <_init+0x20>

0000000000402460 <_ZdlPv@plt>:
  402460:	ff 25 3a fc 20 00    	jmpq   *0x20fc3a(%rip)        # 6120a0 <_GLOBAL_OFFSET_TABLE_+0xa0>
  402466:	68 11 00 00 00       	pushq  $0x11
  40246b:	e9 d0 fe ff ff       	jmpq   402340 <_init+0x20>

0000000000402470 <_ZNSs7reserveEm@plt>:
  402470:	ff 25 32 fc 20 00    	jmpq   *0x20fc32(%rip)        # 6120a8 <_GLOBAL_OFFSET_TABLE_+0xa8>
  402476:	68 12 00 00 00       	pushq  $0x12
  40247b:	e9 c0 fe ff ff       	jmpq   402340 <_init+0x20>

0000000000402480 <toupper@plt>:
  402480:	ff 25 2a fc 20 00    	jmpq   *0x20fc2a(%rip)        # 6120b0 <_GLOBAL_OFFSET_TABLE_+0xb0>
  402486:	68 13 00 00 00       	pushq  $0x13
  40248b:	e9 b0 fe ff ff       	jmpq   402340 <_init+0x20>

0000000000402490 <__cxa_rethrow@plt>:
  402490:	ff 25 22 fc 20 00    	jmpq   *0x20fc22(%rip)        # 6120b8 <_GLOBAL_OFFSET_TABLE_+0xb8>
  402496:	68 14 00 00 00       	pushq  $0x14
  40249b:	e9 a0 fe ff ff       	jmpq   402340 <_init+0x20>

00000000004024a0 <_ZNKSs4sizeEv@plt>:
  4024a0:	ff 25 1a fc 20 00    	jmpq   *0x20fc1a(%rip)        # 6120c0 <_GLOBAL_OFFSET_TABLE_+0xc0>
  4024a6:	68 15 00 00 00       	pushq  $0x15
  4024ab:	e9 90 fe ff ff       	jmpq   402340 <_init+0x20>

00000000004024b0 <_ZNSt8ios_base4InitC1Ev@plt>:
  4024b0:	ff 25 12 fc 20 00    	jmpq   *0x20fc12(%rip)        # 6120c8 <_GLOBAL_OFFSET_TABLE_+0xc8>
  4024b6:	68 16 00 00 00       	pushq  $0x16
  4024bb:	e9 80 fe ff ff       	jmpq   402340 <_init+0x20>

00000000004024c0 <strncmp@plt>:
  4024c0:	ff 25 0a fc 20 00    	jmpq   *0x20fc0a(%rip)        # 6120d0 <_GLOBAL_OFFSET_TABLE_+0xd0>
  4024c6:	68 17 00 00 00       	pushq  $0x17
  4024cb:	e9 70 fe ff ff       	jmpq   402340 <_init+0x20>

00000000004024d0 <fopen@plt>:
  4024d0:	ff 25 02 fc 20 00    	jmpq   *0x20fc02(%rip)        # 6120d8 <_GLOBAL_OFFSET_TABLE_+0xd8>
  4024d6:	68 18 00 00 00       	pushq  $0x18
  4024db:	e9 60 fe ff ff       	jmpq   402340 <_init+0x20>

00000000004024e0 <__libc_start_main@plt>:
  4024e0:	ff 25 fa fb 20 00    	jmpq   *0x20fbfa(%rip)        # 6120e0 <_GLOBAL_OFFSET_TABLE_+0xe0>
  4024e6:	68 19 00 00 00       	pushq  $0x19
  4024eb:	e9 50 fe ff ff       	jmpq   402340 <_init+0x20>

00000000004024f0 <_ZNKSt19basic_ostringstreamIcSt11char_traitsIcESaIcEE3strEv@plt>:
  4024f0:	ff 25 f2 fb 20 00    	jmpq   *0x20fbf2(%rip)        # 6120e8 <_GLOBAL_OFFSET_TABLE_+0xe8>
  4024f6:	68 1a 00 00 00       	pushq  $0x1a
  4024fb:	e9 40 fe ff ff       	jmpq   402340 <_init+0x20>

0000000000402500 <_ZNKSs7compareERKSs@plt>:
  402500:	ff 25 ea fb 20 00    	jmpq   *0x20fbea(%rip)        # 6120f0 <_GLOBAL_OFFSET_TABLE_+0xf0>
  402506:	68 1b 00 00 00       	pushq  $0x1b
  40250b:	e9 30 fe ff ff       	jmpq   402340 <_init+0x20>

0000000000402510 <_ZNSsC1ERKSs@plt>:
  402510:	ff 25 e2 fb 20 00    	jmpq   *0x20fbe2(%rip)        # 6120f8 <_GLOBAL_OFFSET_TABLE_+0xf8>
  402516:	68 1c 00 00 00       	pushq  $0x1c
  40251b:	e9 20 fe ff ff       	jmpq   402340 <_init+0x20>

0000000000402520 <_ZNSi5seekgESt4fposI11__mbstate_tE@plt>:
  402520:	ff 25 da fb 20 00    	jmpq   *0x20fbda(%rip)        # 612100 <_GLOBAL_OFFSET_TABLE_+0x100>
  402526:	68 1d 00 00 00       	pushq  $0x1d
  40252b:	e9 10 fe ff ff       	jmpq   402340 <_init+0x20>

0000000000402530 <__cxa_atexit@plt>:
  402530:	ff 25 d2 fb 20 00    	jmpq   *0x20fbd2(%rip)        # 612108 <_GLOBAL_OFFSET_TABLE_+0x108>
  402536:	68 1e 00 00 00       	pushq  $0x1e
  40253b:	e9 00 fe ff ff       	jmpq   402340 <_init+0x20>

0000000000402540 <_ZSt20__throw_out_of_rangePKc@plt>:
  402540:	ff 25 ca fb 20 00    	jmpq   *0x20fbca(%rip)        # 612110 <_GLOBAL_OFFSET_TABLE_+0x110>
  402546:	68 1f 00 00 00       	pushq  $0x1f
  40254b:	e9 f0 fd ff ff       	jmpq   402340 <_init+0x20>

0000000000402550 <_ZStlsISt11char_traitsIcEERSt13basic_ostreamIcT_ES5_c@plt>:
  402550:	ff 25 c2 fb 20 00    	jmpq   *0x20fbc2(%rip)        # 612118 <_GLOBAL_OFFSET_TABLE_+0x118>
  402556:	68 20 00 00 00       	pushq  $0x20
  40255b:	e9 e0 fd ff ff       	jmpq   402340 <_init+0x20>

0000000000402560 <_ZNSi4readEPcl@plt>:
  402560:	ff 25 ba fb 20 00    	jmpq   *0x20fbba(%rip)        # 612120 <_GLOBAL_OFFSET_TABLE_+0x120>
  402566:	68 21 00 00 00       	pushq  $0x21
  40256b:	e9 d0 fd ff ff       	jmpq   402340 <_init+0x20>

0000000000402570 <_ZNKSs6lengthEv@plt>:
  402570:	ff 25 b2 fb 20 00    	jmpq   *0x20fbb2(%rip)        # 612128 <_GLOBAL_OFFSET_TABLE_+0x128>
  402576:	68 22 00 00 00       	pushq  $0x22
  40257b:	e9 c0 fd ff ff       	jmpq   402340 <_init+0x20>

0000000000402580 <_ZNSt8ios_base4InitD1Ev@plt>:
  402580:	ff 25 aa fb 20 00    	jmpq   *0x20fbaa(%rip)        # 612130 <_GLOBAL_OFFSET_TABLE_+0x130>
  402586:	68 23 00 00 00       	pushq  $0x23
  40258b:	e9 b0 fd ff ff       	jmpq   402340 <_init+0x20>

0000000000402590 <_ZStlsISt11char_traitsIcEERSt13basic_ostreamIcT_ES5_PKc@plt>:
  402590:	ff 25 a2 fb 20 00    	jmpq   *0x20fba2(%rip)        # 612138 <_GLOBAL_OFFSET_TABLE_+0x138>
  402596:	68 24 00 00 00       	pushq  $0x24
  40259b:	e9 a0 fd ff ff       	jmpq   402340 <_init+0x20>

00000000004025a0 <_ZNSsD1Ev@plt>:
  4025a0:	ff 25 9a fb 20 00    	jmpq   *0x20fb9a(%rip)        # 612140 <_GLOBAL_OFFSET_TABLE_+0x140>
  4025a6:	68 25 00 00 00       	pushq  $0x25
  4025ab:	e9 90 fd ff ff       	jmpq   402340 <_init+0x20>

00000000004025b0 <fputc@plt>:
  4025b0:	ff 25 92 fb 20 00    	jmpq   *0x20fb92(%rip)        # 612148 <_GLOBAL_OFFSET_TABLE_+0x148>
  4025b6:	68 26 00 00 00       	pushq  $0x26
  4025bb:	e9 80 fd ff ff       	jmpq   402340 <_init+0x20>

00000000004025c0 <_ZNKSs5emptyEv@plt>:
  4025c0:	ff 25 8a fb 20 00    	jmpq   *0x20fb8a(%rip)        # 612150 <_GLOBAL_OFFSET_TABLE_+0x150>
  4025c6:	68 27 00 00 00       	pushq  $0x27
  4025cb:	e9 70 fd ff ff       	jmpq   402340 <_init+0x20>

00000000004025d0 <_ZNKSt9basic_iosIcSt11char_traitsIcEEntEv@plt>:
  4025d0:	ff 25 82 fb 20 00    	jmpq   *0x20fb82(%rip)        # 612158 <_GLOBAL_OFFSET_TABLE_+0x158>
  4025d6:	68 28 00 00 00       	pushq  $0x28
  4025db:	e9 60 fd ff ff       	jmpq   402340 <_init+0x20>

00000000004025e0 <_ZNSi3getERc@plt>:
  4025e0:	ff 25 7a fb 20 00    	jmpq   *0x20fb7a(%rip)        # 612160 <_GLOBAL_OFFSET_TABLE_+0x160>
  4025e6:	68 29 00 00 00       	pushq  $0x29
  4025eb:	e9 50 fd ff ff       	jmpq   402340 <_init+0x20>

00000000004025f0 <_ZNSs6appendEmc@plt>:
  4025f0:	ff 25 72 fb 20 00    	jmpq   *0x20fb72(%rip)        # 612168 <_GLOBAL_OFFSET_TABLE_+0x168>
  4025f6:	68 2a 00 00 00       	pushq  $0x2a
  4025fb:	e9 40 fd ff ff       	jmpq   402340 <_init+0x20>

0000000000402600 <_ZNKSs4findEcm@plt>:
  402600:	ff 25 6a fb 20 00    	jmpq   *0x20fb6a(%rip)        # 612170 <_GLOBAL_OFFSET_TABLE_+0x170>
  402606:	68 2b 00 00 00       	pushq  $0x2b
  40260b:	e9 30 fd ff ff       	jmpq   402340 <_init+0x20>

0000000000402610 <_ZNKSs7compareEPKc@plt>:
  402610:	ff 25 62 fb 20 00    	jmpq   *0x20fb62(%rip)        # 612178 <_GLOBAL_OFFSET_TABLE_+0x178>
  402616:	68 2c 00 00 00       	pushq  $0x2c
  40261b:	e9 20 fd ff ff       	jmpq   402340 <_init+0x20>

0000000000402620 <_ZNSsC1EPKcRKSaIcE@plt>:
  402620:	ff 25 5a fb 20 00    	jmpq   *0x20fb5a(%rip)        # 612180 <_GLOBAL_OFFSET_TABLE_+0x180>
  402626:	68 2d 00 00 00       	pushq  $0x2d
  40262b:	e9 10 fd ff ff       	jmpq   402340 <_init+0x20>

0000000000402630 <_ZNSt14basic_ifstreamIcSt11char_traitsIcEED1Ev@plt>:
  402630:	ff 25 52 fb 20 00    	jmpq   *0x20fb52(%rip)        # 612188 <_GLOBAL_OFFSET_TABLE_+0x188>
  402636:	68 2e 00 00 00       	pushq  $0x2e
  40263b:	e9 00 fd ff ff       	jmpq   402340 <_init+0x20>

0000000000402640 <__cxa_call_unexpected@plt>:
  402640:	ff 25 4a fb 20 00    	jmpq   *0x20fb4a(%rip)        # 612190 <_GLOBAL_OFFSET_TABLE_+0x190>
  402646:	68 2f 00 00 00       	pushq  $0x2f
  40264b:	e9 f0 fc ff ff       	jmpq   402340 <_init+0x20>

0000000000402650 <_ZNSsixEm@plt>:
  402650:	ff 25 42 fb 20 00    	jmpq   *0x20fb42(%rip)        # 612198 <_GLOBAL_OFFSET_TABLE_+0x198>
  402656:	68 30 00 00 00       	pushq  $0x30
  40265b:	e9 e0 fc ff ff       	jmpq   402340 <_init+0x20>

0000000000402660 <_ZNSi3getEv@plt>:
  402660:	ff 25 3a fb 20 00    	jmpq   *0x20fb3a(%rip)        # 6121a0 <_GLOBAL_OFFSET_TABLE_+0x1a0>
  402666:	68 31 00 00 00       	pushq  $0x31
  40266b:	e9 d0 fc ff ff       	jmpq   402340 <_init+0x20>

0000000000402670 <_ZNKSt9basic_iosIcSt11char_traitsIcEE3eofEv@plt>:
  402670:	ff 25 32 fb 20 00    	jmpq   *0x20fb32(%rip)        # 6121a8 <_GLOBAL_OFFSET_TABLE_+0x1a8>
  402676:	68 32 00 00 00       	pushq  $0x32
  40267b:	e9 c0 fc ff ff       	jmpq   402340 <_init+0x20>

0000000000402680 <__cxa_pure_virtual@plt>:
  402680:	ff 25 2a fb 20 00    	jmpq   *0x20fb2a(%rip)        # 6121b0 <_GLOBAL_OFFSET_TABLE_+0x1b0>
  402686:	68 33 00 00 00       	pushq  $0x33
  40268b:	e9 b0 fc ff ff       	jmpq   402340 <_init+0x20>

0000000000402690 <_ZNSt19basic_istringstreamIcSt11char_traitsIcESaIcEED1Ev@plt>:
  402690:	ff 25 22 fb 20 00    	jmpq   *0x20fb22(%rip)        # 6121b8 <_GLOBAL_OFFSET_TABLE_+0x1b8>
  402696:	68 34 00 00 00       	pushq  $0x34
  40269b:	e9 a0 fc ff ff       	jmpq   402340 <_init+0x20>

00000000004026a0 <memmove@plt>:
  4026a0:	ff 25 1a fb 20 00    	jmpq   *0x20fb1a(%rip)        # 6121c0 <_GLOBAL_OFFSET_TABLE_+0x1c0>
  4026a6:	68 35 00 00 00       	pushq  $0x35
  4026ab:	e9 90 fc ff ff       	jmpq   402340 <_init+0x20>

00000000004026b0 <_ZNKSt9basic_iosIcSt11char_traitsIcEE4failEv@plt>:
  4026b0:	ff 25 12 fb 20 00    	jmpq   *0x20fb12(%rip)        # 6121c8 <_GLOBAL_OFFSET_TABLE_+0x1c8>
  4026b6:	68 36 00 00 00       	pushq  $0x36
  4026bb:	e9 80 fc ff ff       	jmpq   402340 <_init+0x20>

00000000004026c0 <_ZNKSs4dataEv@plt>:
  4026c0:	ff 25 0a fb 20 00    	jmpq   *0x20fb0a(%rip)        # 6121d0 <_GLOBAL_OFFSET_TABLE_+0x1d0>
  4026c6:	68 37 00 00 00       	pushq  $0x37
  4026cb:	e9 70 fc ff ff       	jmpq   402340 <_init+0x20>

00000000004026d0 <_ZStlsIcSt11char_traitsIcESaIcEERSt13basic_ostreamIT_T0_ES7_RKSbIS4_S5_T1_E@plt>:
  4026d0:	ff 25 02 fb 20 00    	jmpq   *0x20fb02(%rip)        # 6121d8 <_GLOBAL_OFFSET_TABLE_+0x1d8>
  4026d6:	68 38 00 00 00       	pushq  $0x38
  4026db:	e9 60 fc ff ff       	jmpq   402340 <_init+0x20>

00000000004026e0 <__stack_chk_fail@plt>:
  4026e0:	ff 25 fa fa 20 00    	jmpq   *0x20fafa(%rip)        # 6121e0 <_GLOBAL_OFFSET_TABLE_+0x1e0>
  4026e6:	68 39 00 00 00       	pushq  $0x39
  4026eb:	e9 50 fc ff ff       	jmpq   402340 <_init+0x20>

00000000004026f0 <_ZNSt19basic_ostringstreamIcSt11char_traitsIcESaIcEED1Ev@plt>:
  4026f0:	ff 25 f2 fa 20 00    	jmpq   *0x20faf2(%rip)        # 6121e8 <_GLOBAL_OFFSET_TABLE_+0x1e8>
  4026f6:	68 3a 00 00 00       	pushq  $0x3a
  4026fb:	e9 40 fc ff ff       	jmpq   402340 <_init+0x20>

0000000000402700 <tolower@plt>:
  402700:	ff 25 ea fa 20 00    	jmpq   *0x20faea(%rip)        # 6121f0 <_GLOBAL_OFFSET_TABLE_+0x1f0>
  402706:	68 3b 00 00 00       	pushq  $0x3b
  40270b:	e9 30 fc ff ff       	jmpq   402340 <_init+0x20>

0000000000402710 <_ZNKSs2atEm@plt>:
  402710:	ff 25 e2 fa 20 00    	jmpq   *0x20fae2(%rip)        # 6121f8 <_GLOBAL_OFFSET_TABLE_+0x1f8>
  402716:	68 3c 00 00 00       	pushq  $0x3c
  40271b:	e9 20 fc ff ff       	jmpq   402340 <_init+0x20>

0000000000402720 <__cxa_allocate_exception@plt>:
  402720:	ff 25 da fa 20 00    	jmpq   *0x20fada(%rip)        # 612200 <_GLOBAL_OFFSET_TABLE_+0x200>
  402726:	68 3d 00 00 00       	pushq  $0x3d
  40272b:	e9 10 fc ff ff       	jmpq   402340 <_init+0x20>

0000000000402730 <_ZNSaIcED1Ev@plt>:
  402730:	ff 25 d2 fa 20 00    	jmpq   *0x20fad2(%rip)        # 612208 <_GLOBAL_OFFSET_TABLE_+0x208>
  402736:	68 3e 00 00 00       	pushq  $0x3e
  40273b:	e9 00 fc ff ff       	jmpq   402340 <_init+0x20>

0000000000402740 <_ZNSt9exceptionD2Ev@plt>:
  402740:	ff 25 ca fa 20 00    	jmpq   *0x20faca(%rip)        # 612210 <_GLOBAL_OFFSET_TABLE_+0x210>
  402746:	68 3f 00 00 00       	pushq  $0x3f
  40274b:	e9 f0 fb ff ff       	jmpq   402340 <_init+0x20>

0000000000402750 <__cxa_free_exception@plt>:
  402750:	ff 25 c2 fa 20 00    	jmpq   *0x20fac2(%rip)        # 612218 <_GLOBAL_OFFSET_TABLE_+0x218>
  402756:	68 40 00 00 00       	pushq  $0x40
  40275b:	e9 e0 fb ff ff       	jmpq   402340 <_init+0x20>

0000000000402760 <_ZNSirsERi@plt>:
  402760:	ff 25 ba fa 20 00    	jmpq   *0x20faba(%rip)        # 612220 <_GLOBAL_OFFSET_TABLE_+0x220>
  402766:	68 41 00 00 00       	pushq  $0x41
  40276b:	e9 d0 fb ff ff       	jmpq   402340 <_init+0x20>

0000000000402770 <_ZNKSsixEm@plt>:
  402770:	ff 25 b2 fa 20 00    	jmpq   *0x20fab2(%rip)        # 612228 <_GLOBAL_OFFSET_TABLE_+0x228>
  402776:	68 42 00 00 00       	pushq  $0x42
  40277b:	e9 c0 fb ff ff       	jmpq   402340 <_init+0x20>

0000000000402780 <_ZdaPv@plt>:
  402780:	ff 25 aa fa 20 00    	jmpq   *0x20faaa(%rip)        # 612230 <_GLOBAL_OFFSET_TABLE_+0x230>
  402786:	68 43 00 00 00       	pushq  $0x43
  40278b:	e9 b0 fb ff ff       	jmpq   402340 <_init+0x20>

0000000000402790 <_ZNSs6appendEPKc@plt>:
  402790:	ff 25 a2 fa 20 00    	jmpq   *0x20faa2(%rip)        # 612238 <_GLOBAL_OFFSET_TABLE_+0x238>
  402796:	68 44 00 00 00       	pushq  $0x44
  40279b:	e9 a0 fb ff ff       	jmpq   402340 <_init+0x20>

00000000004027a0 <memcmp@plt>:
  4027a0:	ff 25 9a fa 20 00    	jmpq   *0x20fa9a(%rip)        # 612240 <_GLOBAL_OFFSET_TABLE_+0x240>
  4027a6:	68 45 00 00 00       	pushq  $0x45
  4027ab:	e9 90 fb ff ff       	jmpq   402340 <_init+0x20>

00000000004027b0 <_ZNSt14basic_ifstreamIcSt11char_traitsIcEEC1EPKcSt13_Ios_Openmode@plt>:
  4027b0:	ff 25 92 fa 20 00    	jmpq   *0x20fa92(%rip)        # 612248 <_GLOBAL_OFFSET_TABLE_+0x248>
  4027b6:	68 46 00 00 00       	pushq  $0x46
  4027bb:	e9 80 fb ff ff       	jmpq   402340 <_init+0x20>

00000000004027c0 <__cxa_throw@plt>:
  4027c0:	ff 25 8a fa 20 00    	jmpq   *0x20fa8a(%rip)        # 612250 <_GLOBAL_OFFSET_TABLE_+0x250>
  4027c6:	68 47 00 00 00       	pushq  $0x47
  4027cb:	e9 70 fb ff ff       	jmpq   402340 <_init+0x20>

00000000004027d0 <_ZNSolsEPFRSoS_E@plt>:
  4027d0:	ff 25 82 fa 20 00    	jmpq   *0x20fa82(%rip)        # 612258 <_GLOBAL_OFFSET_TABLE_+0x258>
  4027d6:	68 48 00 00 00       	pushq  $0x48
  4027db:	e9 60 fb ff ff       	jmpq   402340 <_init+0x20>

00000000004027e0 <_ZNSirsERl@plt>:
  4027e0:	ff 25 7a fa 20 00    	jmpq   *0x20fa7a(%rip)        # 612260 <_GLOBAL_OFFSET_TABLE_+0x260>
  4027e6:	68 49 00 00 00       	pushq  $0x49
  4027eb:	e9 50 fb ff ff       	jmpq   402340 <_init+0x20>

00000000004027f0 <isspace@plt>:
  4027f0:	ff 25 72 fa 20 00    	jmpq   *0x20fa72(%rip)        # 612268 <_GLOBAL_OFFSET_TABLE_+0x268>
  4027f6:	68 4a 00 00 00       	pushq  $0x4a
  4027fb:	e9 40 fb ff ff       	jmpq   402340 <_init+0x20>

0000000000402800 <_ZNSt19basic_istringstreamIcSt11char_traitsIcESaIcEEC1ERKSsSt13_Ios_Openmode@plt>:
  402800:	ff 25 6a fa 20 00    	jmpq   *0x20fa6a(%rip)        # 612270 <_GLOBAL_OFFSET_TABLE_+0x270>
  402806:	68 4b 00 00 00       	pushq  $0x4b
  40280b:	e9 30 fb ff ff       	jmpq   402340 <_init+0x20>

0000000000402810 <__cxa_end_catch@plt>:
  402810:	ff 25 62 fa 20 00    	jmpq   *0x20fa62(%rip)        # 612278 <_GLOBAL_OFFSET_TABLE_+0x278>
  402816:	68 4c 00 00 00       	pushq  $0x4c
  40281b:	e9 20 fb ff ff       	jmpq   402340 <_init+0x20>

0000000000402820 <_ZSt17__throw_bad_allocv@plt>:
  402820:	ff 25 5a fa 20 00    	jmpq   *0x20fa5a(%rip)        # 612280 <_GLOBAL_OFFSET_TABLE_+0x280>
  402826:	68 4d 00 00 00       	pushq  $0x4d
  40282b:	e9 10 fb ff ff       	jmpq   402340 <_init+0x20>

0000000000402830 <isxdigit@plt>:
  402830:	ff 25 52 fa 20 00    	jmpq   *0x20fa52(%rip)        # 612288 <_GLOBAL_OFFSET_TABLE_+0x288>
  402836:	68 4e 00 00 00       	pushq  $0x4e
  40283b:	e9 00 fb ff ff       	jmpq   402340 <_init+0x20>

0000000000402840 <_ZSt4endlIcSt11char_traitsIcEERSt13basic_ostreamIT_T0_ES6_@plt>:
  402840:	ff 25 4a fa 20 00    	jmpq   *0x20fa4a(%rip)        # 612290 <_GLOBAL_OFFSET_TABLE_+0x290>
  402846:	68 4f 00 00 00       	pushq  $0x4f
  40284b:	e9 f0 fa ff ff       	jmpq   402340 <_init+0x20>

0000000000402850 <__cxa_begin_catch@plt>:
  402850:	ff 25 42 fa 20 00    	jmpq   *0x20fa42(%rip)        # 612298 <_GLOBAL_OFFSET_TABLE_+0x298>
  402856:	68 50 00 00 00       	pushq  $0x50
  40285b:	e9 e0 fa ff ff       	jmpq   402340 <_init+0x20>

0000000000402860 <_ZNSs9push_backEc@plt>:
  402860:	ff 25 3a fa 20 00    	jmpq   *0x20fa3a(%rip)        # 6122a0 <_GLOBAL_OFFSET_TABLE_+0x2a0>
  402866:	68 51 00 00 00       	pushq  $0x51
  40286b:	e9 d0 fa ff ff       	jmpq   402340 <_init+0x20>

0000000000402870 <_ZNSaIcEC1Ev@plt>:
  402870:	ff 25 32 fa 20 00    	jmpq   *0x20fa32(%rip)        # 6122a8 <_GLOBAL_OFFSET_TABLE_+0x2a8>
  402876:	68 52 00 00 00       	pushq  $0x52
  40287b:	e9 c0 fa ff ff       	jmpq   402340 <_init+0x20>

0000000000402880 <__gxx_personality_v0@plt>:
  402880:	ff 25 2a fa 20 00    	jmpq   *0x20fa2a(%rip)        # 6122b0 <_GLOBAL_OFFSET_TABLE_+0x2b0>
  402886:	68 53 00 00 00       	pushq  $0x53
  40288b:	e9 b0 fa ff ff       	jmpq   402340 <_init+0x20>

0000000000402890 <_ZNSt19basic_ostringstreamIcSt11char_traitsIcESaIcEEC1ESt13_Ios_Openmode@plt>:
  402890:	ff 25 22 fa 20 00    	jmpq   *0x20fa22(%rip)        # 6122b8 <_GLOBAL_OFFSET_TABLE_+0x2b8>
  402896:	68 54 00 00 00       	pushq  $0x54
  40289b:	e9 a0 fa ff ff       	jmpq   402340 <_init+0x20>

00000000004028a0 <fprintf@plt>:
  4028a0:	ff 25 1a fa 20 00    	jmpq   *0x20fa1a(%rip)        # 6122c0 <_GLOBAL_OFFSET_TABLE_+0x2c0>
  4028a6:	68 55 00 00 00       	pushq  $0x55
  4028ab:	e9 90 fa ff ff       	jmpq   402340 <_init+0x20>

00000000004028b0 <_ZNSs6resizeEm@plt>:
  4028b0:	ff 25 12 fa 20 00    	jmpq   *0x20fa12(%rip)        # 6122c8 <_GLOBAL_OFFSET_TABLE_+0x2c8>
  4028b6:	68 56 00 00 00       	pushq  $0x56
  4028bb:	e9 80 fa ff ff       	jmpq   402340 <_init+0x20>

00000000004028c0 <_Znwm@plt>:
  4028c0:	ff 25 0a fa 20 00    	jmpq   *0x20fa0a(%rip)        # 6122d0 <_GLOBAL_OFFSET_TABLE_+0x2d0>
  4028c6:	68 57 00 00 00       	pushq  $0x57
  4028cb:	e9 70 fa ff ff       	jmpq   402340 <_init+0x20>

00000000004028d0 <_Unwind_Resume@plt>:
  4028d0:	ff 25 02 fa 20 00    	jmpq   *0x20fa02(%rip)        # 6122d8 <_GLOBAL_OFFSET_TABLE_+0x2d8>
  4028d6:	68 58 00 00 00       	pushq  $0x58
  4028db:	e9 60 fa ff ff       	jmpq   402340 <_init+0x20>

00000000004028e0 <_ZNSsaSERKSs@plt>:
  4028e0:	ff 25 fa f9 20 00    	jmpq   *0x20f9fa(%rip)        # 6122e0 <_GLOBAL_OFFSET_TABLE_+0x2e0>
  4028e6:	68 59 00 00 00       	pushq  $0x59
  4028eb:	e9 50 fa ff ff       	jmpq   402340 <_init+0x20>

00000000004028f0 <memcpy@plt>:
  4028f0:	ff 25 f2 f9 20 00    	jmpq   *0x20f9f2(%rip)        # 6122e8 <_GLOBAL_OFFSET_TABLE_+0x2e8>
  4028f6:	68 5a 00 00 00       	pushq  $0x5a
  4028fb:	e9 40 fa ff ff       	jmpq   402340 <_init+0x20>

0000000000402900 <_ZNSolsEPFRSt8ios_baseS0_E@plt>:
  402900:	ff 25 ea f9 20 00    	jmpq   *0x20f9ea(%rip)        # 6122f0 <_GLOBAL_OFFSET_TABLE_+0x2f0>
  402906:	68 5b 00 00 00       	pushq  $0x5b
  40290b:	e9 30 fa ff ff       	jmpq   402340 <_init+0x20>

0000000000402910 <_ZNSs6appendERKSs@plt>:
  402910:	ff 25 e2 f9 20 00    	jmpq   *0x20f9e2(%rip)        # 6122f8 <_GLOBAL_OFFSET_TABLE_+0x2f8>
  402916:	68 5c 00 00 00       	pushq  $0x5c
  40291b:	e9 20 fa ff ff       	jmpq   402340 <_init+0x20>

0000000000402920 <_ZSt2wsIcSt11char_traitsIcEERSt13basic_istreamIT_T0_ES6_@plt>:
  402920:	ff 25 da f9 20 00    	jmpq   *0x20f9da(%rip)        # 612300 <_GLOBAL_OFFSET_TABLE_+0x300>
  402926:	68 5d 00 00 00       	pushq  $0x5d
  40292b:	e9 10 fa ff ff       	jmpq   402340 <_init+0x20>

0000000000402930 <_ZStlsIcSt11char_traitsIcEERSt13basic_ostreamIT_T0_ES6_St5_Setw@plt>:
  402930:	ff 25 d2 f9 20 00    	jmpq   *0x20f9d2(%rip)        # 612308 <_GLOBAL_OFFSET_TABLE_+0x308>
  402936:	68 5e 00 00 00       	pushq  $0x5e
  40293b:	e9 00 fa ff ff       	jmpq   402340 <_init+0x20>

0000000000402940 <_ZStlsIcSt11char_traitsIcEERSt13basic_ostreamIT_T0_ES6_St8_SetfillIS3_E@plt>:
  402940:	ff 25 ca f9 20 00    	jmpq   *0x20f9ca(%rip)        # 612310 <_GLOBAL_OFFSET_TABLE_+0x310>
  402946:	68 5f 00 00 00       	pushq  $0x5f
  40294b:	e9 f0 f9 ff ff       	jmpq   402340 <_init+0x20>

0000000000402950 <isprint@plt>:
  402950:	ff 25 c2 f9 20 00    	jmpq   *0x20f9c2(%rip)        # 612318 <_GLOBAL_OFFSET_TABLE_+0x318>
  402956:	68 60 00 00 00       	pushq  $0x60
  40295b:	e9 e0 f9 ff ff       	jmpq   402340 <_init+0x20>

0000000000402960 <fflush@plt>:
  402960:	ff 25 ba f9 20 00    	jmpq   *0x20f9ba(%rip)        # 612320 <_GLOBAL_OFFSET_TABLE_+0x320>
  402966:	68 61 00 00 00       	pushq  $0x61
  40296b:	e9 d0 f9 ff ff       	jmpq   402340 <_init+0x20>

Disassembly of section .text:

0000000000402970 <_start>:
  402970:	31 ed                	xor    %ebp,%ebp
  402972:	49 89 d1             	mov    %rdx,%r9
  402975:	5e                   	pop    %rsi
  402976:	48 89 e2             	mov    %rsp,%rdx
  402979:	48 83 e4 f0          	and    $0xfffffffffffffff0,%rsp
  40297d:	50                   	push   %rax
  40297e:	54                   	push   %rsp
  40297f:	49 c7 c0 f0 c2 40 00 	mov    $0x40c2f0,%r8
  402986:	48 c7 c1 80 c2 40 00 	mov    $0x40c280,%rcx
  40298d:	48 c7 c7 5d 2a 40 00 	mov    $0x402a5d,%rdi
  402994:	e8 47 fb ff ff       	callq  4024e0 <__libc_start_main@plt>
  402999:	f4                   	hlt    
  40299a:	66 0f 1f 44 00 00    	nopw   0x0(%rax,%rax,1)

00000000004029a0 <deregister_tm_clones>:
  4029a0:	b8 3f 23 61 00       	mov    $0x61233f,%eax
  4029a5:	55                   	push   %rbp
  4029a6:	48 2d 38 23 61 00    	sub    $0x612338,%rax
  4029ac:	48 83 f8 0e          	cmp    $0xe,%rax
  4029b0:	48 89 e5             	mov    %rsp,%rbp
  4029b3:	77 02                	ja     4029b7 <deregister_tm_clones+0x17>
  4029b5:	5d                   	pop    %rbp
  4029b6:	c3                   	retq   
  4029b7:	b8 00 00 00 00       	mov    $0x0,%eax
  4029bc:	48 85 c0             	test   %rax,%rax
  4029bf:	74 f4                	je     4029b5 <deregister_tm_clones+0x15>
  4029c1:	5d                   	pop    %rbp
  4029c2:	bf 38 23 61 00       	mov    $0x612338,%edi
  4029c7:	ff e0                	jmpq   *%rax
  4029c9:	0f 1f 80 00 00 00 00 	nopl   0x0(%rax)

00000000004029d0 <register_tm_clones>:
  4029d0:	b8 38 23 61 00       	mov    $0x612338,%eax
  4029d5:	55                   	push   %rbp
  4029d6:	48 2d 38 23 61 00    	sub    $0x612338,%rax
  4029dc:	48 c1 f8 03          	sar    $0x3,%rax
  4029e0:	48 89 e5             	mov    %rsp,%rbp
  4029e3:	48 89 c2             	mov    %rax,%rdx
  4029e6:	48 c1 ea 3f          	shr    $0x3f,%rdx
  4029ea:	48 01 d0             	add    %rdx,%rax
  4029ed:	48 d1 f8             	sar    %rax
  4029f0:	75 02                	jne    4029f4 <register_tm_clones+0x24>
  4029f2:	5d                   	pop    %rbp
  4029f3:	c3                   	retq   
  4029f4:	ba 00 00 00 00       	mov    $0x0,%edx
  4029f9:	48 85 d2             	test   %rdx,%rdx
  4029fc:	74 f4                	je     4029f2 <register_tm_clones+0x22>
  4029fe:	5d                   	pop    %rbp
  4029ff:	48 89 c6             	mov    %rax,%rsi
  402a02:	bf 38 23 61 00       	mov    $0x612338,%edi
  402a07:	ff e2                	jmpq   *%rdx
  402a09:	0f 1f 80 00 00 00 00 	nopl   0x0(%rax)

0000000000402a10 <__do_global_dtors_aux>:
  402a10:	80 3d 61 fc 20 00 00 	cmpb   $0x0,0x20fc61(%rip)        # 612678 <completed.6972>
  402a17:	75 11                	jne    402a2a <__do_global_dtors_aux+0x1a>
  402a19:	55                   	push   %rbp
  402a1a:	48 89 e5             	mov    %rsp,%rbp
  402a1d:	e8 7e ff ff ff       	callq  4029a0 <deregister_tm_clones>
  402a22:	5d                   	pop    %rbp
  402a23:	c6 05 4e fc 20 00 01 	movb   $0x1,0x20fc4e(%rip)        # 612678 <completed.6972>
  402a2a:	f3 c3                	repz retq 
  402a2c:	0f 1f 40 00          	nopl   0x0(%rax)

0000000000402a30 <frame_dummy>:
  402a30:	48 83 3d c8 f3 20 00 	cmpq   $0x0,0x20f3c8(%rip)        # 611e00 <__JCR_END__>
  402a37:	00 
  402a38:	74 1e                	je     402a58 <frame_dummy+0x28>
  402a3a:	b8 00 00 00 00       	mov    $0x0,%eax
  402a3f:	48 85 c0             	test   %rax,%rax
  402a42:	74 14                	je     402a58 <frame_dummy+0x28>
  402a44:	55                   	push   %rbp
  402a45:	bf 00 1e 61 00       	mov    $0x611e00,%edi
  402a4a:	48 89 e5             	mov    %rsp,%rbp
  402a4d:	ff d0                	callq  *%rax
  402a4f:	5d                   	pop    %rbp
  402a50:	e9 7b ff ff ff       	jmpq   4029d0 <register_tm_clones>
  402a55:	0f 1f 00             	nopl   (%rax)
  402a58:	e9 73 ff ff ff       	jmpq   4029d0 <register_tm_clones>

0000000000402a5d <main>:
  402a5d:	55                   	push   %rbp
  402a5e:	48 89 e5             	mov    %rsp,%rbp
  402a61:	53                   	push   %rbx
  402a62:	48 81 ec 88 00 00 00 	sub    $0x88,%rsp
  402a69:	48 8d 85 70 ff ff ff 	lea    -0x90(%rbp),%rax
  402a70:	48 89 c7             	mov    %rax,%rdi
  402a73:	e8 28 f9 ff ff       	callq  4023a0 <_ZNSsC1Ev@plt>
  402a78:	48 8d 45 80          	lea    -0x80(%rbp),%rax
  402a7c:	48 89 c7             	mov    %rax,%rdi
  402a7f:	e8 1c f9 ff ff       	callq  4023a0 <_ZNSsC1Ev@plt>
  402a84:	be 08 c3 40 00       	mov    $0x40c308,%esi
  402a89:	bf 00 25 61 00       	mov    $0x612500,%edi
  402a8e:	e8 fd fa ff ff       	callq  402590 <_ZStlsISt11char_traitsIcEERSt13basic_ostreamIcT_ES5_PKc@plt>
  402a93:	48 8d 85 70 ff ff ff 	lea    -0x90(%rbp),%rax
  402a9a:	48 89 c6             	mov    %rax,%rsi
  402a9d:	bf 40 23 61 00       	mov    $0x612340,%edi
  402aa2:	e8 79 f9 ff ff       	callq  402420 <_ZSt7getlineIcSt11char_traitsIcESaIcEERSt13basic_istreamIT_T0_ES7_RSbIS4_S5_T1_E@plt>
  402aa7:	48 8d 85 70 ff ff ff 	lea    -0x90(%rbp),%rax
  402aae:	be 2c c3 40 00       	mov    $0x40c32c,%esi
  402ab3:	48 89 c7             	mov    %rax,%rdi
  402ab6:	e8 65 0a 00 00       	callq  403520 <_ZSteqIcSt11char_traitsIcESaIcEEbRKSbIT_T0_T1_EPKS3_>
  402abb:	84 c0                	test   %al,%al
  402abd:	74 14                	je     402ad3 <main+0x76>
  402abf:	be 2d c3 40 00       	mov    $0x40c32d,%esi
  402ac4:	bf 00 25 61 00       	mov    $0x612500,%edi
  402ac9:	e8 c2 fa ff ff       	callq  402590 <_ZStlsISt11char_traitsIcEERSt13basic_ostreamIcT_ES5_PKc@plt>
  402ace:	e9 b4 00 00 00       	jmpq   402b87 <main+0x12a>
  402ad3:	be 37 c3 40 00       	mov    $0x40c337,%esi
  402ad8:	bf 00 25 61 00       	mov    $0x612500,%edi
  402add:	e8 ae fa ff ff       	callq  402590 <_ZStlsISt11char_traitsIcEERSt13basic_ostreamIcT_ES5_PKc@plt>
  402ae2:	48 8d 45 80          	lea    -0x80(%rbp),%rax
  402ae6:	48 89 c6             	mov    %rax,%rsi
  402ae9:	bf 40 23 61 00       	mov    $0x612340,%edi
  402aee:	e8 2d f9 ff ff       	callq  402420 <_ZSt7getlineIcSt11char_traitsIcESaIcEERSt13basic_istreamIT_T0_ES7_RSbIS4_S5_T1_E@plt>
  402af3:	48 8d 55 80          	lea    -0x80(%rbp),%rdx
  402af7:	48 8d 45 a0          	lea    -0x60(%rbp),%rax
  402afb:	48 89 d6             	mov    %rdx,%rsi
  402afe:	48 89 c7             	mov    %rax,%rdi
  402b01:	e8 0a fa ff ff       	callq  402510 <_ZNSsC1ERKSs@plt>
  402b06:	48 8d 95 70 ff ff ff 	lea    -0x90(%rbp),%rdx
  402b0d:	48 8d 45 90          	lea    -0x70(%rbp),%rax
  402b11:	48 89 d6             	mov    %rdx,%rsi
  402b14:	48 89 c7             	mov    %rax,%rdi
  402b17:	e8 f4 f9 ff ff       	callq  402510 <_ZNSsC1ERKSs@plt>
  402b1c:	48 8d 45 b0          	lea    -0x50(%rbp),%rax
  402b20:	48 8d 55 a0          	lea    -0x60(%rbp),%rdx
  402b24:	48 8d 4d 90          	lea    -0x70(%rbp),%rcx
  402b28:	48 89 ce             	mov    %rcx,%rsi
  402b2b:	48 89 c7             	mov    %rax,%rdi
  402b2e:	e8 5e 01 00 00       	callq  402c91 <_Z9getLadderSsSs>
  402b33:	48 8d 45 90          	lea    -0x70(%rbp),%rax
  402b37:	48 89 c7             	mov    %rax,%rdi
  402b3a:	e8 61 fa ff ff       	callq  4025a0 <_ZNSsD1Ev@plt>
  402b3f:	48 8d 45 a0          	lea    -0x60(%rbp),%rax
  402b43:	48 89 c7             	mov    %rax,%rdi
  402b46:	e8 55 fa ff ff       	callq  4025a0 <_ZNSsD1Ev@plt>
  402b4b:	48 8d 55 b0          	lea    -0x50(%rbp),%rdx
  402b4f:	48 8d 45 d0          	lea    -0x30(%rbp),%rax
  402b53:	48 89 d6             	mov    %rdx,%rsi
  402b56:	48 89 c7             	mov    %rax,%rdi
  402b59:	e8 52 0a 00 00       	callq  4035b0 <_ZNSt6vectorISsSaISsEEC1ERKS1_>
  402b5e:	48 8d 45 d0          	lea    -0x30(%rbp),%rax
  402b62:	48 89 c7             	mov    %rax,%rdi
  402b65:	e8 d0 06 00 00       	callq  40323a <_Z11printLadderSt6vectorISsSaISsEE>
  402b6a:	48 8d 45 d0          	lea    -0x30(%rbp),%rax
  402b6e:	48 89 c7             	mov    %rax,%rdi
  402b71:	e8 d4 09 00 00       	callq  40354a <_ZNSt6vectorISsSaISsEED1Ev>
  402b76:	48 8d 45 b0          	lea    -0x50(%rbp),%rax
  402b7a:	48 89 c7             	mov    %rax,%rdi
  402b7d:	e8 c8 09 00 00       	callq  40354a <_ZNSt6vectorISsSaISsEED1Ev>
  402b82:	e9 fd fe ff ff       	jmpq   402a84 <main+0x27>
  402b87:	bb 00 00 00 00       	mov    $0x0,%ebx
  402b8c:	48 8d 45 80          	lea    -0x80(%rbp),%rax
  402b90:	48 89 c7             	mov    %rax,%rdi
  402b93:	e8 08 fa ff ff       	callq  4025a0 <_ZNSsD1Ev@plt>
  402b98:	48 8d 85 70 ff ff ff 	lea    -0x90(%rbp),%rax
  402b9f:	48 89 c7             	mov    %rax,%rdi
  402ba2:	e8 f9 f9 ff ff       	callq  4025a0 <_ZNSsD1Ev@plt>
  402ba7:	89 d8                	mov    %ebx,%eax
  402ba9:	e9 94 00 00 00       	jmpq   402c42 <main+0x1e5>
  402bae:	48 89 c3             	mov    %rax,%rbx
  402bb1:	48 8d 45 90          	lea    -0x70(%rbp),%rax
  402bb5:	48 89 c7             	mov    %rax,%rdi
  402bb8:	e8 e3 f9 ff ff       	callq  4025a0 <_ZNSsD1Ev@plt>
  402bbd:	eb 14                	jmp    402bd3 <main+0x176>
  402bbf:	48 89 c3             	mov    %rax,%rbx
  402bc2:	48 8d 45 b0          	lea    -0x50(%rbp),%rax
  402bc6:	48 89 c7             	mov    %rax,%rdi
  402bc9:	e8 7c 09 00 00       	callq  40354a <_ZNSt6vectorISsSaISsEED1Ev>
  402bce:	eb 03                	jmp    402bd3 <main+0x176>
  402bd0:	48 89 c3             	mov    %rax,%rbx
  402bd3:	48 8d 45 a0          	lea    -0x60(%rbp),%rax
  402bd7:	48 89 c7             	mov    %rax,%rdi
  402bda:	e8 c1 f9 ff ff       	callq  4025a0 <_ZNSsD1Ev@plt>
  402bdf:	eb 36                	jmp    402c17 <main+0x1ba>
  402be1:	48 89 c3             	mov    %rax,%rbx
  402be4:	48 8d 45 b0          	lea    -0x50(%rbp),%rax
  402be8:	48 89 c7             	mov    %rax,%rdi
  402beb:	e8 5a 09 00 00       	callq  40354a <_ZNSt6vectorISsSaISsEED1Ev>
  402bf0:	eb 25                	jmp    402c17 <main+0x1ba>
  402bf2:	48 89 c3             	mov    %rax,%rbx
  402bf5:	48 8d 45 d0          	lea    -0x30(%rbp),%rax
  402bf9:	48 89 c7             	mov    %rax,%rdi
  402bfc:	e8 49 09 00 00       	callq  40354a <_ZNSt6vectorISsSaISsEED1Ev>
  402c01:	eb 03                	jmp    402c06 <main+0x1a9>
  402c03:	48 89 c3             	mov    %rax,%rbx
  402c06:	48 8d 45 b0          	lea    -0x50(%rbp),%rax
  402c0a:	48 89 c7             	mov    %rax,%rdi
  402c0d:	e8 38 09 00 00       	callq  40354a <_ZNSt6vectorISsSaISsEED1Ev>
  402c12:	eb 03                	jmp    402c17 <main+0x1ba>
  402c14:	48 89 c3             	mov    %rax,%rbx
  402c17:	48 8d 45 80          	lea    -0x80(%rbp),%rax
  402c1b:	48 89 c7             	mov    %rax,%rdi
  402c1e:	e8 7d f9 ff ff       	callq  4025a0 <_ZNSsD1Ev@plt>
  402c23:	eb 03                	jmp    402c28 <main+0x1cb>
  402c25:	48 89 c3             	mov    %rax,%rbx
  402c28:	48 8d 85 70 ff ff ff 	lea    -0x90(%rbp),%rax
  402c2f:	48 89 c7             	mov    %rax,%rdi
  402c32:	e8 69 f9 ff ff       	callq  4025a0 <_ZNSsD1Ev@plt>
  402c37:	48 89 d8             	mov    %rbx,%rax
  402c3a:	48 89 c7             	mov    %rax,%rdi
  402c3d:	e8 8e fc ff ff       	callq  4028d0 <_Unwind_Resume@plt>
  402c42:	48 81 c4 88 00 00 00 	add    $0x88,%rsp
  402c49:	5b                   	pop    %rbx
  402c4a:	5d                   	pop    %rbp
  402c4b:	c3                   	retq   

0000000000402c4c <_Z3logSs>:
  402c4c:	55                   	push   %rbp
  402c4d:	48 89 e5             	mov    %rsp,%rbp
  402c50:	48 83 ec 10          	sub    $0x10,%rsp
  402c54:	48 89 7d f8          	mov    %rdi,-0x8(%rbp)
  402c58:	48 8b 45 f8          	mov    -0x8(%rbp),%rax
  402c5c:	48 89 c7             	mov    %rax,%rdi
  402c5f:	e8 dc f7 ff ff       	callq  402440 <_ZNKSs5c_strEv@plt>
  402c64:	48 89 c2             	mov    %rax,%rdx
  402c67:	48 8b 05 6a fa 20 00 	mov    0x20fa6a(%rip),%rax        # 6126d8 <Log>
  402c6e:	be 50 c3 40 00       	mov    $0x40c350,%esi
  402c73:	48 89 c7             	mov    %rax,%rdi
  402c76:	b8 00 00 00 00       	mov    $0x0,%eax
  402c7b:	e8 20 fc ff ff       	callq  4028a0 <fprintf@plt>
  402c80:	48 8b 05 51 fa 20 00 	mov    0x20fa51(%rip),%rax        # 6126d8 <Log>
  402c87:	48 89 c7             	mov    %rax,%rdi
  402c8a:	e8 d1 fc ff ff       	callq  402960 <fflush@plt>
  402c8f:	c9                   	leaveq 
  402c90:	c3                   	retq   

0000000000402c91 <_Z9getLadderSsSs>:
  402c91:	55                   	push   %rbp
  402c92:	48 89 e5             	mov    %rsp,%rbp
  402c95:	41 55                	push   %r13
  402c97:	41 54                	push   %r12
  402c99:	53                   	push   %rbx
  402c9a:	48 81 ec 48 01 00 00 	sub    $0x148,%rsp
  402ca1:	48 89 bd b8 fe ff ff 	mov    %rdi,-0x148(%rbp)
  402ca8:	48 89 b5 b0 fe ff ff 	mov    %rsi,-0x150(%rbp)
  402caf:	48 89 95 a8 fe ff ff 	mov    %rdx,-0x158(%rbp)
  402cb6:	48 8d 85 30 ff ff ff 	lea    -0xd0(%rbp),%rax
  402cbd:	48 89 c7             	mov    %rax,%rdi
  402cc0:	e8 a9 09 00 00       	callq  40366e <_ZNSt5dequeIPSt6vectorISsSaISsEESaIS3_EEC1Ev>
  402cc5:	48 8d 45 80          	lea    -0x80(%rbp),%rax
  402cc9:	48 89 c7             	mov    %rax,%rdi
  402ccc:	e8 3f 0a 00 00       	callq  403710 <_ZNSaISsEC1Ev>
  402cd1:	4c 8d 65 80          	lea    -0x80(%rbp),%r12
  402cd5:	bf 18 00 00 00       	mov    $0x18,%edi
  402cda:	e8 e1 fb ff ff       	callq  4028c0 <_Znwm@plt>
  402cdf:	48 89 c3             	mov    %rax,%rbx
  402ce2:	48 8b 85 b0 fe ff ff 	mov    -0x150(%rbp),%rax
  402ce9:	4c 89 e1             	mov    %r12,%rcx
  402cec:	48 89 c2             	mov    %rax,%rdx
  402cef:	be 01 00 00 00       	mov    $0x1,%esi
  402cf4:	48 89 df             	mov    %rbx,%rdi
  402cf7:	e8 48 0a 00 00       	callq  403744 <_ZNSt6vectorISsSaISsEEC1EmRKSsRKS0_>
  402cfc:	48 89 9d 18 ff ff ff 	mov    %rbx,-0xe8(%rbp)
  402d03:	48 8d 45 80          	lea    -0x80(%rbp),%rax
  402d07:	48 89 c7             	mov    %rax,%rdi
  402d0a:	e8 1b 0a 00 00       	callq  40372a <_ZNSaISsED1Ev>
  402d0f:	48 8d 45 80          	lea    -0x80(%rbp),%rax
  402d13:	48 89 c7             	mov    %rax,%rdi
  402d16:	e8 7d 33 00 00       	callq  406098 <_ZN7LexiconC1Ev>
  402d1b:	48 8b 95 b0 fe ff ff 	mov    -0x150(%rbp),%rdx
  402d22:	48 8d 85 20 ff ff ff 	lea    -0xe0(%rbp),%rax
  402d29:	48 89 d6             	mov    %rdx,%rsi
  402d2c:	48 89 c7             	mov    %rax,%rdi
  402d2f:	e8 dc f7 ff ff       	callq  402510 <_ZNSsC1ERKSs@plt>
  402d34:	48 8d 95 20 ff ff ff 	lea    -0xe0(%rbp),%rdx
  402d3b:	48 8d 45 80          	lea    -0x80(%rbp),%rax
  402d3f:	48 89 d6             	mov    %rdx,%rsi
  402d42:	48 89 c7             	mov    %rax,%rdi
  402d45:	e8 1a 42 00 00       	callq  406f64 <_ZN7Lexicon3addESs>
  402d4a:	48 8d 85 20 ff ff ff 	lea    -0xe0(%rbp),%rax
  402d51:	48 89 c7             	mov    %rax,%rdi
  402d54:	e8 47 f8 ff ff       	callq  4025a0 <_ZNSsD1Ev@plt>
  402d59:	48 8b 85 b8 fe ff ff 	mov    -0x148(%rbp),%rax
  402d60:	48 89 c7             	mov    %rax,%rdi
  402d63:	e8 46 0a 00 00       	callq  4037ae <_ZNSt6vectorISsSaISsEEC1Ev>
  402d68:	48 8d 95 18 ff ff ff 	lea    -0xe8(%rbp),%rdx
  402d6f:	48 8d 85 30 ff ff ff 	lea    -0xd0(%rbp),%rax
  402d76:	48 89 d6             	mov    %rdx,%rsi
  402d79:	48 89 c7             	mov    %rax,%rdi
  402d7c:	e8 47 0a 00 00       	callq  4037c8 <_ZNSt5dequeIPSt6vectorISsSaISsEESaIS3_EE9push_backERKS3_>
  402d81:	e9 60 03 00 00       	jmpq   4030e6 <_Z9getLadderSsSs+0x455>
  402d86:	48 8d 85 30 ff ff ff 	lea    -0xd0(%rbp),%rax
  402d8d:	48 89 c7             	mov    %rax,%rdi
  402d90:	e8 cd 0a 00 00       	callq  403862 <_ZNSt5dequeIPSt6vectorISsSaISsEESaIS3_EE5frontEv>
  402d95:	48 8b 00             	mov    (%rax),%rax
  402d98:	48 89 85 28 ff ff ff 	mov    %rax,-0xd8(%rbp)
  402d9f:	48 8b 85 28 ff ff ff 	mov    -0xd8(%rbp),%rax
  402da6:	48 89 c7             	mov    %rax,%rdi
  402da9:	e8 e2 0a 00 00       	callq  403890 <_ZNKSt6vectorISsSaISsEE4sizeEv>
  402dae:	48 8d 50 ff          	lea    -0x1(%rax),%rdx
  402db2:	48 8b 85 28 ff ff ff 	mov    -0xd8(%rbp),%rax
  402db9:	48 89 d6             	mov    %rdx,%rsi
  402dbc:	48 89 c7             	mov    %rax,%rdi
  402dbf:	e8 f2 0a 00 00       	callq  4038b6 <_ZNSt6vectorISsSaISsEE2atEm>
  402dc4:	48 8b 95 a8 fe ff ff 	mov    -0x158(%rbp),%rdx
  402dcb:	48 89 d6             	mov    %rdx,%rsi
  402dce:	48 89 c7             	mov    %rax,%rdi
  402dd1:	e8 18 0b 00 00       	callq  4038ee <_ZSteqIcEN9__gnu_cxx11__enable_ifIXsrSt9__is_charIT_E7__valueEbE6__typeERKSbIS3_St11char_traitsIS3_ESaIS3_EESC_>
  402dd6:	84 c0                	test   %al,%al
  402dd8:	74 3a                	je     402e14 <_Z9getLadderSsSs+0x183>
  402dda:	48 8b 95 28 ff ff ff 	mov    -0xd8(%rbp),%rdx
  402de1:	48 8b 85 b8 fe ff ff 	mov    -0x148(%rbp),%rax
  402de8:	48 89 d6             	mov    %rdx,%rsi
  402deb:	48 89 c7             	mov    %rax,%rdi
  402dee:	e8 7f 0b 00 00       	callq  403972 <_ZNSt6vectorISsSaISsEEaSERKS1_>
  402df3:	48 8b 9d 28 ff ff ff 	mov    -0xd8(%rbp),%rbx
  402dfa:	48 85 db             	test   %rbx,%rbx
  402dfd:	74 10                	je     402e0f <_Z9getLadderSsSs+0x17e>
  402dff:	48 89 df             	mov    %rbx,%rdi
  402e02:	e8 43 07 00 00       	callq  40354a <_ZNSt6vectorISsSaISsEED1Ev>
  402e07:	48 89 df             	mov    %rbx,%rdi
  402e0a:	e8 51 f6 ff ff       	callq  402460 <_ZdlPv@plt>
  402e0f:	e9 ec 02 00 00       	jmpq   403100 <_Z9getLadderSsSs+0x46f>
  402e14:	48 8b 85 28 ff ff ff 	mov    -0xd8(%rbp),%rax
  402e1b:	48 89 c7             	mov    %rax,%rdi
  402e1e:	e8 6d 0a 00 00       	callq  403890 <_ZNKSt6vectorISsSaISsEE4sizeEv>
  402e23:	48 8d 50 ff          	lea    -0x1(%rax),%rdx
  402e27:	48 8b 85 28 ff ff ff 	mov    -0xd8(%rbp),%rax
  402e2e:	48 89 d6             	mov    %rdx,%rsi
  402e31:	48 89 c7             	mov    %rax,%rdi
  402e34:	e8 7d 0a 00 00       	callq  4038b6 <_ZNSt6vectorISsSaISsEE2atEm>
  402e39:	48 89 c2             	mov    %rax,%rdx
  402e3c:	48 8d 85 d0 fe ff ff 	lea    -0x130(%rbp),%rax
  402e43:	48 89 d6             	mov    %rdx,%rsi
  402e46:	48 89 c7             	mov    %rax,%rdi
  402e49:	e8 c2 f6 ff ff       	callq  402510 <_ZNSsC1ERKSs@plt>
  402e4e:	c7 85 c0 fe ff ff 00 	movl   $0x0,-0x140(%rbp)
  402e55:	00 00 00 
  402e58:	e9 29 02 00 00       	jmpq   403086 <_Z9getLadderSsSs+0x3f5>
  402e5d:	8b 85 c0 fe ff ff    	mov    -0x140(%rbp),%eax
  402e63:	48 63 d0             	movslq %eax,%rdx
  402e66:	48 8d 85 d0 fe ff ff 	lea    -0x130(%rbp),%rax
  402e6d:	48 89 d6             	mov    %rdx,%rsi
  402e70:	48 89 c7             	mov    %rax,%rdi
  402e73:	e8 d8 f7 ff ff       	callq  402650 <_ZNSsixEm@plt>
  402e78:	0f b6 00             	movzbl (%rax),%eax
  402e7b:	0f be c0             	movsbl %al,%eax
  402e7e:	89 85 c8 fe ff ff    	mov    %eax,-0x138(%rbp)
  402e84:	8b 85 c8 fe ff ff    	mov    -0x138(%rbp),%eax
  402e8a:	83 e8 61             	sub    $0x61,%eax
  402e8d:	89 85 cc fe ff ff    	mov    %eax,-0x134(%rbp)
  402e93:	c7 85 c4 fe ff ff 01 	movl   $0x1,-0x13c(%rbp)
  402e9a:	00 00 00 
  402e9d:	e9 d0 01 00 00       	jmpq   403072 <_Z9getLadderSsSs+0x3e1>
  402ea2:	48 8d 95 d0 fe ff ff 	lea    -0x130(%rbp),%rdx
  402ea9:	48 8d 85 e0 fe ff ff 	lea    -0x120(%rbp),%rax
  402eb0:	48 89 d6             	mov    %rdx,%rsi
  402eb3:	48 89 c7             	mov    %rax,%rdi
  402eb6:	e8 55 f6 ff ff       	callq  402510 <_ZNSsC1ERKSs@plt>
  402ebb:	8b 85 c0 fe ff ff    	mov    -0x140(%rbp),%eax
  402ec1:	48 63 d0             	movslq %eax,%rdx
  402ec4:	48 8d 85 e0 fe ff ff 	lea    -0x120(%rbp),%rax
  402ecb:	48 89 d6             	mov    %rdx,%rsi
  402ece:	48 89 c7             	mov    %rax,%rdi
  402ed1:	e8 7a f7 ff ff       	callq  402650 <_ZNSsixEm@plt>
  402ed6:	48 89 c6             	mov    %rax,%rsi
  402ed9:	8b 85 c4 fe ff ff    	mov    -0x13c(%rbp),%eax
  402edf:	8b 95 cc fe ff ff    	mov    -0x134(%rbp),%edx
  402ee5:	8d 0c 02             	lea    (%rdx,%rax,1),%ecx
  402ee8:	ba 4f ec c4 4e       	mov    $0x4ec4ec4f,%edx
  402eed:	89 c8                	mov    %ecx,%eax
  402eef:	f7 ea                	imul   %edx
  402ef1:	c1 fa 03             	sar    $0x3,%edx
  402ef4:	89 c8                	mov    %ecx,%eax
  402ef6:	c1 f8 1f             	sar    $0x1f,%eax
  402ef9:	29 c2                	sub    %eax,%edx
  402efb:	89 d0                	mov    %edx,%eax
  402efd:	6b c0 1a             	imul   $0x1a,%eax,%eax
  402f00:	29 c1                	sub    %eax,%ecx
  402f02:	89 c8                	mov    %ecx,%eax
  402f04:	83 c0 61             	add    $0x61,%eax
  402f07:	88 06                	mov    %al,(%rsi)
  402f09:	bb 00 00 00 00       	mov    $0x0,%ebx
  402f0e:	41 bc 00 00 00 00    	mov    $0x0,%r12d
  402f14:	48 8d 95 e0 fe ff ff 	lea    -0x120(%rbp),%rdx
  402f1b:	48 8d 85 f0 fe ff ff 	lea    -0x110(%rbp),%rax
  402f22:	48 89 d6             	mov    %rdx,%rsi
  402f25:	48 89 c7             	mov    %rax,%rdi
  402f28:	e8 e3 f5 ff ff       	callq  402510 <_ZNSsC1ERKSs@plt>
  402f2d:	bb 01 00 00 00       	mov    $0x1,%ebx
  402f32:	48 8d 85 f0 fe ff ff 	lea    -0x110(%rbp),%rax
  402f39:	48 89 c6             	mov    %rax,%rsi
  402f3c:	bf 80 26 61 00       	mov    $0x612680,%edi
  402f41:	e8 b6 3f 00 00       	callq  406efc <_ZNK7Lexicon8containsESs>
  402f46:	84 c0                	test   %al,%al
  402f48:	74 43                	je     402f8d <_Z9getLadderSsSs+0x2fc>
  402f4a:	48 8d 95 e0 fe ff ff 	lea    -0x120(%rbp),%rdx
  402f51:	48 8d 85 00 ff ff ff 	lea    -0x100(%rbp),%rax
  402f58:	48 89 d6             	mov    %rdx,%rsi
  402f5b:	48 89 c7             	mov    %rax,%rdi
  402f5e:	e8 ad f5 ff ff       	callq  402510 <_ZNSsC1ERKSs@plt>
  402f63:	41 bc 01 00 00 00    	mov    $0x1,%r12d
  402f69:	48 8d 95 00 ff ff ff 	lea    -0x100(%rbp),%rdx
  402f70:	48 8d 45 80          	lea    -0x80(%rbp),%rax
  402f74:	48 89 d6             	mov    %rdx,%rsi
  402f77:	48 89 c7             	mov    %rax,%rdi
  402f7a:	e8 7d 3f 00 00       	callq  406efc <_ZNK7Lexicon8containsESs>
  402f7f:	83 f0 01             	xor    $0x1,%eax
  402f82:	84 c0                	test   %al,%al
  402f84:	74 07                	je     402f8d <_Z9getLadderSsSs+0x2fc>
  402f86:	b8 01 00 00 00       	mov    $0x1,%eax
  402f8b:	eb 05                	jmp    402f92 <_Z9getLadderSsSs+0x301>
  402f8d:	b8 00 00 00 00       	mov    $0x0,%eax
  402f92:	41 89 c5             	mov    %eax,%r13d
  402f95:	45 84 e4             	test   %r12b,%r12b
  402f98:	74 0f                	je     402fa9 <_Z9getLadderSsSs+0x318>
  402f9a:	48 8d 85 00 ff ff ff 	lea    -0x100(%rbp),%rax
  402fa1:	48 89 c7             	mov    %rax,%rdi
  402fa4:	e8 f7 f5 ff ff       	callq  4025a0 <_ZNSsD1Ev@plt>
  402fa9:	84 db                	test   %bl,%bl
  402fab:	74 10                	je     402fbd <_Z9getLadderSsSs+0x32c>
  402fad:	90                   	nop
  402fae:	48 8d 85 f0 fe ff ff 	lea    -0x110(%rbp),%rax
  402fb5:	48 89 c7             	mov    %rax,%rdi
  402fb8:	e8 e3 f5 ff ff       	callq  4025a0 <_ZNSsD1Ev@plt>
  402fbd:	45 84 ed             	test   %r13b,%r13b
  402fc0:	0f 84 96 00 00 00    	je     40305c <_Z9getLadderSsSs+0x3cb>
  402fc6:	bf 18 00 00 00       	mov    $0x18,%edi
  402fcb:	e8 f0 f8 ff ff       	callq  4028c0 <_Znwm@plt>
  402fd0:	48 89 c3             	mov    %rax,%rbx
  402fd3:	48 8b 85 28 ff ff ff 	mov    -0xd8(%rbp),%rax
  402fda:	48 89 c6             	mov    %rax,%rsi
  402fdd:	48 89 df             	mov    %rbx,%rdi
  402fe0:	e8 cb 05 00 00       	callq  4035b0 <_ZNSt6vectorISsSaISsEEC1ERKS1_>
  402fe5:	48 89 9d 20 ff ff ff 	mov    %rbx,-0xe0(%rbp)
  402fec:	48 8b 85 20 ff ff ff 	mov    -0xe0(%rbp),%rax
  402ff3:	48 8d 95 e0 fe ff ff 	lea    -0x120(%rbp),%rdx
  402ffa:	48 89 d6             	mov    %rdx,%rsi
  402ffd:	48 89 c7             	mov    %rax,%rdi
  403000:	e8 a7 0b 00 00       	callq  403bac <_ZNSt6vectorISsSaISsEE9push_backERKSs>
  403005:	48 8d 95 20 ff ff ff 	lea    -0xe0(%rbp),%rdx
  40300c:	48 8d 85 30 ff ff ff 	lea    -0xd0(%rbp),%rax
  403013:	48 89 d6             	mov    %rdx,%rsi
  403016:	48 89 c7             	mov    %rax,%rdi
  403019:	e8 aa 07 00 00       	callq  4037c8 <_ZNSt5dequeIPSt6vectorISsSaISsEESaIS3_EE9push_backERKS3_>
  40301e:	48 8d 95 e0 fe ff ff 	lea    -0x120(%rbp),%rdx
  403025:	48 8d 85 10 ff ff ff 	lea    -0xf0(%rbp),%rax
  40302c:	48 89 d6             	mov    %rdx,%rsi
  40302f:	48 89 c7             	mov    %rax,%rdi
  403032:	e8 d9 f4 ff ff       	callq  402510 <_ZNSsC1ERKSs@plt>
  403037:	48 8d 95 10 ff ff ff 	lea    -0xf0(%rbp),%rdx
  40303e:	48 8d 45 80          	lea    -0x80(%rbp),%rax
  403042:	48 89 d6             	mov    %rdx,%rsi
  403045:	48 89 c7             	mov    %rax,%rdi
  403048:	e8 17 3f 00 00       	callq  406f64 <_ZN7Lexicon3addESs>
  40304d:	48 8d 85 10 ff ff ff 	lea    -0xf0(%rbp),%rax
  403054:	48 89 c7             	mov    %rax,%rdi
  403057:	e8 44 f5 ff ff       	callq  4025a0 <_ZNSsD1Ev@plt>
  40305c:	48 8d 85 e0 fe ff ff 	lea    -0x120(%rbp),%rax
  403063:	48 89 c7             	mov    %rax,%rdi
  403066:	e8 35 f5 ff ff       	callq  4025a0 <_ZNSsD1Ev@plt>
  40306b:	83 85 c4 fe ff ff 01 	addl   $0x1,-0x13c(%rbp)
  403072:	83 bd c4 fe ff ff 19 	cmpl   $0x19,-0x13c(%rbp)
  403079:	0f 8e 23 fe ff ff    	jle    402ea2 <_Z9getLadderSsSs+0x211>
  40307f:	83 85 c0 fe ff ff 01 	addl   $0x1,-0x140(%rbp)
  403086:	8b 85 c0 fe ff ff    	mov    -0x140(%rbp),%eax
  40308c:	48 63 d8             	movslq %eax,%rbx
  40308f:	48 8d 85 d0 fe ff ff 	lea    -0x130(%rbp),%rax
  403096:	48 89 c7             	mov    %rax,%rdi
  403099:	e8 02 f4 ff ff       	callq  4024a0 <_ZNKSs4sizeEv@plt>
  40309e:	48 39 c3             	cmp    %rax,%rbx
  4030a1:	0f 92 c0             	setb   %al
  4030a4:	84 c0                	test   %al,%al
  4030a6:	0f 85 b1 fd ff ff    	jne    402e5d <_Z9getLadderSsSs+0x1cc>
  4030ac:	48 8d 85 30 ff ff ff 	lea    -0xd0(%rbp),%rax
  4030b3:	48 89 c7             	mov    %rax,%rdi
  4030b6:	e8 6b 0b 00 00       	callq  403c26 <_ZNSt5dequeIPSt6vectorISsSaISsEESaIS3_EE9pop_frontEv>
  4030bb:	48 8b 9d 28 ff ff ff 	mov    -0xd8(%rbp),%rbx
  4030c2:	48 85 db             	test   %rbx,%rbx
  4030c5:	74 10                	je     4030d7 <_Z9getLadderSsSs+0x446>
  4030c7:	48 89 df             	mov    %rbx,%rdi
  4030ca:	e8 7b 04 00 00       	callq  40354a <_ZNSt6vectorISsSaISsEED1Ev>
  4030cf:	48 89 df             	mov    %rbx,%rdi
  4030d2:	e8 89 f3 ff ff       	callq  402460 <_ZdlPv@plt>
  4030d7:	48 8d 85 d0 fe ff ff 	lea    -0x130(%rbp),%rax
  4030de:	48 89 c7             	mov    %rax,%rdi
  4030e1:	e8 ba f4 ff ff       	callq  4025a0 <_ZNSsD1Ev@plt>
  4030e6:	48 8d 85 30 ff ff ff 	lea    -0xd0(%rbp),%rax
  4030ed:	48 89 c7             	mov    %rax,%rdi
  4030f0:	e8 43 07 00 00       	callq  403838 <_ZNKSt5dequeIPSt6vectorISsSaISsEESaIS3_EE5emptyEv>
  4030f5:	83 f0 01             	xor    $0x1,%eax
  4030f8:	84 c0                	test   %al,%al
  4030fa:	0f 85 86 fc ff ff    	jne    402d86 <_Z9getLadderSsSs+0xf5>
  403100:	90                   	nop
  403101:	48 8d 45 80          	lea    -0x80(%rbp),%rax
  403105:	48 89 c7             	mov    %rax,%rdi
  403108:	e8 b5 30 00 00       	callq  4061c2 <_ZN7LexiconD1Ev>
  40310d:	48 8d 85 30 ff ff ff 	lea    -0xd0(%rbp),%rax
  403114:	48 89 c7             	mov    %rax,%rdi
  403117:	e8 6c 05 00 00       	callq  403688 <_ZNSt5dequeIPSt6vectorISsSaISsEESaIS3_EED1Ev>
  40311c:	e9 04 01 00 00       	jmpq   403225 <_Z9getLadderSsSs+0x594>
  403121:	49 89 c4             	mov    %rax,%r12
  403124:	48 89 df             	mov    %rbx,%rdi
  403127:	e8 34 f3 ff ff       	callq  402460 <_ZdlPv@plt>
  40312c:	4c 89 e3             	mov    %r12,%rbx
  40312f:	eb 03                	jmp    403134 <_Z9getLadderSsSs+0x4a3>
  403131:	48 89 c3             	mov    %rax,%rbx
  403134:	48 8d 45 80          	lea    -0x80(%rbp),%rax
  403138:	48 89 c7             	mov    %rax,%rdi
  40313b:	e8 ea 05 00 00       	callq  40372a <_ZNSaISsED1Ev>
  403140:	e9 c6 00 00 00       	jmpq   40320b <_Z9getLadderSsSs+0x57a>
  403145:	48 89 c3             	mov    %rax,%rbx
  403148:	48 8d 85 20 ff ff ff 	lea    -0xe0(%rbp),%rax
  40314f:	48 89 c7             	mov    %rax,%rdi
  403152:	e8 49 f4 ff ff       	callq  4025a0 <_ZNSsD1Ev@plt>
  403157:	e9 9e 00 00 00       	jmpq   4031fa <_Z9getLadderSsSs+0x569>
  40315c:	49 89 c5             	mov    %rax,%r13
  40315f:	45 84 e4             	test   %r12b,%r12b
  403162:	74 0f                	je     403173 <_Z9getLadderSsSs+0x4e2>
  403164:	48 8d 85 00 ff ff ff 	lea    -0x100(%rbp),%rax
  40316b:	48 89 c7             	mov    %rax,%rdi
  40316e:	e8 2d f4 ff ff       	callq  4025a0 <_ZNSsD1Ev@plt>
  403173:	4d 89 ec             	mov    %r13,%r12
  403176:	eb 03                	jmp    40317b <_Z9getLadderSsSs+0x4ea>
  403178:	49 89 c4             	mov    %rax,%r12
  40317b:	84 db                	test   %bl,%bl
  40317d:	74 12                	je     403191 <_Z9getLadderSsSs+0x500>
  40317f:	90                   	nop
  403180:	48 8d 85 f0 fe ff ff 	lea    -0x110(%rbp),%rax
  403187:	48 89 c7             	mov    %rax,%rdi
  40318a:	e8 11 f4 ff ff       	callq  4025a0 <_ZNSsD1Ev@plt>
  40318f:	eb 01                	jmp    403192 <_Z9getLadderSsSs+0x501>
  403191:	90                   	nop
  403192:	4c 89 e3             	mov    %r12,%rbx
  403195:	eb 27                	jmp    4031be <_Z9getLadderSsSs+0x52d>
  403197:	49 89 c4             	mov    %rax,%r12
  40319a:	48 89 df             	mov    %rbx,%rdi
  40319d:	e8 be f2 ff ff       	callq  402460 <_ZdlPv@plt>
  4031a2:	4c 89 e3             	mov    %r12,%rbx
  4031a5:	eb 17                	jmp    4031be <_Z9getLadderSsSs+0x52d>
  4031a7:	48 89 c3             	mov    %rax,%rbx
  4031aa:	48 8d 85 10 ff ff ff 	lea    -0xf0(%rbp),%rax
  4031b1:	48 89 c7             	mov    %rax,%rdi
  4031b4:	e8 e7 f3 ff ff       	callq  4025a0 <_ZNSsD1Ev@plt>
  4031b9:	eb 03                	jmp    4031be <_Z9getLadderSsSs+0x52d>
  4031bb:	48 89 c3             	mov    %rax,%rbx
  4031be:	48 8d 85 e0 fe ff ff 	lea    -0x120(%rbp),%rax
  4031c5:	48 89 c7             	mov    %rax,%rdi
  4031c8:	e8 d3 f3 ff ff       	callq  4025a0 <_ZNSsD1Ev@plt>
  4031cd:	eb 03                	jmp    4031d2 <_Z9getLadderSsSs+0x541>
  4031cf:	48 89 c3             	mov    %rax,%rbx
  4031d2:	48 8d 85 d0 fe ff ff 	lea    -0x130(%rbp),%rax
  4031d9:	48 89 c7             	mov    %rax,%rdi
  4031dc:	e8 bf f3 ff ff       	callq  4025a0 <_ZNSsD1Ev@plt>
  4031e1:	eb 03                	jmp    4031e6 <_Z9getLadderSsSs+0x555>
  4031e3:	48 89 c3             	mov    %rax,%rbx
  4031e6:	48 8b 85 b8 fe ff ff 	mov    -0x148(%rbp),%rax
  4031ed:	48 89 c7             	mov    %rax,%rdi
  4031f0:	e8 55 03 00 00       	callq  40354a <_ZNSt6vectorISsSaISsEED1Ev>
  4031f5:	eb 03                	jmp    4031fa <_Z9getLadderSsSs+0x569>
  4031f7:	48 89 c3             	mov    %rax,%rbx
  4031fa:	48 8d 45 80          	lea    -0x80(%rbp),%rax
  4031fe:	48 89 c7             	mov    %rax,%rdi
  403201:	e8 bc 2f 00 00       	callq  4061c2 <_ZN7LexiconD1Ev>
  403206:	eb 03                	jmp    40320b <_Z9getLadderSsSs+0x57a>
  403208:	48 89 c3             	mov    %rax,%rbx
  40320b:	48 8d 85 30 ff ff ff 	lea    -0xd0(%rbp),%rax
  403212:	48 89 c7             	mov    %rax,%rdi
  403215:	e8 6e 04 00 00       	callq  403688 <_ZNSt5dequeIPSt6vectorISsSaISsEESaIS3_EED1Ev>
  40321a:	48 89 d8             	mov    %rbx,%rax
  40321d:	48 89 c7             	mov    %rax,%rdi
  403220:	e8 ab f6 ff ff       	callq  4028d0 <_Unwind_Resume@plt>
  403225:	48 8b 85 b8 fe ff ff 	mov    -0x148(%rbp),%rax
  40322c:	48 81 c4 48 01 00 00 	add    $0x148,%rsp
  403233:	5b                   	pop    %rbx
  403234:	41 5c                	pop    %r12
  403236:	41 5d                	pop    %r13
  403238:	5d                   	pop    %rbp
  403239:	c3                   	retq   

000000000040323a <_Z11printLadderSt6vectorISsSaISsEE>:
  40323a:	55                   	push   %rbp
  40323b:	48 89 e5             	mov    %rsp,%rbp
  40323e:	53                   	push   %rbx
  40323f:	48 83 ec 28          	sub    $0x28,%rsp
  403243:	48 89 7d d8          	mov    %rdi,-0x28(%rbp)
  403247:	c7 45 ec 00 00 00 00 	movl   $0x0,-0x14(%rbp)
  40324e:	eb 33                	jmp    403283 <_Z11printLadderSt6vectorISsSaISsEE+0x49>
  403250:	8b 45 ec             	mov    -0x14(%rbp),%eax
  403253:	48 63 d0             	movslq %eax,%rdx
  403256:	48 8b 45 d8          	mov    -0x28(%rbp),%rax
  40325a:	48 89 d6             	mov    %rdx,%rsi
  40325d:	48 89 c7             	mov    %rax,%rdi
  403260:	e8 21 0a 00 00       	callq  403c86 <_ZNSt6vectorISsSaISsEEixEm>
  403265:	48 89 c6             	mov    %rax,%rsi
  403268:	bf 00 25 61 00       	mov    $0x612500,%edi
  40326d:	e8 5e f4 ff ff       	callq  4026d0 <_ZStlsIcSt11char_traitsIcESaIcEERSt13basic_ostreamIT_T0_ES7_RKSbIS4_S5_T1_E@plt>
  403272:	be 20 00 00 00       	mov    $0x20,%esi
  403277:	48 89 c7             	mov    %rax,%rdi
  40327a:	e8 d1 f2 ff ff       	callq  402550 <_ZStlsISt11char_traitsIcEERSt13basic_ostreamIcT_ES5_c@plt>
  40327f:	83 45 ec 01          	addl   $0x1,-0x14(%rbp)
  403283:	8b 45 ec             	mov    -0x14(%rbp),%eax
  403286:	48 63 d8             	movslq %eax,%rbx
  403289:	48 8b 45 d8          	mov    -0x28(%rbp),%rax
  40328d:	48 89 c7             	mov    %rax,%rdi
  403290:	e8 fb 05 00 00       	callq  403890 <_ZNKSt6vectorISsSaISsEE4sizeEv>
  403295:	48 39 c3             	cmp    %rax,%rbx
  403298:	0f 92 c0             	setb   %al
  40329b:	84 c0                	test   %al,%al
  40329d:	75 b1                	jne    403250 <_Z11printLadderSt6vectorISsSaISsEE+0x16>
  40329f:	be 40 28 40 00       	mov    $0x402840,%esi
  4032a4:	bf 00 25 61 00       	mov    $0x612500,%edi
  4032a9:	e8 22 f5 ff ff       	callq  4027d0 <_ZNSolsEPFRSoS_E@plt>
  4032ae:	48 83 c4 28          	add    $0x28,%rsp
  4032b2:	5b                   	pop    %rbx
  4032b3:	5d                   	pop    %rbp
  4032b4:	c3                   	retq   

00000000004032b5 <_Z11printLadderPSt6vectorISsSaISsEE>:
  4032b5:	55                   	push   %rbp
  4032b6:	48 89 e5             	mov    %rsp,%rbp
  4032b9:	53                   	push   %rbx
  4032ba:	48 83 ec 38          	sub    $0x38,%rsp
  4032be:	48 89 7d c8          	mov    %rdi,-0x38(%rbp)
  4032c2:	48 8b 55 c8          	mov    -0x38(%rbp),%rdx
  4032c6:	48 8d 45 d0          	lea    -0x30(%rbp),%rax
  4032ca:	48 89 d6             	mov    %rdx,%rsi
  4032cd:	48 89 c7             	mov    %rax,%rdi
  4032d0:	e8 db 02 00 00       	callq  4035b0 <_ZNSt6vectorISsSaISsEEC1ERKS1_>
  4032d5:	48 8d 45 d0          	lea    -0x30(%rbp),%rax
  4032d9:	48 89 c7             	mov    %rax,%rdi
  4032dc:	e8 59 ff ff ff       	callq  40323a <_Z11printLadderSt6vectorISsSaISsEE>
  4032e1:	48 8d 45 d0          	lea    -0x30(%rbp),%rax
  4032e5:	48 89 c7             	mov    %rax,%rdi
  4032e8:	e8 5d 02 00 00       	callq  40354a <_ZNSt6vectorISsSaISsEED1Ev>
  4032ed:	eb 1a                	jmp    403309 <_Z11printLadderPSt6vectorISsSaISsEE+0x54>
  4032ef:	48 89 c3             	mov    %rax,%rbx
  4032f2:	48 8d 45 d0          	lea    -0x30(%rbp),%rax
  4032f6:	48 89 c7             	mov    %rax,%rdi
  4032f9:	e8 4c 02 00 00       	callq  40354a <_ZNSt6vectorISsSaISsEED1Ev>
  4032fe:	48 89 d8             	mov    %rbx,%rax
  403301:	48 89 c7             	mov    %rax,%rdi
  403304:	e8 c7 f5 ff ff       	callq  4028d0 <_Unwind_Resume@plt>
  403309:	48 83 c4 38          	add    $0x38,%rsp
  40330d:	5b                   	pop    %rbx
  40330e:	5d                   	pop    %rbp
  40330f:	c3                   	retq   

0000000000403310 <_Z9logLadderSt6vectorISsSaISsEE>:
  403310:	55                   	push   %rbp
  403311:	48 89 e5             	mov    %rsp,%rbp
  403314:	53                   	push   %rbx
  403315:	48 83 ec 28          	sub    $0x28,%rsp
  403319:	48 89 7d d8          	mov    %rdi,-0x28(%rbp)
  40331d:	c7 45 ec 00 00 00 00 	movl   $0x0,-0x14(%rbp)
  403324:	eb 3d                	jmp    403363 <_Z9logLadderSt6vectorISsSaISsEE+0x53>
  403326:	8b 45 ec             	mov    -0x14(%rbp),%eax
  403329:	48 63 d0             	movslq %eax,%rdx
  40332c:	48 8b 45 d8          	mov    -0x28(%rbp),%rax
  403330:	48 89 d6             	mov    %rdx,%rsi
  403333:	48 89 c7             	mov    %rax,%rdi
  403336:	e8 4b 09 00 00       	callq  403c86 <_ZNSt6vectorISsSaISsEEixEm>
  40333b:	48 89 c7             	mov    %rax,%rdi
  40333e:	e8 fd f0 ff ff       	callq  402440 <_ZNKSs5c_strEv@plt>
  403343:	48 89 c2             	mov    %rax,%rdx
  403346:	48 8b 05 8b f3 20 00 	mov    0x20f38b(%rip),%rax        # 6126d8 <Log>
  40334d:	be 54 c3 40 00       	mov    $0x40c354,%esi
  403352:	48 89 c7             	mov    %rax,%rdi
  403355:	b8 00 00 00 00       	mov    $0x0,%eax
  40335a:	e8 41 f5 ff ff       	callq  4028a0 <fprintf@plt>
  40335f:	83 45 ec 01          	addl   $0x1,-0x14(%rbp)
  403363:	8b 45 ec             	mov    -0x14(%rbp),%eax
  403366:	48 63 d8             	movslq %eax,%rbx
  403369:	48 8b 45 d8          	mov    -0x28(%rbp),%rax
  40336d:	48 89 c7             	mov    %rax,%rdi
  403370:	e8 1b 05 00 00       	callq  403890 <_ZNKSt6vectorISsSaISsEE4sizeEv>
  403375:	48 39 c3             	cmp    %rax,%rbx
  403378:	0f 92 c0             	setb   %al
  40337b:	84 c0                	test   %al,%al
  40337d:	75 a7                	jne    403326 <_Z9logLadderSt6vectorISsSaISsEE+0x16>
  40337f:	48 8b 05 52 f3 20 00 	mov    0x20f352(%rip),%rax        # 6126d8 <Log>
  403386:	48 89 c6             	mov    %rax,%rsi
  403389:	bf 0a 00 00 00       	mov    $0xa,%edi
  40338e:	e8 1d f2 ff ff       	callq  4025b0 <fputc@plt>
  403393:	48 8b 05 3e f3 20 00 	mov    0x20f33e(%rip),%rax        # 6126d8 <Log>
  40339a:	48 89 c7             	mov    %rax,%rdi
  40339d:	e8 be f5 ff ff       	callq  402960 <fflush@plt>
  4033a2:	48 83 c4 28          	add    $0x28,%rsp
  4033a6:	5b                   	pop    %rbx
  4033a7:	5d                   	pop    %rbp
  4033a8:	c3                   	retq   

00000000004033a9 <_Z41__static_initialization_and_destruction_0ii>:
  4033a9:	55                   	push   %rbp
  4033aa:	48 89 e5             	mov    %rsp,%rbp
  4033ad:	53                   	push   %rbx
  4033ae:	48 83 ec 38          	sub    $0x38,%rsp
  4033b2:	89 7d cc             	mov    %edi,-0x34(%rbp)
  4033b5:	89 75 c8             	mov    %esi,-0x38(%rbp)
  4033b8:	83 7d cc 01          	cmpl   $0x1,-0x34(%rbp)
  4033bc:	0f 85 cc 00 00 00    	jne    40348e <_Z41__static_initialization_and_destruction_0ii+0xe5>
  4033c2:	81 7d c8 ff ff 00 00 	cmpl   $0xffff,-0x38(%rbp)
  4033c9:	0f 85 bf 00 00 00    	jne    40348e <_Z41__static_initialization_and_destruction_0ii+0xe5>
  4033cf:	bf e0 26 61 00       	mov    $0x6126e0,%edi
  4033d4:	e8 d7 f0 ff ff       	callq  4024b0 <_ZNSt8ios_base4InitC1Ev@plt>
  4033d9:	ba 30 23 61 00       	mov    $0x612330,%edx
  4033de:	be e0 26 61 00       	mov    $0x6126e0,%esi
  4033e3:	bf 80 25 40 00       	mov    $0x402580,%edi
  4033e8:	e8 43 f1 ff ff       	callq  402530 <__cxa_atexit@plt>
  4033ed:	48 8d 45 df          	lea    -0x21(%rbp),%rax
  4033f1:	48 89 c7             	mov    %rax,%rdi
  4033f4:	e8 77 f4 ff ff       	callq  402870 <_ZNSaIcEC1Ev@plt>
  4033f9:	48 8d 55 df          	lea    -0x21(%rbp),%rdx
  4033fd:	48 8d 45 e0          	lea    -0x20(%rbp),%rax
  403401:	be 85 c3 40 00       	mov    $0x40c385,%esi
  403406:	48 89 c7             	mov    %rax,%rdi
  403409:	e8 12 f2 ff ff       	callq  402620 <_ZNSsC1EPKcRKSaIcE@plt>
  40340e:	48 8d 45 e0          	lea    -0x20(%rbp),%rax
  403412:	48 89 c6             	mov    %rax,%rsi
  403415:	bf 80 26 61 00       	mov    $0x612680,%edi
  40341a:	e8 d7 2c 00 00       	callq  4060f6 <_ZN7LexiconC1ESs>
  40341f:	48 8d 45 e0          	lea    -0x20(%rbp),%rax
  403423:	48 89 c7             	mov    %rax,%rdi
  403426:	e8 75 f1 ff ff       	callq  4025a0 <_ZNSsD1Ev@plt>
  40342b:	48 8d 45 df          	lea    -0x21(%rbp),%rax
  40342f:	48 89 c7             	mov    %rax,%rdi
  403432:	e8 f9 f2 ff ff       	callq  402730 <_ZNSaIcED1Ev@plt>
  403437:	ba 30 23 61 00       	mov    $0x612330,%edx
  40343c:	be 80 26 61 00       	mov    $0x612680,%esi
  403441:	bf c2 61 40 00       	mov    $0x4061c2,%edi
  403446:	e8 e5 f0 ff ff       	callq  402530 <__cxa_atexit@plt>
  40344b:	be 96 c3 40 00       	mov    $0x40c396,%esi
  403450:	bf 98 c3 40 00       	mov    $0x40c398,%edi
  403455:	e8 76 f0 ff ff       	callq  4024d0 <fopen@plt>
  40345a:	48 89 05 77 f2 20 00 	mov    %rax,0x20f277(%rip)        # 6126d8 <Log>
  403461:	eb 2b                	jmp    40348e <_Z41__static_initialization_and_destruction_0ii+0xe5>
  403463:	48 89 c3             	mov    %rax,%rbx
  403466:	48 8d 45 e0          	lea    -0x20(%rbp),%rax
  40346a:	48 89 c7             	mov    %rax,%rdi
  40346d:	e8 2e f1 ff ff       	callq  4025a0 <_ZNSsD1Ev@plt>
  403472:	eb 03                	jmp    403477 <_Z41__static_initialization_and_destruction_0ii+0xce>
  403474:	48 89 c3             	mov    %rax,%rbx
  403477:	48 8d 45 df          	lea    -0x21(%rbp),%rax
  40347b:	48 89 c7             	mov    %rax,%rdi
  40347e:	e8 ad f2 ff ff       	callq  402730 <_ZNSaIcED1Ev@plt>
  403483:	48 89 d8             	mov    %rbx,%rax
  403486:	48 89 c7             	mov    %rax,%rdi
  403489:	e8 42 f4 ff ff       	callq  4028d0 <_Unwind_Resume@plt>
  40348e:	48 83 c4 38          	add    $0x38,%rsp
  403492:	5b                   	pop    %rbx
  403493:	5d                   	pop    %rbp
  403494:	c3                   	retq   

0000000000403495 <_GLOBAL__sub_I_dict>:
  403495:	55                   	push   %rbp
  403496:	48 89 e5             	mov    %rsp,%rbp
  403499:	be ff ff 00 00       	mov    $0xffff,%esi
  40349e:	bf 01 00 00 00       	mov    $0x1,%edi
  4034a3:	e8 01 ff ff ff       	callq  4033a9 <_Z41__static_initialization_and_destruction_0ii>
  4034a8:	5d                   	pop    %rbp
  4034a9:	c3                   	retq   

00000000004034aa <_ZNSt11char_traitsIcE7compareEPKcS2_m>:
  4034aa:	55                   	push   %rbp
  4034ab:	48 89 e5             	mov    %rsp,%rbp
  4034ae:	48 83 ec 20          	sub    $0x20,%rsp
  4034b2:	48 89 7d f8          	mov    %rdi,-0x8(%rbp)
  4034b6:	48 89 75 f0          	mov    %rsi,-0x10(%rbp)
  4034ba:	48 89 55 e8          	mov    %rdx,-0x18(%rbp)
  4034be:	48 8b 55 e8          	mov    -0x18(%rbp),%rdx
  4034c2:	48 8b 4d f0          	mov    -0x10(%rbp),%rcx
  4034c6:	48 8b 45 f8          	mov    -0x8(%rbp),%rax
  4034ca:	48 89 ce             	mov    %rcx,%rsi
  4034cd:	48 89 c7             	mov    %rax,%rdi
  4034d0:	e8 cb f2 ff ff       	callq  4027a0 <memcmp@plt>
  4034d5:	c9                   	leaveq 
  4034d6:	c3                   	retq   

00000000004034d7 <_ZnwmPv>:
  4034d7:	55                   	push   %rbp
  4034d8:	48 89 e5             	mov    %rsp,%rbp
  4034db:	48 89 7d f8          	mov    %rdi,-0x8(%rbp)
  4034df:	48 89 75 f0          	mov    %rsi,-0x10(%rbp)
  4034e3:	48 8b 45 f0          	mov    -0x10(%rbp),%rax
  4034e7:	5d                   	pop    %rbp
  4034e8:	c3                   	retq   

00000000004034e9 <_ZdlPvS_>:
  4034e9:	55                   	push   %rbp
  4034ea:	48 89 e5             	mov    %rsp,%rbp
  4034ed:	48 89 7d f8          	mov    %rdi,-0x8(%rbp)
  4034f1:	48 89 75 f0          	mov    %rsi,-0x10(%rbp)
  4034f5:	5d                   	pop    %rbp
  4034f6:	c3                   	retq   

00000000004034f7 <_ZSt16__deque_buf_sizem>:
  4034f7:	55                   	push   %rbp
  4034f8:	48 89 e5             	mov    %rsp,%rbp
  4034fb:	48 89 7d f8          	mov    %rdi,-0x8(%rbp)
  4034ff:	48 81 7d f8 ff 01 00 	cmpq   $0x1ff,-0x8(%rbp)
  403506:	00 
  403507:	77 10                	ja     403519 <_ZSt16__deque_buf_sizem+0x22>
  403509:	b8 00 02 00 00       	mov    $0x200,%eax
  40350e:	ba 00 00 00 00       	mov    $0x0,%edx
  403513:	48 f7 75 f8          	divq   -0x8(%rbp)
  403517:	eb 05                	jmp    40351e <_ZSt16__deque_buf_sizem+0x27>
  403519:	b8 01 00 00 00       	mov    $0x1,%eax
  40351e:	5d                   	pop    %rbp
  40351f:	c3                   	retq   

0000000000403520 <_ZSteqIcSt11char_traitsIcESaIcEEbRKSbIT_T0_T1_EPKS3_>:
  403520:	55                   	push   %rbp
  403521:	48 89 e5             	mov    %rsp,%rbp
  403524:	48 83 ec 10          	sub    $0x10,%rsp
  403528:	48 89 7d f8          	mov    %rdi,-0x8(%rbp)
  40352c:	48 89 75 f0          	mov    %rsi,-0x10(%rbp)
  403530:	48 8b 55 f0          	mov    -0x10(%rbp),%rdx
  403534:	48 8b 45 f8          	mov    -0x8(%rbp),%rax
  403538:	48 89 d6             	mov    %rdx,%rsi
  40353b:	48 89 c7             	mov    %rax,%rdi
  40353e:	e8 cd f0 ff ff       	callq  402610 <_ZNKSs7compareEPKc@plt>
  403543:	85 c0                	test   %eax,%eax
  403545:	0f 94 c0             	sete   %al
  403548:	c9                   	leaveq 
  403549:	c3                   	retq   

000000000040354a <_ZNSt6vectorISsSaISsEED1Ev>:
  40354a:	55                   	push   %rbp
  40354b:	48 89 e5             	mov    %rsp,%rbp
  40354e:	53                   	push   %rbx
  40354f:	48 83 ec 18          	sub    $0x18,%rsp
  403553:	48 89 7d e8          	mov    %rdi,-0x18(%rbp)
  403557:	48 8b 45 e8          	mov    -0x18(%rbp),%rax
  40355b:	48 89 c7             	mov    %rax,%rdi
  40355e:	e8 cf 07 00 00       	callq  403d32 <_ZNSt12_Vector_baseISsSaISsEE19_M_get_Tp_allocatorEv>
  403563:	48 89 c2             	mov    %rax,%rdx
  403566:	48 8b 45 e8          	mov    -0x18(%rbp),%rax
  40356a:	48 8b 48 08          	mov    0x8(%rax),%rcx
  40356e:	48 8b 45 e8          	mov    -0x18(%rbp),%rax
  403572:	48 8b 00             	mov    (%rax),%rax
  403575:	48 89 ce             	mov    %rcx,%rsi
  403578:	48 89 c7             	mov    %rax,%rdi
  40357b:	e8 c0 07 00 00       	callq  403d40 <_ZSt8_DestroyIPSsSsEvT_S1_RSaIT0_E>
  403580:	48 8b 45 e8          	mov    -0x18(%rbp),%rax
  403584:	48 89 c7             	mov    %rax,%rdi
  403587:	e8 34 07 00 00       	callq  403cc0 <_ZNSt12_Vector_baseISsSaISsEED1Ev>
  40358c:	eb 1a                	jmp    4035a8 <_ZNSt6vectorISsSaISsEED1Ev+0x5e>
  40358e:	48 89 c3             	mov    %rax,%rbx
  403591:	48 8b 45 e8          	mov    -0x18(%rbp),%rax
  403595:	48 89 c7             	mov    %rax,%rdi
  403598:	e8 23 07 00 00       	callq  403cc0 <_ZNSt12_Vector_baseISsSaISsEED1Ev>
  40359d:	48 89 d8             	mov    %rbx,%rax
  4035a0:	48 89 c7             	mov    %rax,%rdi
  4035a3:	e8 28 f3 ff ff       	callq  4028d0 <_Unwind_Resume@plt>
  4035a8:	48 83 c4 18          	add    $0x18,%rsp
  4035ac:	5b                   	pop    %rbx
  4035ad:	5d                   	pop    %rbp
  4035ae:	c3                   	retq   
  4035af:	90                   	nop

00000000004035b0 <_ZNSt6vectorISsSaISsEEC1ERKS1_>:
  4035b0:	55                   	push   %rbp
  4035b1:	48 89 e5             	mov    %rsp,%rbp
  4035b4:	41 55                	push   %r13
  4035b6:	41 54                	push   %r12
  4035b8:	53                   	push   %rbx
  4035b9:	48 83 ec 18          	sub    $0x18,%rsp
  4035bd:	48 89 7d d8          	mov    %rdi,-0x28(%rbp)
  4035c1:	48 89 75 d0          	mov    %rsi,-0x30(%rbp)
  4035c5:	48 8b 45 d0          	mov    -0x30(%rbp),%rax
  4035c9:	48 89 c7             	mov    %rax,%rdi
  4035cc:	e8 a7 07 00 00       	callq  403d78 <_ZNKSt12_Vector_baseISsSaISsEE19_M_get_Tp_allocatorEv>
  4035d1:	48 89 c7             	mov    %rax,%rdi
  4035d4:	e8 90 07 00 00       	callq  403d69 <_ZN9__gnu_cxx14__alloc_traitsISaISsEE17_S_select_on_copyERKS1_>
  4035d9:	48 89 c3             	mov    %rax,%rbx
  4035dc:	48 8b 45 d0          	mov    -0x30(%rbp),%rax
  4035e0:	48 89 c7             	mov    %rax,%rdi
  4035e3:	e8 a8 02 00 00       	callq  403890 <_ZNKSt6vectorISsSaISsEE4sizeEv>
  4035e8:	48 89 c1             	mov    %rax,%rcx
  4035eb:	48 8b 45 d8          	mov    -0x28(%rbp),%rax
  4035ef:	48 89 da             	mov    %rbx,%rdx
  4035f2:	48 89 ce             	mov    %rcx,%rsi
  4035f5:	48 89 c7             	mov    %rax,%rdi
  4035f8:	e8 89 07 00 00       	callq  403d86 <_ZNSt12_Vector_baseISsSaISsEEC1EmRKS0_>
  4035fd:	48 8b 45 d8          	mov    -0x28(%rbp),%rax
  403601:	48 89 c7             	mov    %rax,%rdi
  403604:	e8 29 07 00 00       	callq  403d32 <_ZNSt12_Vector_baseISsSaISsEE19_M_get_Tp_allocatorEv>
  403609:	49 89 c5             	mov    %rax,%r13
  40360c:	48 8b 45 d8          	mov    -0x28(%rbp),%rax
  403610:	4c 8b 20             	mov    (%rax),%r12
  403613:	48 8b 45 d0          	mov    -0x30(%rbp),%rax
  403617:	48 89 c7             	mov    %rax,%rdi
  40361a:	e8 f5 07 00 00       	callq  403e14 <_ZNKSt6vectorISsSaISsEE3endEv>
  40361f:	48 89 c3             	mov    %rax,%rbx
  403622:	48 8b 45 d0          	mov    -0x30(%rbp),%rax
  403626:	48 89 c7             	mov    %rax,%rdi
  403629:	e8 b6 07 00 00       	callq  403de4 <_ZNKSt6vectorISsSaISsEE5beginEv>
  40362e:	4c 89 e9             	mov    %r13,%rcx
  403631:	4c 89 e2             	mov    %r12,%rdx
  403634:	48 89 de             	mov    %rbx,%rsi
  403637:	48 89 c7             	mov    %rax,%rdi
  40363a:	e8 06 08 00 00       	callq  403e45 <_ZSt22__uninitialized_copy_aIN9__gnu_cxx17__normal_iteratorIPKSsSt6vectorISsSaISsEEEEPSsSsET0_T_SA_S9_RSaIT1_E>
  40363f:	48 8b 55 d8          	mov    -0x28(%rbp),%rdx
  403643:	48 89 42 08          	mov    %rax,0x8(%rdx)
  403647:	eb 1a                	jmp    403663 <_ZNSt6vectorISsSaISsEEC1ERKS1_+0xb3>
  403649:	48 89 c3             	mov    %rax,%rbx
  40364c:	48 8b 45 d8          	mov    -0x28(%rbp),%rax
  403650:	48 89 c7             	mov    %rax,%rdi
  403653:	e8 68 06 00 00       	callq  403cc0 <_ZNSt12_Vector_baseISsSaISsEED1Ev>
  403658:	48 89 d8             	mov    %rbx,%rax
  40365b:	48 89 c7             	mov    %rax,%rdi
  40365e:	e8 6d f2 ff ff       	callq  4028d0 <_Unwind_Resume@plt>
  403663:	48 83 c4 18          	add    $0x18,%rsp
  403667:	5b                   	pop    %rbx
  403668:	41 5c                	pop    %r12
  40366a:	41 5d                	pop    %r13
  40366c:	5d                   	pop    %rbp
  40366d:	c3                   	retq   

000000000040366e <_ZNSt5dequeIPSt6vectorISsSaISsEESaIS3_EEC1Ev>:
  40366e:	55                   	push   %rbp
  40366f:	48 89 e5             	mov    %rsp,%rbp
  403672:	48 83 ec 10          	sub    $0x10,%rsp
  403676:	48 89 7d f8          	mov    %rdi,-0x8(%rbp)
  40367a:	48 8b 45 f8          	mov    -0x8(%rbp),%rax
  40367e:	48 89 c7             	mov    %rax,%rdi
  403681:	e8 0a 08 00 00       	callq  403e90 <_ZNSt11_Deque_baseIPSt6vectorISsSaISsEESaIS3_EEC1Ev>
  403686:	c9                   	leaveq 
  403687:	c3                   	retq   

0000000000403688 <_ZNSt5dequeIPSt6vectorISsSaISsEESaIS3_EED1Ev>:
  403688:	55                   	push   %rbp
  403689:	48 89 e5             	mov    %rsp,%rbp
  40368c:	53                   	push   %rbx
  40368d:	48 83 ec 58          	sub    $0x58,%rsp
  403691:	48 89 7d a8          	mov    %rdi,-0x58(%rbp)
  403695:	48 8b 45 a8          	mov    -0x58(%rbp),%rax
  403699:	48 89 c7             	mov    %rax,%rdi
  40369c:	e8 23 09 00 00       	callq  403fc4 <_ZNSt11_Deque_baseIPSt6vectorISsSaISsEESaIS3_EE19_M_get_Tp_allocatorEv>
  4036a1:	48 89 c3             	mov    %rax,%rbx
  4036a4:	48 8d 45 d0          	lea    -0x30(%rbp),%rax
  4036a8:	48 8b 55 a8          	mov    -0x58(%rbp),%rdx
  4036ac:	48 89 d6             	mov    %rdx,%rsi
  4036af:	48 89 c7             	mov    %rax,%rdi
  4036b2:	e8 df 08 00 00       	callq  403f96 <_ZNSt5dequeIPSt6vectorISsSaISsEESaIS3_EE3endEv>
  4036b7:	48 8d 45 b0          	lea    -0x50(%rbp),%rax
  4036bb:	48 8b 55 a8          	mov    -0x58(%rbp),%rdx
  4036bf:	48 89 d6             	mov    %rdx,%rsi
  4036c2:	48 89 c7             	mov    %rax,%rdi
  4036c5:	e8 9e 08 00 00       	callq  403f68 <_ZNSt5dequeIPSt6vectorISsSaISsEESaIS3_EE5beginEv>
  4036ca:	48 8d 55 d0          	lea    -0x30(%rbp),%rdx
  4036ce:	48 8d 75 b0          	lea    -0x50(%rbp),%rsi
  4036d2:	48 8b 45 a8          	mov    -0x58(%rbp),%rax
  4036d6:	48 89 d9             	mov    %rbx,%rcx
  4036d9:	48 89 c7             	mov    %rax,%rdi
  4036dc:	e8 3d 09 00 00       	callq  40401e <_ZNSt5dequeIPSt6vectorISsSaISsEESaIS3_EE15_M_destroy_dataESt15_Deque_iteratorIS3_RS3_PS3_ES9_RKS4_>
  4036e1:	48 8b 45 a8          	mov    -0x58(%rbp),%rax
  4036e5:	48 89 c7             	mov    %rax,%rdi
  4036e8:	e8 f1 07 00 00       	callq  403ede <_ZNSt11_Deque_baseIPSt6vectorISsSaISsEESaIS3_EED1Ev>
  4036ed:	eb 1a                	jmp    403709 <_ZNSt5dequeIPSt6vectorISsSaISsEESaIS3_EED1Ev+0x81>
  4036ef:	48 89 c3             	mov    %rax,%rbx
  4036f2:	48 8b 45 a8          	mov    -0x58(%rbp),%rax
  4036f6:	48 89 c7             	mov    %rax,%rdi
  4036f9:	e8 e0 07 00 00       	callq  403ede <_ZNSt11_Deque_baseIPSt6vectorISsSaISsEESaIS3_EED1Ev>
  4036fe:	48 89 d8             	mov    %rbx,%rax
  403701:	48 89 c7             	mov    %rax,%rdi
  403704:	e8 c7 f1 ff ff       	callq  4028d0 <_Unwind_Resume@plt>
  403709:	48 83 c4 58          	add    $0x58,%rsp
  40370d:	5b                   	pop    %rbx
  40370e:	5d                   	pop    %rbp
  40370f:	c3                   	retq   

0000000000403710 <_ZNSaISsEC1Ev>:
  403710:	55                   	push   %rbp
  403711:	48 89 e5             	mov    %rsp,%rbp
  403714:	48 83 ec 10          	sub    $0x10,%rsp
  403718:	48 89 7d f8          	mov    %rdi,-0x8(%rbp)
  40371c:	48 8b 45 f8          	mov    -0x8(%rbp),%rax
  403720:	48 89 c7             	mov    %rax,%rdi
  403723:	e8 0c 09 00 00       	callq  404034 <_ZN9__gnu_cxx13new_allocatorISsEC1Ev>
  403728:	c9                   	leaveq 
  403729:	c3                   	retq   

000000000040372a <_ZNSaISsED1Ev>:
  40372a:	55                   	push   %rbp
  40372b:	48 89 e5             	mov    %rsp,%rbp
  40372e:	48 83 ec 10          	sub    $0x10,%rsp
  403732:	48 89 7d f8          	mov    %rdi,-0x8(%rbp)
  403736:	48 8b 45 f8          	mov    -0x8(%rbp),%rax
  40373a:	48 89 c7             	mov    %rax,%rdi
  40373d:	e8 fc 08 00 00       	callq  40403e <_ZN9__gnu_cxx13new_allocatorISsED1Ev>
  403742:	c9                   	leaveq 
  403743:	c3                   	retq   

0000000000403744 <_ZNSt6vectorISsSaISsEEC1EmRKSsRKS0_>:
  403744:	55                   	push   %rbp
  403745:	48 89 e5             	mov    %rsp,%rbp
  403748:	53                   	push   %rbx
  403749:	48 83 ec 28          	sub    $0x28,%rsp
  40374d:	48 89 7d e8          	mov    %rdi,-0x18(%rbp)
  403751:	48 89 75 e0          	mov    %rsi,-0x20(%rbp)
  403755:	48 89 55 d8          	mov    %rdx,-0x28(%rbp)
  403759:	48 89 4d d0          	mov    %rcx,-0x30(%rbp)
  40375d:	48 8b 45 e8          	mov    -0x18(%rbp),%rax
  403761:	48 8b 55 d0          	mov    -0x30(%rbp),%rdx
  403765:	48 8b 4d e0          	mov    -0x20(%rbp),%rcx
  403769:	48 89 ce             	mov    %rcx,%rsi
  40376c:	48 89 c7             	mov    %rax,%rdi
  40376f:	e8 12 06 00 00       	callq  403d86 <_ZNSt12_Vector_baseISsSaISsEEC1EmRKS0_>
  403774:	48 8b 55 d8          	mov    -0x28(%rbp),%rdx
  403778:	48 8b 4d e0          	mov    -0x20(%rbp),%rcx
  40377c:	48 8b 45 e8          	mov    -0x18(%rbp),%rax
  403780:	48 89 ce             	mov    %rcx,%rsi
  403783:	48 89 c7             	mov    %rax,%rdi
  403786:	e8 bd 08 00 00       	callq  404048 <_ZNSt6vectorISsSaISsEE18_M_fill_initializeEmRKSs>
  40378b:	eb 1a                	jmp    4037a7 <_ZNSt6vectorISsSaISsEEC1EmRKSsRKS0_+0x63>
  40378d:	48 89 c3             	mov    %rax,%rbx
  403790:	48 8b 45 e8          	mov    -0x18(%rbp),%rax
  403794:	48 89 c7             	mov    %rax,%rdi
  403797:	e8 24 05 00 00       	callq  403cc0 <_ZNSt12_Vector_baseISsSaISsEED1Ev>
  40379c:	48 89 d8             	mov    %rbx,%rax
  40379f:	48 89 c7             	mov    %rax,%rdi
  4037a2:	e8 29 f1 ff ff       	callq  4028d0 <_Unwind_Resume@plt>
  4037a7:	48 83 c4 28          	add    $0x28,%rsp
  4037ab:	5b                   	pop    %rbx
  4037ac:	5d                   	pop    %rbp
  4037ad:	c3                   	retq   

00000000004037ae <_ZNSt6vectorISsSaISsEEC1Ev>:
  4037ae:	55                   	push   %rbp
  4037af:	48 89 e5             	mov    %rsp,%rbp
  4037b2:	48 83 ec 10          	sub    $0x10,%rsp
  4037b6:	48 89 7d f8          	mov    %rdi,-0x8(%rbp)
  4037ba:	48 8b 45 f8          	mov    -0x8(%rbp),%rax
  4037be:	48 89 c7             	mov    %rax,%rdi
  4037c1:	e8 ce 08 00 00       	callq  404094 <_ZNSt12_Vector_baseISsSaISsEEC1Ev>
  4037c6:	c9                   	leaveq 
  4037c7:	c3                   	retq   

00000000004037c8 <_ZNSt5dequeIPSt6vectorISsSaISsEESaIS3_EE9push_backERKS3_>:
  4037c8:	55                   	push   %rbp
  4037c9:	48 89 e5             	mov    %rsp,%rbp
  4037cc:	48 83 ec 10          	sub    $0x10,%rsp
  4037d0:	48 89 7d f8          	mov    %rdi,-0x8(%rbp)
  4037d4:	48 89 75 f0          	mov    %rsi,-0x10(%rbp)
  4037d8:	48 8b 45 f8          	mov    -0x8(%rbp),%rax
  4037dc:	48 8b 50 30          	mov    0x30(%rax),%rdx
  4037e0:	48 8b 45 f8          	mov    -0x8(%rbp),%rax
  4037e4:	48 8b 40 40          	mov    0x40(%rax),%rax
  4037e8:	48 83 e8 08          	sub    $0x8,%rax
  4037ec:	48 39 c2             	cmp    %rax,%rdx
  4037ef:	74 31                	je     403822 <_ZNSt5dequeIPSt6vectorISsSaISsEESaIS3_EE9push_backERKS3_+0x5a>
  4037f1:	48 8b 45 f8          	mov    -0x8(%rbp),%rax
  4037f5:	48 8b 48 30          	mov    0x30(%rax),%rcx
  4037f9:	48 8b 45 f8          	mov    -0x8(%rbp),%rax
  4037fd:	48 8b 55 f0          	mov    -0x10(%rbp),%rdx
  403801:	48 89 ce             	mov    %rcx,%rsi
  403804:	48 89 c7             	mov    %rax,%rdi
  403807:	e8 a2 08 00 00       	callq  4040ae <_ZN9__gnu_cxx13new_allocatorIPSt6vectorISsSaISsEEE9constructEPS4_RKS4_>
  40380c:	48 8b 45 f8          	mov    -0x8(%rbp),%rax
  403810:	48 8b 40 30          	mov    0x30(%rax),%rax
  403814:	48 8d 50 08          	lea    0x8(%rax),%rdx
  403818:	48 8b 45 f8          	mov    -0x8(%rbp),%rax
  40381c:	48 89 50 30          	mov    %rdx,0x30(%rax)
  403820:	eb 13                	jmp    403835 <_ZNSt5dequeIPSt6vectorISsSaISsEESaIS3_EE9push_backERKS3_+0x6d>
  403822:	48 8b 55 f0          	mov    -0x10(%rbp),%rdx
  403826:	48 8b 45 f8          	mov    -0x8(%rbp),%rax
  40382a:	48 89 d6             	mov    %rdx,%rsi
  40382d:	48 89 c7             	mov    %rax,%rdi
  403830:	e8 af 08 00 00       	callq  4040e4 <_ZNSt5dequeIPSt6vectorISsSaISsEESaIS3_EE16_M_push_back_auxERKS3_>
  403835:	c9                   	leaveq 
  403836:	c3                   	retq   
  403837:	90                   	nop

0000000000403838 <_ZNKSt5dequeIPSt6vectorISsSaISsEESaIS3_EE5emptyEv>:
  403838:	55                   	push   %rbp
  403839:	48 89 e5             	mov    %rsp,%rbp
  40383c:	48 83 ec 10          	sub    $0x10,%rsp
  403840:	48 89 7d f8          	mov    %rdi,-0x8(%rbp)
  403844:	48 8b 45 f8          	mov    -0x8(%rbp),%rax
  403848:	48 8d 50 10          	lea    0x10(%rax),%rdx
  40384c:	48 8b 45 f8          	mov    -0x8(%rbp),%rax
  403850:	48 83 c0 30          	add    $0x30,%rax
  403854:	48 89 d6             	mov    %rdx,%rsi
  403857:	48 89 c7             	mov    %rax,%rdi
  40385a:	e8 53 09 00 00       	callq  4041b2 <_ZSteqIPSt6vectorISsSaISsEERS3_PS3_EbRKSt15_Deque_iteratorIT_T0_T1_ESC_>
  40385f:	c9                   	leaveq 
  403860:	c3                   	retq   
  403861:	90                   	nop

0000000000403862 <_ZNSt5dequeIPSt6vectorISsSaISsEESaIS3_EE5frontEv>:
  403862:	55                   	push   %rbp
  403863:	48 89 e5             	mov    %rsp,%rbp
  403866:	48 83 ec 30          	sub    $0x30,%rsp
  40386a:	48 89 7d d8          	mov    %rdi,-0x28(%rbp)
  40386e:	48 8d 45 e0          	lea    -0x20(%rbp),%rax
  403872:	48 8b 55 d8          	mov    -0x28(%rbp),%rdx
  403876:	48 89 d6             	mov    %rdx,%rsi
  403879:	48 89 c7             	mov    %rax,%rdi
  40387c:	e8 e7 06 00 00       	callq  403f68 <_ZNSt5dequeIPSt6vectorISsSaISsEESaIS3_EE5beginEv>
  403881:	48 8d 45 e0          	lea    -0x20(%rbp),%rax
  403885:	48 89 c7             	mov    %rax,%rdi
  403888:	e8 47 09 00 00       	callq  4041d4 <_ZNKSt15_Deque_iteratorIPSt6vectorISsSaISsEERS3_PS3_EdeEv>
  40388d:	c9                   	leaveq 
  40388e:	c3                   	retq   
  40388f:	90                   	nop

0000000000403890 <_ZNKSt6vectorISsSaISsEE4sizeEv>:
  403890:	55                   	push   %rbp
  403891:	48 89 e5             	mov    %rsp,%rbp
  403894:	48 89 7d f8          	mov    %rdi,-0x8(%rbp)
  403898:	48 8b 45 f8          	mov    -0x8(%rbp),%rax
  40389c:	48 8b 40 08          	mov    0x8(%rax),%rax
  4038a0:	48 89 c2             	mov    %rax,%rdx
  4038a3:	48 8b 45 f8          	mov    -0x8(%rbp),%rax
  4038a7:	48 8b 00             	mov    (%rax),%rax
  4038aa:	48 29 c2             	sub    %rax,%rdx
  4038ad:	48 89 d0             	mov    %rdx,%rax
  4038b0:	48 c1 f8 03          	sar    $0x3,%rax
  4038b4:	5d                   	pop    %rbp
  4038b5:	c3                   	retq   

00000000004038b6 <_ZNSt6vectorISsSaISsEE2atEm>:
  4038b6:	55                   	push   %rbp
  4038b7:	48 89 e5             	mov    %rsp,%rbp
  4038ba:	48 83 ec 10          	sub    $0x10,%rsp
  4038be:	48 89 7d f8          	mov    %rdi,-0x8(%rbp)
  4038c2:	48 89 75 f0          	mov    %rsi,-0x10(%rbp)
  4038c6:	48 8b 55 f0          	mov    -0x10(%rbp),%rdx
  4038ca:	48 8b 45 f8          	mov    -0x8(%rbp),%rax
  4038ce:	48 89 d6             	mov    %rdx,%rsi
  4038d1:	48 89 c7             	mov    %rax,%rdi
  4038d4:	e8 0d 09 00 00       	callq  4041e6 <_ZNKSt6vectorISsSaISsEE14_M_range_checkEm>
  4038d9:	48 8b 55 f0          	mov    -0x10(%rbp),%rdx
  4038dd:	48 8b 45 f8          	mov    -0x8(%rbp),%rax
  4038e1:	48 89 d6             	mov    %rdx,%rsi
  4038e4:	48 89 c7             	mov    %rax,%rdi
  4038e7:	e8 9a 03 00 00       	callq  403c86 <_ZNSt6vectorISsSaISsEEixEm>
  4038ec:	c9                   	leaveq 
  4038ed:	c3                   	retq   

00000000004038ee <_ZSteqIcEN9__gnu_cxx11__enable_ifIXsrSt9__is_charIT_E7__valueEbE6__typeERKSbIS3_St11char_traitsIS3_ESaIS3_EESC_>:
  4038ee:	55                   	push   %rbp
  4038ef:	48 89 e5             	mov    %rsp,%rbp
  4038f2:	41 54                	push   %r12
  4038f4:	53                   	push   %rbx
  4038f5:	48 83 ec 10          	sub    $0x10,%rsp
  4038f9:	48 89 7d e8          	mov    %rdi,-0x18(%rbp)
  4038fd:	48 89 75 e0          	mov    %rsi,-0x20(%rbp)
  403901:	48 8b 45 e8          	mov    -0x18(%rbp),%rax
  403905:	48 89 c7             	mov    %rax,%rdi
  403908:	e8 93 eb ff ff       	callq  4024a0 <_ZNKSs4sizeEv@plt>
  40390d:	48 89 c3             	mov    %rax,%rbx
  403910:	48 8b 45 e0          	mov    -0x20(%rbp),%rax
  403914:	48 89 c7             	mov    %rax,%rdi
  403917:	e8 84 eb ff ff       	callq  4024a0 <_ZNKSs4sizeEv@plt>
  40391c:	48 39 c3             	cmp    %rax,%rbx
  40391f:	75 43                	jne    403964 <_ZSteqIcEN9__gnu_cxx11__enable_ifIXsrSt9__is_charIT_E7__valueEbE6__typeERKSbIS3_St11char_traitsIS3_ESaIS3_EESC_+0x76>
  403921:	48 8b 45 e8          	mov    -0x18(%rbp),%rax
  403925:	48 89 c7             	mov    %rax,%rdi
  403928:	e8 73 eb ff ff       	callq  4024a0 <_ZNKSs4sizeEv@plt>
  40392d:	49 89 c4             	mov    %rax,%r12
  403930:	48 8b 45 e0          	mov    -0x20(%rbp),%rax
  403934:	48 89 c7             	mov    %rax,%rdi
  403937:	e8 84 ed ff ff       	callq  4026c0 <_ZNKSs4dataEv@plt>
  40393c:	48 89 c3             	mov    %rax,%rbx
  40393f:	48 8b 45 e8          	mov    -0x18(%rbp),%rax
  403943:	48 89 c7             	mov    %rax,%rdi
  403946:	e8 75 ed ff ff       	callq  4026c0 <_ZNKSs4dataEv@plt>
  40394b:	4c 89 e2             	mov    %r12,%rdx
  40394e:	48 89 de             	mov    %rbx,%rsi
  403951:	48 89 c7             	mov    %rax,%rdi
  403954:	e8 51 fb ff ff       	callq  4034aa <_ZNSt11char_traitsIcE7compareEPKcS2_m>
  403959:	85 c0                	test   %eax,%eax
  40395b:	75 07                	jne    403964 <_ZSteqIcEN9__gnu_cxx11__enable_ifIXsrSt9__is_charIT_E7__valueEbE6__typeERKSbIS3_St11char_traitsIS3_ESaIS3_EESC_+0x76>
  40395d:	b8 01 00 00 00       	mov    $0x1,%eax
  403962:	eb 05                	jmp    403969 <_ZSteqIcEN9__gnu_cxx11__enable_ifIXsrSt9__is_charIT_E7__valueEbE6__typeERKSbIS3_St11char_traitsIS3_ESaIS3_EESC_+0x7b>
  403964:	b8 00 00 00 00       	mov    $0x0,%eax
  403969:	48 83 c4 10          	add    $0x10,%rsp
  40396d:	5b                   	pop    %rbx
  40396e:	41 5c                	pop    %r12
  403970:	5d                   	pop    %rbp
  403971:	c3                   	retq   

0000000000403972 <_ZNSt6vectorISsSaISsEEaSERKS1_>:
  403972:	55                   	push   %rbp
  403973:	48 89 e5             	mov    %rsp,%rbp
  403976:	41 56                	push   %r14
  403978:	41 55                	push   %r13
  40397a:	41 54                	push   %r12
  40397c:	53                   	push   %rbx
  40397d:	48 83 ec 20          	sub    $0x20,%rsp
  403981:	48 89 7d c8          	mov    %rdi,-0x38(%rbp)
  403985:	48 89 75 c0          	mov    %rsi,-0x40(%rbp)
  403989:	48 8b 45 c0          	mov    -0x40(%rbp),%rax
  40398d:	48 3b 45 c8          	cmp    -0x38(%rbp),%rax
  403991:	0f 84 03 02 00 00    	je     403b9a <_ZNSt6vectorISsSaISsEEaSERKS1_+0x228>
  403997:	48 8b 45 c0          	mov    -0x40(%rbp),%rax
  40399b:	48 89 c7             	mov    %rax,%rdi
  40399e:	e8 ed fe ff ff       	callq  403890 <_ZNKSt6vectorISsSaISsEE4sizeEv>
  4039a3:	48 89 45 d0          	mov    %rax,-0x30(%rbp)
  4039a7:	48 8b 45 c8          	mov    -0x38(%rbp),%rax
  4039ab:	48 89 c7             	mov    %rax,%rdi
  4039ae:	e8 67 08 00 00       	callq  40421a <_ZNKSt6vectorISsSaISsEE8capacityEv>
  4039b3:	48 3b 45 d0          	cmp    -0x30(%rbp),%rax
  4039b7:	0f 92 c0             	setb   %al
  4039ba:	84 c0                	test   %al,%al
  4039bc:	0f 84 bd 00 00 00    	je     403a7f <_ZNSt6vectorISsSaISsEEaSERKS1_+0x10d>
  4039c2:	48 8b 45 c0          	mov    -0x40(%rbp),%rax
  4039c6:	48 89 c7             	mov    %rax,%rdi
  4039c9:	e8 46 04 00 00       	callq  403e14 <_ZNKSt6vectorISsSaISsEE3endEv>
  4039ce:	48 89 c3             	mov    %rax,%rbx
  4039d1:	48 8b 45 c0          	mov    -0x40(%rbp),%rax
  4039d5:	48 89 c7             	mov    %rax,%rdi
  4039d8:	e8 07 04 00 00       	callq  403de4 <_ZNKSt6vectorISsSaISsEE5beginEv>
  4039dd:	48 89 c2             	mov    %rax,%rdx
  4039e0:	48 8b 75 d0          	mov    -0x30(%rbp),%rsi
  4039e4:	48 8b 45 c8          	mov    -0x38(%rbp),%rax
  4039e8:	48 89 d9             	mov    %rbx,%rcx
  4039eb:	48 89 c7             	mov    %rax,%rdi
  4039ee:	e8 4d 08 00 00       	callq  404240 <_ZNSt6vectorISsSaISsEE20_M_allocate_and_copyIN9__gnu_cxx17__normal_iteratorIPKSsS1_EEEEPSsmT_S9_>
  4039f3:	48 89 45 d8          	mov    %rax,-0x28(%rbp)
  4039f7:	48 8b 45 c8          	mov    -0x38(%rbp),%rax
  4039fb:	48 89 c7             	mov    %rax,%rdi
  4039fe:	e8 2f 03 00 00       	callq  403d32 <_ZNSt12_Vector_baseISsSaISsEE19_M_get_Tp_allocatorEv>
  403a03:	48 89 c2             	mov    %rax,%rdx
  403a06:	48 8b 45 c8          	mov    -0x38(%rbp),%rax
  403a0a:	48 8b 48 08          	mov    0x8(%rax),%rcx
  403a0e:	48 8b 45 c8          	mov    -0x38(%rbp),%rax
  403a12:	48 8b 00             	mov    (%rax),%rax
  403a15:	48 89 ce             	mov    %rcx,%rsi
  403a18:	48 89 c7             	mov    %rax,%rdi
  403a1b:	e8 20 03 00 00       	callq  403d40 <_ZSt8_DestroyIPSsSsEvT_S1_RSaIT0_E>
  403a20:	48 8b 45 c8          	mov    -0x38(%rbp),%rax
  403a24:	48 8b 40 10          	mov    0x10(%rax),%rax
  403a28:	48 89 c2             	mov    %rax,%rdx
  403a2b:	48 8b 45 c8          	mov    -0x38(%rbp),%rax
  403a2f:	48 8b 00             	mov    (%rax),%rax
  403a32:	48 29 c2             	sub    %rax,%rdx
  403a35:	48 89 d0             	mov    %rdx,%rax
  403a38:	48 c1 f8 03          	sar    $0x3,%rax
  403a3c:	48 89 c2             	mov    %rax,%rdx
  403a3f:	48 8b 45 c8          	mov    -0x38(%rbp),%rax
  403a43:	48 8b 08             	mov    (%rax),%rcx
  403a46:	48 8b 45 c8          	mov    -0x38(%rbp),%rax
  403a4a:	48 89 ce             	mov    %rcx,%rsi
  403a4d:	48 89 c7             	mov    %rax,%rdi
  403a50:	e8 83 08 00 00       	callq  4042d8 <_ZNSt12_Vector_baseISsSaISsEE13_M_deallocateEPSsm>
  403a55:	48 8b 45 c8          	mov    -0x38(%rbp),%rax
  403a59:	48 8b 55 d8          	mov    -0x28(%rbp),%rdx
  403a5d:	48 89 10             	mov    %rdx,(%rax)
  403a60:	48 8b 45 c8          	mov    -0x38(%rbp),%rax
  403a64:	48 8b 00             	mov    (%rax),%rax
  403a67:	48 8b 55 d0          	mov    -0x30(%rbp),%rdx
  403a6b:	48 c1 e2 03          	shl    $0x3,%rdx
  403a6f:	48 01 c2             	add    %rax,%rdx
  403a72:	48 8b 45 c8          	mov    -0x38(%rbp),%rax
  403a76:	48 89 50 10          	mov    %rdx,0x10(%rax)
  403a7a:	e9 01 01 00 00       	jmpq   403b80 <_ZNSt6vectorISsSaISsEEaSERKS1_+0x20e>
  403a7f:	48 8b 45 c8          	mov    -0x38(%rbp),%rax
  403a83:	48 89 c7             	mov    %rax,%rdi
  403a86:	e8 05 fe ff ff       	callq  403890 <_ZNKSt6vectorISsSaISsEE4sizeEv>
  403a8b:	48 3b 45 d0          	cmp    -0x30(%rbp),%rax
  403a8f:	0f 93 c0             	setae  %al
  403a92:	84 c0                	test   %al,%al
  403a94:	74 69                	je     403aff <_ZNSt6vectorISsSaISsEEaSERKS1_+0x18d>
  403a96:	48 8b 45 c8          	mov    -0x38(%rbp),%rax
  403a9a:	48 89 c7             	mov    %rax,%rdi
  403a9d:	e8 90 02 00 00       	callq  403d32 <_ZNSt12_Vector_baseISsSaISsEE19_M_get_Tp_allocatorEv>
  403aa2:	49 89 c4             	mov    %rax,%r12
  403aa5:	48 8b 45 c8          	mov    -0x38(%rbp),%rax
  403aa9:	48 89 c7             	mov    %rax,%rdi
  403aac:	e8 c7 08 00 00       	callq  404378 <_ZNSt6vectorISsSaISsEE3endEv>
  403ab1:	48 89 c3             	mov    %rax,%rbx
  403ab4:	48 8b 45 c8          	mov    -0x38(%rbp),%rax
  403ab8:	48 89 c7             	mov    %rax,%rdi
  403abb:	e8 4c 08 00 00       	callq  40430c <_ZNSt6vectorISsSaISsEE5beginEv>
  403ac0:	49 89 c6             	mov    %rax,%r14
  403ac3:	48 8b 45 c0          	mov    -0x40(%rbp),%rax
  403ac7:	48 89 c7             	mov    %rax,%rdi
  403aca:	e8 45 03 00 00       	callq  403e14 <_ZNKSt6vectorISsSaISsEE3endEv>
  403acf:	49 89 c5             	mov    %rax,%r13
  403ad2:	48 8b 45 c0          	mov    -0x40(%rbp),%rax
  403ad6:	48 89 c7             	mov    %rax,%rdi
  403ad9:	e8 06 03 00 00       	callq  403de4 <_ZNKSt6vectorISsSaISsEE5beginEv>
  403ade:	4c 89 f2             	mov    %r14,%rdx
  403ae1:	4c 89 ee             	mov    %r13,%rsi
  403ae4:	48 89 c7             	mov    %rax,%rdi
  403ae7:	e8 45 08 00 00       	callq  404331 <_ZSt4copyIN9__gnu_cxx17__normal_iteratorIPKSsSt6vectorISsSaISsEEEENS1_IPSsS6_EEET0_T_SB_SA_>
  403aec:	4c 89 e2             	mov    %r12,%rdx
  403aef:	48 89 de             	mov    %rbx,%rsi
  403af2:	48 89 c7             	mov    %rax,%rdi
  403af5:	e8 a7 08 00 00       	callq  4043a1 <_ZSt8_DestroyIN9__gnu_cxx17__normal_iteratorIPSsSt6vectorISsSaISsEEEESsEvT_S7_RSaIT0_E>
  403afa:	e9 81 00 00 00       	jmpq   403b80 <_ZNSt6vectorISsSaISsEEaSERKS1_+0x20e>
  403aff:	48 8b 45 c8          	mov    -0x38(%rbp),%rax
  403b03:	48 8b 18             	mov    (%rax),%rbx
  403b06:	48 8b 45 c0          	mov    -0x40(%rbp),%rax
  403b0a:	4c 8b 20             	mov    (%rax),%r12
  403b0d:	48 8b 45 c8          	mov    -0x38(%rbp),%rax
  403b11:	48 89 c7             	mov    %rax,%rdi
  403b14:	e8 77 fd ff ff       	callq  403890 <_ZNKSt6vectorISsSaISsEE4sizeEv>
  403b19:	48 c1 e0 03          	shl    $0x3,%rax
  403b1d:	49 8d 0c 04          	lea    (%r12,%rax,1),%rcx
  403b21:	48 8b 45 c0          	mov    -0x40(%rbp),%rax
  403b25:	48 8b 00             	mov    (%rax),%rax
  403b28:	48 89 da             	mov    %rbx,%rdx
  403b2b:	48 89 ce             	mov    %rcx,%rsi
  403b2e:	48 89 c7             	mov    %rax,%rdi
  403b31:	e8 94 08 00 00       	callq  4043ca <_ZSt4copyIPSsS0_ET0_T_S2_S1_>
  403b36:	48 8b 45 c8          	mov    -0x38(%rbp),%rax
  403b3a:	48 89 c7             	mov    %rax,%rdi
  403b3d:	e8 f0 01 00 00       	callq  403d32 <_ZNSt12_Vector_baseISsSaISsEE19_M_get_Tp_allocatorEv>
  403b42:	49 89 c5             	mov    %rax,%r13
  403b45:	48 8b 45 c8          	mov    -0x38(%rbp),%rax
  403b49:	4c 8b 60 08          	mov    0x8(%rax),%r12
  403b4d:	48 8b 45 c0          	mov    -0x40(%rbp),%rax
  403b51:	48 8b 58 08          	mov    0x8(%rax),%rbx
  403b55:	48 8b 45 c0          	mov    -0x40(%rbp),%rax
  403b59:	4c 8b 30             	mov    (%rax),%r14
  403b5c:	48 8b 45 c8          	mov    -0x38(%rbp),%rax
  403b60:	48 89 c7             	mov    %rax,%rdi
  403b63:	e8 28 fd ff ff       	callq  403890 <_ZNKSt6vectorISsSaISsEE4sizeEv>
  403b68:	48 c1 e0 03          	shl    $0x3,%rax
  403b6c:	4c 01 f0             	add    %r14,%rax
  403b6f:	4c 89 e9             	mov    %r13,%rcx
  403b72:	4c 89 e2             	mov    %r12,%rdx
  403b75:	48 89 de             	mov    %rbx,%rsi
  403b78:	48 89 c7             	mov    %rax,%rdi
  403b7b:	e8 90 08 00 00       	callq  404410 <_ZSt22__uninitialized_copy_aIPSsS0_SsET0_T_S2_S1_RSaIT1_E>
  403b80:	48 8b 45 c8          	mov    -0x38(%rbp),%rax
  403b84:	48 8b 00             	mov    (%rax),%rax
  403b87:	48 8b 55 d0          	mov    -0x30(%rbp),%rdx
  403b8b:	48 c1 e2 03          	shl    $0x3,%rdx
  403b8f:	48 01 c2             	add    %rax,%rdx
  403b92:	48 8b 45 c8          	mov    -0x38(%rbp),%rax
  403b96:	48 89 50 08          	mov    %rdx,0x8(%rax)
  403b9a:	48 8b 45 c8          	mov    -0x38(%rbp),%rax
  403b9e:	48 83 c4 20          	add    $0x20,%rsp
  403ba2:	5b                   	pop    %rbx
  403ba3:	41 5c                	pop    %r12
  403ba5:	41 5d                	pop    %r13
  403ba7:	41 5e                	pop    %r14
  403ba9:	5d                   	pop    %rbp
  403baa:	c3                   	retq   
  403bab:	90                   	nop

0000000000403bac <_ZNSt6vectorISsSaISsEE9push_backERKSs>:
  403bac:	55                   	push   %rbp
  403bad:	48 89 e5             	mov    %rsp,%rbp
  403bb0:	48 83 ec 10          	sub    $0x10,%rsp
  403bb4:	48 89 7d f8          	mov    %rdi,-0x8(%rbp)
  403bb8:	48 89 75 f0          	mov    %rsi,-0x10(%rbp)
  403bbc:	48 8b 45 f8          	mov    -0x8(%rbp),%rax
  403bc0:	48 8b 50 08          	mov    0x8(%rax),%rdx
  403bc4:	48 8b 45 f8          	mov    -0x8(%rbp),%rax
  403bc8:	48 8b 40 10          	mov    0x10(%rax),%rax
  403bcc:	48 39 c2             	cmp    %rax,%rdx
  403bcf:	74 31                	je     403c02 <_ZNSt6vectorISsSaISsEE9push_backERKSs+0x56>
  403bd1:	48 8b 45 f8          	mov    -0x8(%rbp),%rax
  403bd5:	48 8b 48 08          	mov    0x8(%rax),%rcx
  403bd9:	48 8b 45 f8          	mov    -0x8(%rbp),%rax
  403bdd:	48 8b 55 f0          	mov    -0x10(%rbp),%rdx
  403be1:	48 89 ce             	mov    %rcx,%rsi
  403be4:	48 89 c7             	mov    %rax,%rdi
  403be7:	e8 55 08 00 00       	callq  404441 <_ZN9__gnu_cxx14__alloc_traitsISaISsEE9constructISsEEvRS1_PSsRKT_>
  403bec:	48 8b 45 f8          	mov    -0x8(%rbp),%rax
  403bf0:	48 8b 40 08          	mov    0x8(%rax),%rax
  403bf4:	48 8d 50 08          	lea    0x8(%rax),%rdx
  403bf8:	48 8b 45 f8          	mov    -0x8(%rbp),%rax
  403bfc:	48 89 50 08          	mov    %rdx,0x8(%rax)
  403c00:	eb 22                	jmp    403c24 <_ZNSt6vectorISsSaISsEE9push_backERKSs+0x78>
  403c02:	48 8b 45 f8          	mov    -0x8(%rbp),%rax
  403c06:	48 89 c7             	mov    %rax,%rdi
  403c09:	e8 6a 07 00 00       	callq  404378 <_ZNSt6vectorISsSaISsEE3endEv>
  403c0e:	48 89 c1             	mov    %rax,%rcx
  403c11:	48 8b 55 f0          	mov    -0x10(%rbp),%rdx
  403c15:	48 8b 45 f8          	mov    -0x8(%rbp),%rax
  403c19:	48 89 ce             	mov    %rcx,%rsi
  403c1c:	48 89 c7             	mov    %rax,%rdi
  403c1f:	e8 4a 08 00 00       	callq  40446e <_ZNSt6vectorISsSaISsEE13_M_insert_auxEN9__gnu_cxx17__normal_iteratorIPSsS1_EERKSs>
  403c24:	c9                   	leaveq 
  403c25:	c3                   	retq   

0000000000403c26 <_ZNSt5dequeIPSt6vectorISsSaISsEESaIS3_EE9pop_frontEv>:
  403c26:	55                   	push   %rbp
  403c27:	48 89 e5             	mov    %rsp,%rbp
  403c2a:	48 83 ec 10          	sub    $0x10,%rsp
  403c2e:	48 89 7d f8          	mov    %rdi,-0x8(%rbp)
  403c32:	48 8b 45 f8          	mov    -0x8(%rbp),%rax
  403c36:	48 8b 50 10          	mov    0x10(%rax),%rdx
  403c3a:	48 8b 45 f8          	mov    -0x8(%rbp),%rax
  403c3e:	48 8b 40 20          	mov    0x20(%rax),%rax
  403c42:	48 83 e8 08          	sub    $0x8,%rax
  403c46:	48 39 c2             	cmp    %rax,%rdx
  403c49:	74 2d                	je     403c78 <_ZNSt5dequeIPSt6vectorISsSaISsEESaIS3_EE9pop_frontEv+0x52>
  403c4b:	48 8b 45 f8          	mov    -0x8(%rbp),%rax
  403c4f:	48 8b 50 10          	mov    0x10(%rax),%rdx
  403c53:	48 8b 45 f8          	mov    -0x8(%rbp),%rax
  403c57:	48 89 d6             	mov    %rdx,%rsi
  403c5a:	48 89 c7             	mov    %rax,%rdi
  403c5d:	e8 2c 0b 00 00       	callq  40478e <_ZN9__gnu_cxx13new_allocatorIPSt6vectorISsSaISsEEE7destroyEPS4_>
  403c62:	48 8b 45 f8          	mov    -0x8(%rbp),%rax
  403c66:	48 8b 40 10          	mov    0x10(%rax),%rax
  403c6a:	48 8d 50 08          	lea    0x8(%rax),%rdx
  403c6e:	48 8b 45 f8          	mov    -0x8(%rbp),%rax
  403c72:	48 89 50 10          	mov    %rdx,0x10(%rax)
  403c76:	eb 0c                	jmp    403c84 <_ZNSt5dequeIPSt6vectorISsSaISsEESaIS3_EE9pop_frontEv+0x5e>
  403c78:	48 8b 45 f8          	mov    -0x8(%rbp),%rax
  403c7c:	48 89 c7             	mov    %rax,%rdi
  403c7f:	e8 18 0b 00 00       	callq  40479c <_ZNSt5dequeIPSt6vectorISsSaISsEESaIS3_EE16_M_pop_front_auxEv>
  403c84:	c9                   	leaveq 
  403c85:	c3                   	retq   

0000000000403c86 <_ZNSt6vectorISsSaISsEEixEm>:
  403c86:	55                   	push   %rbp
  403c87:	48 89 e5             	mov    %rsp,%rbp
  403c8a:	48 89 7d f8          	mov    %rdi,-0x8(%rbp)
  403c8e:	48 89 75 f0          	mov    %rsi,-0x10(%rbp)
  403c92:	48 8b 45 f8          	mov    -0x8(%rbp),%rax
  403c96:	48 8b 00             	mov    (%rax),%rax
  403c99:	48 8b 55 f0          	mov    -0x10(%rbp),%rdx
  403c9d:	48 c1 e2 03          	shl    $0x3,%rdx
  403ca1:	48 01 d0             	add    %rdx,%rax
  403ca4:	5d                   	pop    %rbp
  403ca5:	c3                   	retq   

0000000000403ca6 <_ZNSt12_Vector_baseISsSaISsEE12_Vector_implD1Ev>:
  403ca6:	55                   	push   %rbp
  403ca7:	48 89 e5             	mov    %rsp,%rbp
  403caa:	48 83 ec 10          	sub    $0x10,%rsp
  403cae:	48 89 7d f8          	mov    %rdi,-0x8(%rbp)
  403cb2:	48 8b 45 f8          	mov    -0x8(%rbp),%rax
  403cb6:	48 89 c7             	mov    %rax,%rdi
  403cb9:	e8 6c fa ff ff       	callq  40372a <_ZNSaISsED1Ev>
  403cbe:	c9                   	leaveq 
  403cbf:	c3                   	retq   

0000000000403cc0 <_ZNSt12_Vector_baseISsSaISsEED1Ev>:
  403cc0:	55                   	push   %rbp
  403cc1:	48 89 e5             	mov    %rsp,%rbp
  403cc4:	53                   	push   %rbx
  403cc5:	48 83 ec 18          	sub    $0x18,%rsp
  403cc9:	48 89 7d e8          	mov    %rdi,-0x18(%rbp)
  403ccd:	48 8b 45 e8          	mov    -0x18(%rbp),%rax
  403cd1:	48 8b 40 10          	mov    0x10(%rax),%rax
  403cd5:	48 89 c2             	mov    %rax,%rdx
  403cd8:	48 8b 45 e8          	mov    -0x18(%rbp),%rax
  403cdc:	48 8b 00             	mov    (%rax),%rax
  403cdf:	48 29 c2             	sub    %rax,%rdx
  403ce2:	48 89 d0             	mov    %rdx,%rax
  403ce5:	48 c1 f8 03          	sar    $0x3,%rax
  403ce9:	48 89 c2             	mov    %rax,%rdx
  403cec:	48 8b 45 e8          	mov    -0x18(%rbp),%rax
  403cf0:	48 8b 08             	mov    (%rax),%rcx
  403cf3:	48 8b 45 e8          	mov    -0x18(%rbp),%rax
  403cf7:	48 89 ce             	mov    %rcx,%rsi
  403cfa:	48 89 c7             	mov    %rax,%rdi
  403cfd:	e8 d6 05 00 00       	callq  4042d8 <_ZNSt12_Vector_baseISsSaISsEE13_M_deallocateEPSsm>
  403d02:	48 8b 45 e8          	mov    -0x18(%rbp),%rax
  403d06:	48 89 c7             	mov    %rax,%rdi
  403d09:	e8 98 ff ff ff       	callq  403ca6 <_ZNSt12_Vector_baseISsSaISsEE12_Vector_implD1Ev>
  403d0e:	eb 1a                	jmp    403d2a <_ZNSt12_Vector_baseISsSaISsEED1Ev+0x6a>
  403d10:	48 89 c3             	mov    %rax,%rbx
  403d13:	48 8b 45 e8          	mov    -0x18(%rbp),%rax
  403d17:	48 89 c7             	mov    %rax,%rdi
  403d1a:	e8 87 ff ff ff       	callq  403ca6 <_ZNSt12_Vector_baseISsSaISsEE12_Vector_implD1Ev>
  403d1f:	48 89 d8             	mov    %rbx,%rax
  403d22:	48 89 c7             	mov    %rax,%rdi
  403d25:	e8 a6 eb ff ff       	callq  4028d0 <_Unwind_Resume@plt>
  403d2a:	48 83 c4 18          	add    $0x18,%rsp
  403d2e:	5b                   	pop    %rbx
  403d2f:	5d                   	pop    %rbp
  403d30:	c3                   	retq   
  403d31:	90                   	nop

0000000000403d32 <_ZNSt12_Vector_baseISsSaISsEE19_M_get_Tp_allocatorEv>:
  403d32:	55                   	push   %rbp
  403d33:	48 89 e5             	mov    %rsp,%rbp
  403d36:	48 89 7d f8          	mov    %rdi,-0x8(%rbp)
  403d3a:	48 8b 45 f8          	mov    -0x8(%rbp),%rax
  403d3e:	5d                   	pop    %rbp
  403d3f:	c3                   	retq   

0000000000403d40 <_ZSt8_DestroyIPSsSsEvT_S1_RSaIT0_E>:
  403d40:	55                   	push   %rbp
  403d41:	48 89 e5             	mov    %rsp,%rbp
  403d44:	48 83 ec 20          	sub    $0x20,%rsp
  403d48:	48 89 7d f8          	mov    %rdi,-0x8(%rbp)
  403d4c:	48 89 75 f0          	mov    %rsi,-0x10(%rbp)
  403d50:	48 89 55 e8          	mov    %rdx,-0x18(%rbp)
  403d54:	48 8b 55 f0          	mov    -0x10(%rbp),%rdx
  403d58:	48 8b 45 f8          	mov    -0x8(%rbp),%rax
  403d5c:	48 89 d6             	mov    %rdx,%rsi
  403d5f:	48 89 c7             	mov    %rax,%rdi
  403d62:	e8 a0 0a 00 00       	callq  404807 <_ZSt8_DestroyIPSsEvT_S1_>
  403d67:	c9                   	leaveq 
  403d68:	c3                   	retq   

0000000000403d69 <_ZN9__gnu_cxx14__alloc_traitsISaISsEE17_S_select_on_copyERKS1_>:
  403d69:	55                   	push   %rbp
  403d6a:	48 89 e5             	mov    %rsp,%rbp
  403d6d:	48 89 7d f8          	mov    %rdi,-0x8(%rbp)
  403d71:	48 8b 45 f8          	mov    -0x8(%rbp),%rax
  403d75:	5d                   	pop    %rbp
  403d76:	c3                   	retq   
  403d77:	90                   	nop

0000000000403d78 <_ZNKSt12_Vector_baseISsSaISsEE19_M_get_Tp_allocatorEv>:
  403d78:	55                   	push   %rbp
  403d79:	48 89 e5             	mov    %rsp,%rbp
  403d7c:	48 89 7d f8          	mov    %rdi,-0x8(%rbp)
  403d80:	48 8b 45 f8          	mov    -0x8(%rbp),%rax
  403d84:	5d                   	pop    %rbp
  403d85:	c3                   	retq   

0000000000403d86 <_ZNSt12_Vector_baseISsSaISsEEC1EmRKS0_>:
  403d86:	55                   	push   %rbp
  403d87:	48 89 e5             	mov    %rsp,%rbp
  403d8a:	53                   	push   %rbx
  403d8b:	48 83 ec 28          	sub    $0x28,%rsp
  403d8f:	48 89 7d e8          	mov    %rdi,-0x18(%rbp)
  403d93:	48 89 75 e0          	mov    %rsi,-0x20(%rbp)
  403d97:	48 89 55 d8          	mov    %rdx,-0x28(%rbp)
  403d9b:	48 8b 45 e8          	mov    -0x18(%rbp),%rax
  403d9f:	48 8b 55 d8          	mov    -0x28(%rbp),%rdx
  403da3:	48 89 d6             	mov    %rdx,%rsi
  403da6:	48 89 c7             	mov    %rax,%rdi
  403da9:	e8 7e 0a 00 00       	callq  40482c <_ZNSt12_Vector_baseISsSaISsEE12_Vector_implC1ERKS0_>
  403dae:	48 8b 55 e0          	mov    -0x20(%rbp),%rdx
  403db2:	48 8b 45 e8          	mov    -0x18(%rbp),%rax
  403db6:	48 89 d6             	mov    %rdx,%rsi
  403db9:	48 89 c7             	mov    %rax,%rdi
  403dbc:	e8 b3 0a 00 00       	callq  404874 <_ZNSt12_Vector_baseISsSaISsEE17_M_create_storageEm>
  403dc1:	eb 1a                	jmp    403ddd <_ZNSt12_Vector_baseISsSaISsEEC1EmRKS0_+0x57>
  403dc3:	48 89 c3             	mov    %rax,%rbx
  403dc6:	48 8b 45 e8          	mov    -0x18(%rbp),%rax
  403dca:	48 89 c7             	mov    %rax,%rdi
  403dcd:	e8 d4 fe ff ff       	callq  403ca6 <_ZNSt12_Vector_baseISsSaISsEE12_Vector_implD1Ev>
  403dd2:	48 89 d8             	mov    %rbx,%rax
  403dd5:	48 89 c7             	mov    %rax,%rdi
  403dd8:	e8 f3 ea ff ff       	callq  4028d0 <_Unwind_Resume@plt>
  403ddd:	48 83 c4 28          	add    $0x28,%rsp
  403de1:	5b                   	pop    %rbx
  403de2:	5d                   	pop    %rbp
  403de3:	c3                   	retq   

0000000000403de4 <_ZNKSt6vectorISsSaISsEE5beginEv>:
  403de4:	55                   	push   %rbp
  403de5:	48 89 e5             	mov    %rsp,%rbp
  403de8:	48 83 ec 20          	sub    $0x20,%rsp
  403dec:	48 89 7d e8          	mov    %rdi,-0x18(%rbp)
  403df0:	48 8b 45 e8          	mov    -0x18(%rbp),%rax
  403df4:	48 8b 00             	mov    (%rax),%rax
  403df7:	48 89 45 f8          	mov    %rax,-0x8(%rbp)
  403dfb:	48 8d 55 f8          	lea    -0x8(%rbp),%rdx
  403dff:	48 8d 45 f0          	lea    -0x10(%rbp),%rax
  403e03:	48 89 d6             	mov    %rdx,%rsi
  403e06:	48 89 c7             	mov    %rax,%rdi
  403e09:	e8 bc 0a 00 00       	callq  4048ca <_ZN9__gnu_cxx17__normal_iteratorIPKSsSt6vectorISsSaISsEEEC1ERKS2_>
  403e0e:	48 8b 45 f0          	mov    -0x10(%rbp),%rax
  403e12:	c9                   	leaveq 
  403e13:	c3                   	retq   

0000000000403e14 <_ZNKSt6vectorISsSaISsEE3endEv>:
  403e14:	55                   	push   %rbp
  403e15:	48 89 e5             	mov    %rsp,%rbp
  403e18:	48 83 ec 20          	sub    $0x20,%rsp
  403e1c:	48 89 7d e8          	mov    %rdi,-0x18(%rbp)
  403e20:	48 8b 45 e8          	mov    -0x18(%rbp),%rax
  403e24:	48 8b 40 08          	mov    0x8(%rax),%rax
  403e28:	48 89 45 f8          	mov    %rax,-0x8(%rbp)
  403e2c:	48 8d 55 f8          	lea    -0x8(%rbp),%rdx
  403e30:	48 8d 45 f0          	lea    -0x10(%rbp),%rax
  403e34:	48 89 d6             	mov    %rdx,%rsi
  403e37:	48 89 c7             	mov    %rax,%rdi
  403e3a:	e8 8b 0a 00 00       	callq  4048ca <_ZN9__gnu_cxx17__normal_iteratorIPKSsSt6vectorISsSaISsEEEC1ERKS2_>
  403e3f:	48 8b 45 f0          	mov    -0x10(%rbp),%rax
  403e43:	c9                   	leaveq 
  403e44:	c3                   	retq   

0000000000403e45 <_ZSt22__uninitialized_copy_aIN9__gnu_cxx17__normal_iteratorIPKSsSt6vectorISsSaISsEEEEPSsSsET0_T_SA_S9_RSaIT1_E>:
  403e45:	55                   	push   %rbp
  403e46:	48 89 e5             	mov    %rsp,%rbp
  403e49:	48 83 ec 20          	sub    $0x20,%rsp
  403e4d:	48 89 7d f0          	mov    %rdi,-0x10(%rbp)
  403e51:	48 89 75 e0          	mov    %rsi,-0x20(%rbp)
  403e55:	48 89 55 e8          	mov    %rdx,-0x18(%rbp)
  403e59:	48 89 4d f8          	mov    %rcx,-0x8(%rbp)
  403e5d:	48 8b 55 e8          	mov    -0x18(%rbp),%rdx
  403e61:	48 8b 4d e0          	mov    -0x20(%rbp),%rcx
  403e65:	48 8b 45 f0          	mov    -0x10(%rbp),%rax
  403e69:	48 89 ce             	mov    %rcx,%rsi
  403e6c:	48 89 c7             	mov    %rax,%rdi
  403e6f:	e8 72 0a 00 00       	callq  4048e6 <_ZSt18uninitialized_copyIN9__gnu_cxx17__normal_iteratorIPKSsSt6vectorISsSaISsEEEEPSsET0_T_SA_S9_>
  403e74:	c9                   	leaveq 
  403e75:	c3                   	retq   

0000000000403e76 <_ZNSt11_Deque_baseIPSt6vectorISsSaISsEESaIS3_EE11_Deque_implD1Ev>:
  403e76:	55                   	push   %rbp
  403e77:	48 89 e5             	mov    %rsp,%rbp
  403e7a:	48 83 ec 10          	sub    $0x10,%rsp
  403e7e:	48 89 7d f8          	mov    %rdi,-0x8(%rbp)
  403e82:	48 8b 45 f8          	mov    -0x8(%rbp),%rax
  403e86:	48 89 c7             	mov    %rax,%rdi
  403e89:	e8 d8 0a 00 00       	callq  404966 <_ZNSaIPSt6vectorISsSaISsEEED1Ev>
  403e8e:	c9                   	leaveq 
  403e8f:	c3                   	retq   

0000000000403e90 <_ZNSt11_Deque_baseIPSt6vectorISsSaISsEESaIS3_EEC1Ev>:
  403e90:	55                   	push   %rbp
  403e91:	48 89 e5             	mov    %rsp,%rbp
  403e94:	53                   	push   %rbx
  403e95:	48 83 ec 18          	sub    $0x18,%rsp
  403e99:	48 89 7d e8          	mov    %rdi,-0x18(%rbp)
  403e9d:	48 8b 45 e8          	mov    -0x18(%rbp),%rax
  403ea1:	48 89 c7             	mov    %rax,%rdi
  403ea4:	e8 6b 0a 00 00       	callq  404914 <_ZNSt11_Deque_baseIPSt6vectorISsSaISsEESaIS3_EE11_Deque_implC1Ev>
  403ea9:	48 8b 45 e8          	mov    -0x18(%rbp),%rax
  403ead:	be 00 00 00 00       	mov    $0x0,%esi
  403eb2:	48 89 c7             	mov    %rax,%rdi
  403eb5:	e8 c6 0a 00 00       	callq  404980 <_ZNSt11_Deque_baseIPSt6vectorISsSaISsEESaIS3_EE17_M_initialize_mapEm>
  403eba:	eb 1a                	jmp    403ed6 <_ZNSt11_Deque_baseIPSt6vectorISsSaISsEESaIS3_EEC1Ev+0x46>
  403ebc:	48 89 c3             	mov    %rax,%rbx
  403ebf:	48 8b 45 e8          	mov    -0x18(%rbp),%rax
  403ec3:	48 89 c7             	mov    %rax,%rdi
  403ec6:	e8 ab ff ff ff       	callq  403e76 <_ZNSt11_Deque_baseIPSt6vectorISsSaISsEESaIS3_EE11_Deque_implD1Ev>
  403ecb:	48 89 d8             	mov    %rbx,%rax
  403ece:	48 89 c7             	mov    %rax,%rdi
  403ed1:	e8 fa e9 ff ff       	callq  4028d0 <_Unwind_Resume@plt>
  403ed6:	48 83 c4 18          	add    $0x18,%rsp
  403eda:	5b                   	pop    %rbx
  403edb:	5d                   	pop    %rbp
  403edc:	c3                   	retq   
  403edd:	90                   	nop

0000000000403ede <_ZNSt11_Deque_baseIPSt6vectorISsSaISsEESaIS3_EED1Ev>:
  403ede:	55                   	push   %rbp
  403edf:	48 89 e5             	mov    %rsp,%rbp
  403ee2:	53                   	push   %rbx
  403ee3:	48 83 ec 18          	sub    $0x18,%rsp
  403ee7:	48 89 7d e8          	mov    %rdi,-0x18(%rbp)
  403eeb:	48 8b 45 e8          	mov    -0x18(%rbp),%rax
  403eef:	48 8b 00             	mov    (%rax),%rax
  403ef2:	48 85 c0             	test   %rax,%rax
  403ef5:	74 41                	je     403f38 <_ZNSt11_Deque_baseIPSt6vectorISsSaISsEESaIS3_EED1Ev+0x5a>
  403ef7:	48 8b 45 e8          	mov    -0x18(%rbp),%rax
  403efb:	48 8b 40 48          	mov    0x48(%rax),%rax
  403eff:	48 8d 50 08          	lea    0x8(%rax),%rdx
  403f03:	48 8b 45 e8          	mov    -0x18(%rbp),%rax
  403f07:	48 8b 48 28          	mov    0x28(%rax),%rcx
  403f0b:	48 8b 45 e8          	mov    -0x18(%rbp),%rax
  403f0f:	48 89 ce             	mov    %rcx,%rsi
  403f12:	48 89 c7             	mov    %rax,%rdi
  403f15:	e8 0e 0c 00 00       	callq  404b28 <_ZNSt11_Deque_baseIPSt6vectorISsSaISsEESaIS3_EE16_M_destroy_nodesEPPS3_S7_>
  403f1a:	48 8b 45 e8          	mov    -0x18(%rbp),%rax
  403f1e:	48 8b 50 08          	mov    0x8(%rax),%rdx
  403f22:	48 8b 45 e8          	mov    -0x18(%rbp),%rax
  403f26:	48 8b 08             	mov    (%rax),%rcx
  403f29:	48 8b 45 e8          	mov    -0x18(%rbp),%rax
  403f2d:	48 89 ce             	mov    %rcx,%rsi
  403f30:	48 89 c7             	mov    %rax,%rdi
  403f33:	e8 36 0c 00 00       	callq  404b6e <_ZNSt11_Deque_baseIPSt6vectorISsSaISsEESaIS3_EE17_M_deallocate_mapEPPS3_m>
  403f38:	48 8b 45 e8          	mov    -0x18(%rbp),%rax
  403f3c:	48 89 c7             	mov    %rax,%rdi
  403f3f:	e8 32 ff ff ff       	callq  403e76 <_ZNSt11_Deque_baseIPSt6vectorISsSaISsEESaIS3_EE11_Deque_implD1Ev>
  403f44:	eb 1a                	jmp    403f60 <_ZNSt11_Deque_baseIPSt6vectorISsSaISsEESaIS3_EED1Ev+0x82>
  403f46:	48 89 c3             	mov    %rax,%rbx
  403f49:	48 8b 45 e8          	mov    -0x18(%rbp),%rax
  403f4d:	48 89 c7             	mov    %rax,%rdi
  403f50:	e8 21 ff ff ff       	callq  403e76 <_ZNSt11_Deque_baseIPSt6vectorISsSaISsEESaIS3_EE11_Deque_implD1Ev>
  403f55:	48 89 d8             	mov    %rbx,%rax
  403f58:	48 89 c7             	mov    %rax,%rdi
  403f5b:	e8 70 e9 ff ff       	callq  4028d0 <_Unwind_Resume@plt>
  403f60:	48 83 c4 18          	add    $0x18,%rsp
  403f64:	5b                   	pop    %rbx
  403f65:	5d                   	pop    %rbp
  403f66:	c3                   	retq   
  403f67:	90                   	nop

0000000000403f68 <_ZNSt5dequeIPSt6vectorISsSaISsEESaIS3_EE5beginEv>:
  403f68:	55                   	push   %rbp
  403f69:	48 89 e5             	mov    %rsp,%rbp
  403f6c:	48 83 ec 10          	sub    $0x10,%rsp
  403f70:	48 89 7d f8          	mov    %rdi,-0x8(%rbp)
  403f74:	48 89 75 f0          	mov    %rsi,-0x10(%rbp)
  403f78:	48 8b 45 f0          	mov    -0x10(%rbp),%rax
  403f7c:	48 8d 50 10          	lea    0x10(%rax),%rdx
  403f80:	48 8b 45 f8          	mov    -0x8(%rbp),%rax
  403f84:	48 89 d6             	mov    %rdx,%rsi
  403f87:	48 89 c7             	mov    %rax,%rdi
  403f8a:	e8 43 00 00 00       	callq  403fd2 <_ZNSt15_Deque_iteratorIPSt6vectorISsSaISsEERS3_PS3_EC1ERKS6_>
  403f8f:	48 8b 45 f8          	mov    -0x8(%rbp),%rax
  403f93:	c9                   	leaveq 
  403f94:	c3                   	retq   
  403f95:	90                   	nop

0000000000403f96 <_ZNSt5dequeIPSt6vectorISsSaISsEESaIS3_EE3endEv>:
  403f96:	55                   	push   %rbp
  403f97:	48 89 e5             	mov    %rsp,%rbp
  403f9a:	48 83 ec 10          	sub    $0x10,%rsp
  403f9e:	48 89 7d f8          	mov    %rdi,-0x8(%rbp)
  403fa2:	48 89 75 f0          	mov    %rsi,-0x10(%rbp)
  403fa6:	48 8b 45 f0          	mov    -0x10(%rbp),%rax
  403faa:	48 8d 50 30          	lea    0x30(%rax),%rdx
  403fae:	48 8b 45 f8          	mov    -0x8(%rbp),%rax
  403fb2:	48 89 d6             	mov    %rdx,%rsi
  403fb5:	48 89 c7             	mov    %rax,%rdi
  403fb8:	e8 15 00 00 00       	callq  403fd2 <_ZNSt15_Deque_iteratorIPSt6vectorISsSaISsEERS3_PS3_EC1ERKS6_>
  403fbd:	48 8b 45 f8          	mov    -0x8(%rbp),%rax
  403fc1:	c9                   	leaveq 
  403fc2:	c3                   	retq   
  403fc3:	90                   	nop

0000000000403fc4 <_ZNSt11_Deque_baseIPSt6vectorISsSaISsEESaIS3_EE19_M_get_Tp_allocatorEv>:
  403fc4:	55                   	push   %rbp
  403fc5:	48 89 e5             	mov    %rsp,%rbp
  403fc8:	48 89 7d f8          	mov    %rdi,-0x8(%rbp)
  403fcc:	48 8b 45 f8          	mov    -0x8(%rbp),%rax
  403fd0:	5d                   	pop    %rbp
  403fd1:	c3                   	retq   

0000000000403fd2 <_ZNSt15_Deque_iteratorIPSt6vectorISsSaISsEERS3_PS3_EC1ERKS6_>:
  403fd2:	55                   	push   %rbp
  403fd3:	48 89 e5             	mov    %rsp,%rbp
  403fd6:	48 89 7d f8          	mov    %rdi,-0x8(%rbp)
  403fda:	48 89 75 f0          	mov    %rsi,-0x10(%rbp)
  403fde:	48 8b 45 f0          	mov    -0x10(%rbp),%rax
  403fe2:	48 8b 10             	mov    (%rax),%rdx
  403fe5:	48 8b 45 f8          	mov    -0x8(%rbp),%rax
  403fe9:	48 89 10             	mov    %rdx,(%rax)
  403fec:	48 8b 45 f0          	mov    -0x10(%rbp),%rax
  403ff0:	48 8b 50 08          	mov    0x8(%rax),%rdx
  403ff4:	48 8b 45 f8          	mov    -0x8(%rbp),%rax
  403ff8:	48 89 50 08          	mov    %rdx,0x8(%rax)
  403ffc:	48 8b 45 f0          	mov    -0x10(%rbp),%rax
  404000:	48 8b 50 10          	mov    0x10(%rax),%rdx
  404004:	48 8b 45 f8          	mov    -0x8(%rbp),%rax
  404008:	48 89 50 10          	mov    %rdx,0x10(%rax)
  40400c:	48 8b 45 f0          	mov    -0x10(%rbp),%rax
  404010:	48 8b 50 18          	mov    0x18(%rax),%rdx
  404014:	48 8b 45 f8          	mov    -0x8(%rbp),%rax
  404018:	48 89 50 18          	mov    %rdx,0x18(%rax)
  40401c:	5d                   	pop    %rbp
  40401d:	c3                   	retq   

000000000040401e <_ZNSt5dequeIPSt6vectorISsSaISsEESaIS3_EE15_M_destroy_dataESt15_Deque_iteratorIS3_RS3_PS3_ES9_RKS4_>:
  40401e:	55                   	push   %rbp
  40401f:	48 89 e5             	mov    %rsp,%rbp
  404022:	48 89 7d d8          	mov    %rdi,-0x28(%rbp)
  404026:	48 89 75 d0          	mov    %rsi,-0x30(%rbp)
  40402a:	48 89 55 c8          	mov    %rdx,-0x38(%rbp)
  40402e:	48 89 4d c0          	mov    %rcx,-0x40(%rbp)
  404032:	5d                   	pop    %rbp
  404033:	c3                   	retq   

0000000000404034 <_ZN9__gnu_cxx13new_allocatorISsEC1Ev>:
  404034:	55                   	push   %rbp
  404035:	48 89 e5             	mov    %rsp,%rbp
  404038:	48 89 7d f8          	mov    %rdi,-0x8(%rbp)
  40403c:	5d                   	pop    %rbp
  40403d:	c3                   	retq   

000000000040403e <_ZN9__gnu_cxx13new_allocatorISsED1Ev>:
  40403e:	55                   	push   %rbp
  40403f:	48 89 e5             	mov    %rsp,%rbp
  404042:	48 89 7d f8          	mov    %rdi,-0x8(%rbp)
  404046:	5d                   	pop    %rbp
  404047:	c3                   	retq   

0000000000404048 <_ZNSt6vectorISsSaISsEE18_M_fill_initializeEmRKSs>:
  404048:	55                   	push   %rbp
  404049:	48 89 e5             	mov    %rsp,%rbp
  40404c:	48 83 ec 20          	sub    $0x20,%rsp
  404050:	48 89 7d f8          	mov    %rdi,-0x8(%rbp)
  404054:	48 89 75 f0          	mov    %rsi,-0x10(%rbp)
  404058:	48 89 55 e8          	mov    %rdx,-0x18(%rbp)
  40405c:	48 8b 45 f8          	mov    -0x8(%rbp),%rax
  404060:	48 89 c7             	mov    %rax,%rdi
  404063:	e8 ca fc ff ff       	callq  403d32 <_ZNSt12_Vector_baseISsSaISsEE19_M_get_Tp_allocatorEv>
  404068:	48 89 c1             	mov    %rax,%rcx
  40406b:	48 8b 45 f8          	mov    -0x8(%rbp),%rax
  40406f:	48 8b 00             	mov    (%rax),%rax
  404072:	48 8b 55 e8          	mov    -0x18(%rbp),%rdx
  404076:	48 8b 75 f0          	mov    -0x10(%rbp),%rsi
  40407a:	48 89 c7             	mov    %rax,%rdi
  40407d:	e8 38 0b 00 00       	callq  404bba <_ZSt24__uninitialized_fill_n_aIPSsmSsSsEvT_T0_RKT1_RSaIT2_E>
  404082:	48 8b 45 f8          	mov    -0x8(%rbp),%rax
  404086:	48 8b 50 10          	mov    0x10(%rax),%rdx
  40408a:	48 8b 45 f8          	mov    -0x8(%rbp),%rax
  40408e:	48 89 50 08          	mov    %rdx,0x8(%rax)
  404092:	c9                   	leaveq 
  404093:	c3                   	retq   

0000000000404094 <_ZNSt12_Vector_baseISsSaISsEEC1Ev>:
  404094:	55                   	push   %rbp
  404095:	48 89 e5             	mov    %rsp,%rbp
  404098:	48 83 ec 10          	sub    $0x10,%rsp
  40409c:	48 89 7d f8          	mov    %rdi,-0x8(%rbp)
  4040a0:	48 8b 45 f8          	mov    -0x8(%rbp),%rax
  4040a4:	48 89 c7             	mov    %rax,%rdi
  4040a7:	e8 40 0b 00 00       	callq  404bec <_ZNSt12_Vector_baseISsSaISsEE12_Vector_implC1Ev>
  4040ac:	c9                   	leaveq 
  4040ad:	c3                   	retq   

00000000004040ae <_ZN9__gnu_cxx13new_allocatorIPSt6vectorISsSaISsEEE9constructEPS4_RKS4_>:
  4040ae:	55                   	push   %rbp
  4040af:	48 89 e5             	mov    %rsp,%rbp
  4040b2:	48 83 ec 20          	sub    $0x20,%rsp
  4040b6:	48 89 7d f8          	mov    %rdi,-0x8(%rbp)
  4040ba:	48 89 75 f0          	mov    %rsi,-0x10(%rbp)
  4040be:	48 89 55 e8          	mov    %rdx,-0x18(%rbp)
  4040c2:	48 8b 45 f0          	mov    -0x10(%rbp),%rax
  4040c6:	48 89 c6             	mov    %rax,%rsi
  4040c9:	bf 08 00 00 00       	mov    $0x8,%edi
  4040ce:	e8 04 f4 ff ff       	callq  4034d7 <_ZnwmPv>
  4040d3:	48 85 c0             	test   %rax,%rax
  4040d6:	74 0a                	je     4040e2 <_ZN9__gnu_cxx13new_allocatorIPSt6vectorISsSaISsEEE9constructEPS4_RKS4_+0x34>
  4040d8:	48 8b 55 e8          	mov    -0x18(%rbp),%rdx
  4040dc:	48 8b 12             	mov    (%rdx),%rdx
  4040df:	48 89 10             	mov    %rdx,(%rax)
  4040e2:	c9                   	leaveq 
  4040e3:	c3                   	retq   

00000000004040e4 <_ZNSt5dequeIPSt6vectorISsSaISsEESaIS3_EE16_M_push_back_auxERKS3_>:
  4040e4:	55                   	push   %rbp
  4040e5:	48 89 e5             	mov    %rsp,%rbp
  4040e8:	53                   	push   %rbx
  4040e9:	48 83 ec 18          	sub    $0x18,%rsp
  4040ed:	48 89 7d e8          	mov    %rdi,-0x18(%rbp)
  4040f1:	48 89 75 e0          	mov    %rsi,-0x20(%rbp)
  4040f5:	48 8b 45 e8          	mov    -0x18(%rbp),%rax
  4040f9:	be 01 00 00 00       	mov    $0x1,%esi
  4040fe:	48 89 c7             	mov    %rax,%rdi
  404101:	e8 24 0b 00 00       	callq  404c2a <_ZNSt5dequeIPSt6vectorISsSaISsEESaIS3_EE22_M_reserve_map_at_backEm>
  404106:	48 8b 45 e8          	mov    -0x18(%rbp),%rax
  40410a:	48 8b 40 48          	mov    0x48(%rax),%rax
  40410e:	48 8d 58 08          	lea    0x8(%rax),%rbx
  404112:	48 8b 45 e8          	mov    -0x18(%rbp),%rax
  404116:	48 89 c7             	mov    %rax,%rdi
  404119:	e8 6e 0b 00 00       	callq  404c8c <_ZNSt11_Deque_baseIPSt6vectorISsSaISsEESaIS3_EE16_M_allocate_nodeEv>
  40411e:	48 89 03             	mov    %rax,(%rbx)
  404121:	48 8b 45 e8          	mov    -0x18(%rbp),%rax
  404125:	48 8b 48 30          	mov    0x30(%rax),%rcx
  404129:	48 8b 45 e8          	mov    -0x18(%rbp),%rax
  40412d:	48 8b 55 e0          	mov    -0x20(%rbp),%rdx
  404131:	48 89 ce             	mov    %rcx,%rsi
  404134:	48 89 c7             	mov    %rax,%rdi
  404137:	e8 72 ff ff ff       	callq  4040ae <_ZN9__gnu_cxx13new_allocatorIPSt6vectorISsSaISsEEE9constructEPS4_RKS4_>
  40413c:	48 8b 45 e8          	mov    -0x18(%rbp),%rax
  404140:	48 8b 40 48          	mov    0x48(%rax),%rax
  404144:	48 8d 50 08          	lea    0x8(%rax),%rdx
  404148:	48 8b 45 e8          	mov    -0x18(%rbp),%rax
  40414c:	48 83 c0 30          	add    $0x30,%rax
  404150:	48 89 d6             	mov    %rdx,%rsi
  404153:	48 89 c7             	mov    %rax,%rdi
  404156:	e8 61 0b 00 00       	callq  404cbc <_ZNSt15_Deque_iteratorIPSt6vectorISsSaISsEERS3_PS3_E11_M_set_nodeEPS5_>
  40415b:	48 8b 45 e8          	mov    -0x18(%rbp),%rax
  40415f:	48 8b 50 38          	mov    0x38(%rax),%rdx
  404163:	48 8b 45 e8          	mov    -0x18(%rbp),%rax
  404167:	48 89 50 30          	mov    %rdx,0x30(%rax)
  40416b:	eb 3e                	jmp    4041ab <_ZNSt5dequeIPSt6vectorISsSaISsEESaIS3_EE16_M_push_back_auxERKS3_+0xc7>
  40416d:	48 89 c3             	mov    %rax,%rbx
  404170:	e8 9b e6 ff ff       	callq  402810 <__cxa_end_catch@plt>
  404175:	48 89 d8             	mov    %rbx,%rax
  404178:	48 89 c7             	mov    %rax,%rdi
  40417b:	e8 50 e7 ff ff       	callq  4028d0 <_Unwind_Resume@plt>
  404180:	48 89 c7             	mov    %rax,%rdi
  404183:	e8 c8 e6 ff ff       	callq  402850 <__cxa_begin_catch@plt>
  404188:	48 8b 45 e8          	mov    -0x18(%rbp),%rax
  40418c:	48 8b 40 48          	mov    0x48(%rax),%rax
  404190:	48 83 c0 08          	add    $0x8,%rax
  404194:	48 8b 10             	mov    (%rax),%rdx
  404197:	48 8b 45 e8          	mov    -0x18(%rbp),%rax
  40419b:	48 89 d6             	mov    %rdx,%rsi
  40419e:	48 89 c7             	mov    %rax,%rdi
  4041a1:	e8 66 0b 00 00       	callq  404d0c <_ZNSt11_Deque_baseIPSt6vectorISsSaISsEESaIS3_EE18_M_deallocate_nodeEPS3_>
  4041a6:	e8 e5 e2 ff ff       	callq  402490 <__cxa_rethrow@plt>
  4041ab:	48 83 c4 18          	add    $0x18,%rsp
  4041af:	5b                   	pop    %rbx
  4041b0:	5d                   	pop    %rbp
  4041b1:	c3                   	retq   

00000000004041b2 <_ZSteqIPSt6vectorISsSaISsEERS3_PS3_EbRKSt15_Deque_iteratorIT_T0_T1_ESC_>:
  4041b2:	55                   	push   %rbp
  4041b3:	48 89 e5             	mov    %rsp,%rbp
  4041b6:	48 89 7d f8          	mov    %rdi,-0x8(%rbp)
  4041ba:	48 89 75 f0          	mov    %rsi,-0x10(%rbp)
  4041be:	48 8b 45 f8          	mov    -0x8(%rbp),%rax
  4041c2:	48 8b 10             	mov    (%rax),%rdx
  4041c5:	48 8b 45 f0          	mov    -0x10(%rbp),%rax
  4041c9:	48 8b 00             	mov    (%rax),%rax
  4041cc:	48 39 c2             	cmp    %rax,%rdx
  4041cf:	0f 94 c0             	sete   %al
  4041d2:	5d                   	pop    %rbp
  4041d3:	c3                   	retq   

00000000004041d4 <_ZNKSt15_Deque_iteratorIPSt6vectorISsSaISsEERS3_PS3_EdeEv>:
  4041d4:	55                   	push   %rbp
  4041d5:	48 89 e5             	mov    %rsp,%rbp
  4041d8:	48 89 7d f8          	mov    %rdi,-0x8(%rbp)
  4041dc:	48 8b 45 f8          	mov    -0x8(%rbp),%rax
  4041e0:	48 8b 00             	mov    (%rax),%rax
  4041e3:	5d                   	pop    %rbp
  4041e4:	c3                   	retq   
  4041e5:	90                   	nop

00000000004041e6 <_ZNKSt6vectorISsSaISsEE14_M_range_checkEm>:
  4041e6:	55                   	push   %rbp
  4041e7:	48 89 e5             	mov    %rsp,%rbp
  4041ea:	48 83 ec 10          	sub    $0x10,%rsp
  4041ee:	48 89 7d f8          	mov    %rdi,-0x8(%rbp)
  4041f2:	48 89 75 f0          	mov    %rsi,-0x10(%rbp)
  4041f6:	48 8b 45 f8          	mov    -0x8(%rbp),%rax
  4041fa:	48 89 c7             	mov    %rax,%rdi
  4041fd:	e8 8e f6 ff ff       	callq  403890 <_ZNKSt6vectorISsSaISsEE4sizeEv>
  404202:	48 3b 45 f0          	cmp    -0x10(%rbp),%rax
  404206:	0f 96 c0             	setbe  %al
  404209:	84 c0                	test   %al,%al
  40420b:	74 0a                	je     404217 <_ZNKSt6vectorISsSaISsEE14_M_range_checkEm+0x31>
  40420d:	bf 58 c3 40 00       	mov    $0x40c358,%edi
  404212:	e8 29 e3 ff ff       	callq  402540 <_ZSt20__throw_out_of_rangePKc@plt>
  404217:	c9                   	leaveq 
  404218:	c3                   	retq   
  404219:	90                   	nop

000000000040421a <_ZNKSt6vectorISsSaISsEE8capacityEv>:
  40421a:	55                   	push   %rbp
  40421b:	48 89 e5             	mov    %rsp,%rbp
  40421e:	48 89 7d f8          	mov    %rdi,-0x8(%rbp)
  404222:	48 8b 45 f8          	mov    -0x8(%rbp),%rax
  404226:	48 8b 40 10          	mov    0x10(%rax),%rax
  40422a:	48 89 c2             	mov    %rax,%rdx
  40422d:	48 8b 45 f8          	mov    -0x8(%rbp),%rax
  404231:	48 8b 00             	mov    (%rax),%rax
  404234:	48 29 c2             	sub    %rax,%rdx
  404237:	48 89 d0             	mov    %rdx,%rax
  40423a:	48 c1 f8 03          	sar    $0x3,%rax
  40423e:	5d                   	pop    %rbp
  40423f:	c3                   	retq   

0000000000404240 <_ZNSt6vectorISsSaISsEE20_M_allocate_and_copyIN9__gnu_cxx17__normal_iteratorIPKSsS1_EEEEPSsmT_S9_>:
  404240:	55                   	push   %rbp
  404241:	48 89 e5             	mov    %rsp,%rbp
  404244:	53                   	push   %rbx
  404245:	48 83 ec 48          	sub    $0x48,%rsp
  404249:	48 89 7d d8          	mov    %rdi,-0x28(%rbp)
  40424d:	48 89 75 d0          	mov    %rsi,-0x30(%rbp)
  404251:	48 89 55 c0          	mov    %rdx,-0x40(%rbp)
  404255:	48 89 4d b0          	mov    %rcx,-0x50(%rbp)
  404259:	48 8b 45 d8          	mov    -0x28(%rbp),%rax
  40425d:	48 8b 55 d0          	mov    -0x30(%rbp),%rdx
  404261:	48 89 d6             	mov    %rdx,%rsi
  404264:	48 89 c7             	mov    %rax,%rdi
  404267:	e8 d2 0a 00 00       	callq  404d3e <_ZNSt12_Vector_baseISsSaISsEE11_M_allocateEm>
  40426c:	48 89 45 e8          	mov    %rax,-0x18(%rbp)
  404270:	48 8b 45 d8          	mov    -0x28(%rbp),%rax
  404274:	48 89 c7             	mov    %rax,%rdi
  404277:	e8 b6 fa ff ff       	callq  403d32 <_ZNSt12_Vector_baseISsSaISsEE19_M_get_Tp_allocatorEv>
  40427c:	48 89 c1             	mov    %rax,%rcx
  40427f:	48 8b 55 e8          	mov    -0x18(%rbp),%rdx
  404283:	48 8b 75 b0          	mov    -0x50(%rbp),%rsi
  404287:	48 8b 45 c0          	mov    -0x40(%rbp),%rax
  40428b:	48 89 c7             	mov    %rax,%rdi
  40428e:	e8 b2 fb ff ff       	callq  403e45 <_ZSt22__uninitialized_copy_aIN9__gnu_cxx17__normal_iteratorIPKSsSt6vectorISsSaISsEEEEPSsSsET0_T_SA_S9_RSaIT1_E>
  404293:	48 8b 45 e8          	mov    -0x18(%rbp),%rax
  404297:	eb 37                	jmp    4042d0 <_ZNSt6vectorISsSaISsEE20_M_allocate_and_copyIN9__gnu_cxx17__normal_iteratorIPKSsS1_EEEEPSsmT_S9_+0x90>
  404299:	48 89 c3             	mov    %rax,%rbx
  40429c:	e8 6f e5 ff ff       	callq  402810 <__cxa_end_catch@plt>
  4042a1:	48 89 d8             	mov    %rbx,%rax
  4042a4:	48 89 c7             	mov    %rax,%rdi
  4042a7:	e8 24 e6 ff ff       	callq  4028d0 <_Unwind_Resume@plt>
  4042ac:	48 89 c7             	mov    %rax,%rdi
  4042af:	e8 9c e5 ff ff       	callq  402850 <__cxa_begin_catch@plt>
  4042b4:	48 8b 45 d8          	mov    -0x28(%rbp),%rax
  4042b8:	48 8b 55 d0          	mov    -0x30(%rbp),%rdx
  4042bc:	48 8b 4d e8          	mov    -0x18(%rbp),%rcx
  4042c0:	48 89 ce             	mov    %rcx,%rsi
  4042c3:	48 89 c7             	mov    %rax,%rdi
  4042c6:	e8 0d 00 00 00       	callq  4042d8 <_ZNSt12_Vector_baseISsSaISsEE13_M_deallocateEPSsm>
  4042cb:	e8 c0 e1 ff ff       	callq  402490 <__cxa_rethrow@plt>
  4042d0:	48 83 c4 48          	add    $0x48,%rsp
  4042d4:	5b                   	pop    %rbx
  4042d5:	5d                   	pop    %rbp
  4042d6:	c3                   	retq   
  4042d7:	90                   	nop

00000000004042d8 <_ZNSt12_Vector_baseISsSaISsEE13_M_deallocateEPSsm>:
  4042d8:	55                   	push   %rbp
  4042d9:	48 89 e5             	mov    %rsp,%rbp
  4042dc:	48 83 ec 20          	sub    $0x20,%rsp
  4042e0:	48 89 7d f8          	mov    %rdi,-0x8(%rbp)
  4042e4:	48 89 75 f0          	mov    %rsi,-0x10(%rbp)
  4042e8:	48 89 55 e8          	mov    %rdx,-0x18(%rbp)
  4042ec:	48 83 7d f0 00       	cmpq   $0x0,-0x10(%rbp)
  4042f1:	74 17                	je     40430a <_ZNSt12_Vector_baseISsSaISsEE13_M_deallocateEPSsm+0x32>
  4042f3:	48 8b 45 f8          	mov    -0x8(%rbp),%rax
  4042f7:	48 8b 55 e8          	mov    -0x18(%rbp),%rdx
  4042fb:	48 8b 4d f0          	mov    -0x10(%rbp),%rcx
  4042ff:	48 89 ce             	mov    %rcx,%rsi
  404302:	48 89 c7             	mov    %rax,%rdi
  404305:	e8 6c 0a 00 00       	callq  404d76 <_ZN9__gnu_cxx13new_allocatorISsE10deallocateEPSsm>
  40430a:	c9                   	leaveq 
  40430b:	c3                   	retq   

000000000040430c <_ZNSt6vectorISsSaISsEE5beginEv>:
  40430c:	55                   	push   %rbp
  40430d:	48 89 e5             	mov    %rsp,%rbp
  404310:	48 83 ec 20          	sub    $0x20,%rsp
  404314:	48 89 7d e8          	mov    %rdi,-0x18(%rbp)
  404318:	48 8b 55 e8          	mov    -0x18(%rbp),%rdx
  40431c:	48 8d 45 f0          	lea    -0x10(%rbp),%rax
  404320:	48 89 d6             	mov    %rdx,%rsi
  404323:	48 89 c7             	mov    %rax,%rdi
  404326:	e8 6d 0a 00 00       	callq  404d98 <_ZN9__gnu_cxx17__normal_iteratorIPSsSt6vectorISsSaISsEEEC1ERKS1_>
  40432b:	48 8b 45 f0          	mov    -0x10(%rbp),%rax
  40432f:	c9                   	leaveq 
  404330:	c3                   	retq   

0000000000404331 <_ZSt4copyIN9__gnu_cxx17__normal_iteratorIPKSsSt6vectorISsSaISsEEEENS1_IPSsS6_EEET0_T_SB_SA_>:
  404331:	55                   	push   %rbp
  404332:	48 89 e5             	mov    %rsp,%rbp
  404335:	53                   	push   %rbx
  404336:	48 83 ec 38          	sub    $0x38,%rsp
  40433a:	48 89 7d e0          	mov    %rdi,-0x20(%rbp)
  40433e:	48 89 75 d0          	mov    %rsi,-0x30(%rbp)
  404342:	48 89 55 c0          	mov    %rdx,-0x40(%rbp)
  404346:	48 8b 45 d0          	mov    -0x30(%rbp),%rax
  40434a:	48 89 c7             	mov    %rax,%rdi
  40434d:	e8 62 0a 00 00       	callq  404db4 <_ZSt12__miter_baseIN9__gnu_cxx17__normal_iteratorIPKSsSt6vectorISsSaISsEEEEENSt11_Miter_baseIT_E13iterator_typeES9_>
  404352:	48 89 c3             	mov    %rax,%rbx
  404355:	48 8b 45 e0          	mov    -0x20(%rbp),%rax
  404359:	48 89 c7             	mov    %rax,%rdi
  40435c:	e8 53 0a 00 00       	callq  404db4 <_ZSt12__miter_baseIN9__gnu_cxx17__normal_iteratorIPKSsSt6vectorISsSaISsEEEEENSt11_Miter_baseIT_E13iterator_typeES9_>
  404361:	48 8b 55 c0          	mov    -0x40(%rbp),%rdx
  404365:	48 89 de             	mov    %rbx,%rsi
  404368:	48 89 c7             	mov    %rax,%rdi
  40436b:	e8 5e 0a 00 00       	callq  404dce <_ZSt14__copy_move_a2ILb0EN9__gnu_cxx17__normal_iteratorIPKSsSt6vectorISsSaISsEEEENS1_IPSsS6_EEET1_T0_SB_SA_>
  404370:	48 83 c4 38          	add    $0x38,%rsp
  404374:	5b                   	pop    %rbx
  404375:	5d                   	pop    %rbp
  404376:	c3                   	retq   
  404377:	90                   	nop

0000000000404378 <_ZNSt6vectorISsSaISsEE3endEv>:
  404378:	55                   	push   %rbp
  404379:	48 89 e5             	mov    %rsp,%rbp
  40437c:	48 83 ec 20          	sub    $0x20,%rsp
  404380:	48 89 7d e8          	mov    %rdi,-0x18(%rbp)
  404384:	48 8b 45 e8          	mov    -0x18(%rbp),%rax
  404388:	48 8d 50 08          	lea    0x8(%rax),%rdx
  40438c:	48 8d 45 f0          	lea    -0x10(%rbp),%rax
  404390:	48 89 d6             	mov    %rdx,%rsi
  404393:	48 89 c7             	mov    %rax,%rdi
  404396:	e8 fd 09 00 00       	callq  404d98 <_ZN9__gnu_cxx17__normal_iteratorIPSsSt6vectorISsSaISsEEEC1ERKS1_>
  40439b:	48 8b 45 f0          	mov    -0x10(%rbp),%rax
  40439f:	c9                   	leaveq 
  4043a0:	c3                   	retq   

00000000004043a1 <_ZSt8_DestroyIN9__gnu_cxx17__normal_iteratorIPSsSt6vectorISsSaISsEEEESsEvT_S7_RSaIT0_E>:
  4043a1:	55                   	push   %rbp
  4043a2:	48 89 e5             	mov    %rsp,%rbp
  4043a5:	48 83 ec 20          	sub    $0x20,%rsp
  4043a9:	48 89 7d f0          	mov    %rdi,-0x10(%rbp)
  4043ad:	48 89 75 e0          	mov    %rsi,-0x20(%rbp)
  4043b1:	48 89 55 e8          	mov    %rdx,-0x18(%rbp)
  4043b5:	48 8b 55 e0          	mov    -0x20(%rbp),%rdx
  4043b9:	48 8b 45 f0          	mov    -0x10(%rbp),%rax
  4043bd:	48 89 d6             	mov    %rdx,%rsi
  4043c0:	48 89 c7             	mov    %rax,%rdi
  4043c3:	e8 79 0a 00 00       	callq  404e41 <_ZSt8_DestroyIN9__gnu_cxx17__normal_iteratorIPSsSt6vectorISsSaISsEEEEEvT_S7_>
  4043c8:	c9                   	leaveq 
  4043c9:	c3                   	retq   

00000000004043ca <_ZSt4copyIPSsS0_ET0_T_S2_S1_>:
  4043ca:	55                   	push   %rbp
  4043cb:	48 89 e5             	mov    %rsp,%rbp
  4043ce:	53                   	push   %rbx
  4043cf:	48 83 ec 28          	sub    $0x28,%rsp
  4043d3:	48 89 7d e8          	mov    %rdi,-0x18(%rbp)
  4043d7:	48 89 75 e0          	mov    %rsi,-0x20(%rbp)
  4043db:	48 89 55 d8          	mov    %rdx,-0x28(%rbp)
  4043df:	48 8b 45 e0          	mov    -0x20(%rbp),%rax
  4043e3:	48 89 c7             	mov    %rax,%rdi
  4043e6:	e8 7b 0a 00 00       	callq  404e66 <_ZSt12__miter_baseIPSsENSt11_Miter_baseIT_E13iterator_typeES2_>
  4043eb:	48 89 c3             	mov    %rax,%rbx
  4043ee:	48 8b 45 e8          	mov    -0x18(%rbp),%rax
  4043f2:	48 89 c7             	mov    %rax,%rdi
  4043f5:	e8 6c 0a 00 00       	callq  404e66 <_ZSt12__miter_baseIPSsENSt11_Miter_baseIT_E13iterator_typeES2_>
  4043fa:	48 8b 55 d8          	mov    -0x28(%rbp),%rdx
  4043fe:	48 89 de             	mov    %rbx,%rsi
  404401:	48 89 c7             	mov    %rax,%rdi
  404404:	e8 77 0a 00 00       	callq  404e80 <_ZSt14__copy_move_a2ILb0EPSsS0_ET1_T0_S2_S1_>
  404409:	48 83 c4 28          	add    $0x28,%rsp
  40440d:	5b                   	pop    %rbx
  40440e:	5d                   	pop    %rbp
  40440f:	c3                   	retq   

0000000000404410 <_ZSt22__uninitialized_copy_aIPSsS0_SsET0_T_S2_S1_RSaIT1_E>:
  404410:	55                   	push   %rbp
  404411:	48 89 e5             	mov    %rsp,%rbp
  404414:	48 83 ec 20          	sub    $0x20,%rsp
  404418:	48 89 7d f8          	mov    %rdi,-0x8(%rbp)
  40441c:	48 89 75 f0          	mov    %rsi,-0x10(%rbp)
  404420:	48 89 55 e8          	mov    %rdx,-0x18(%rbp)
  404424:	48 89 4d e0          	mov    %rcx,-0x20(%rbp)
  404428:	48 8b 55 e8          	mov    -0x18(%rbp),%rdx
  40442c:	48 8b 4d f0          	mov    -0x10(%rbp),%rcx
  404430:	48 8b 45 f8          	mov    -0x8(%rbp),%rax
  404434:	48 89 ce             	mov    %rcx,%rsi
  404437:	48 89 c7             	mov    %rax,%rdi
  40443a:	e8 99 0a 00 00       	callq  404ed8 <_ZSt18uninitialized_copyIPSsS0_ET0_T_S2_S1_>
  40443f:	c9                   	leaveq 
  404440:	c3                   	retq   

0000000000404441 <_ZN9__gnu_cxx14__alloc_traitsISaISsEE9constructISsEEvRS1_PSsRKT_>:
  404441:	55                   	push   %rbp
  404442:	48 89 e5             	mov    %rsp,%rbp
  404445:	48 83 ec 20          	sub    $0x20,%rsp
  404449:	48 89 7d f8          	mov    %rdi,-0x8(%rbp)
  40444d:	48 89 75 f0          	mov    %rsi,-0x10(%rbp)
  404451:	48 89 55 e8          	mov    %rdx,-0x18(%rbp)
  404455:	48 8b 55 e8          	mov    -0x18(%rbp),%rdx
  404459:	48 8b 4d f0          	mov    -0x10(%rbp),%rcx
  40445d:	48 8b 45 f8          	mov    -0x8(%rbp),%rax
  404461:	48 89 ce             	mov    %rcx,%rsi
  404464:	48 89 c7             	mov    %rax,%rdi
  404467:	e8 9a 0a 00 00       	callq  404f06 <_ZN9__gnu_cxx13new_allocatorISsE9constructEPSsRKSs>
  40446c:	c9                   	leaveq 
  40446d:	c3                   	retq   

000000000040446e <_ZNSt6vectorISsSaISsEE13_M_insert_auxEN9__gnu_cxx17__normal_iteratorIPSsS1_EERKSs>:
  40446e:	55                   	push   %rbp
  40446f:	48 89 e5             	mov    %rsp,%rbp
  404472:	41 54                	push   %r12
  404474:	53                   	push   %rbx
  404475:	48 83 ec 50          	sub    $0x50,%rsp
  404479:	48 89 7d b8          	mov    %rdi,-0x48(%rbp)
  40447d:	48 89 75 b0          	mov    %rsi,-0x50(%rbp)
  404481:	48 89 55 a8          	mov    %rdx,-0x58(%rbp)
  404485:	48 8b 45 b8          	mov    -0x48(%rbp),%rax
  404489:	48 8b 50 08          	mov    0x8(%rax),%rdx
  40448d:	48 8b 45 b8          	mov    -0x48(%rbp),%rax
  404491:	48 8b 40 10          	mov    0x10(%rax),%rax
  404495:	48 39 c2             	cmp    %rax,%rdx
  404498:	0f 84 ab 00 00 00    	je     404549 <_ZNSt6vectorISsSaISsEE13_M_insert_auxEN9__gnu_cxx17__normal_iteratorIPSsS1_EERKSs+0xdb>
  40449e:	48 8b 45 b8          	mov    -0x48(%rbp),%rax
  4044a2:	48 8b 40 08          	mov    0x8(%rax),%rax
  4044a6:	48 8d 50 f8          	lea    -0x8(%rax),%rdx
  4044aa:	48 8b 45 b8          	mov    -0x48(%rbp),%rax
  4044ae:	48 8b 48 08          	mov    0x8(%rax),%rcx
  4044b2:	48 8b 45 b8          	mov    -0x48(%rbp),%rax
  4044b6:	48 89 ce             	mov    %rcx,%rsi
  4044b9:	48 89 c7             	mov    %rax,%rdi
  4044bc:	e8 80 ff ff ff       	callq  404441 <_ZN9__gnu_cxx14__alloc_traitsISaISsEE9constructISsEEvRS1_PSsRKT_>
  4044c1:	48 8b 45 b8          	mov    -0x48(%rbp),%rax
  4044c5:	48 8b 40 08          	mov    0x8(%rax),%rax
  4044c9:	48 8d 50 08          	lea    0x8(%rax),%rdx
  4044cd:	48 8b 45 b8          	mov    -0x48(%rbp),%rax
  4044d1:	48 89 50 08          	mov    %rdx,0x8(%rax)
  4044d5:	48 8b 55 a8          	mov    -0x58(%rbp),%rdx
  4044d9:	48 8d 45 c0          	lea    -0x40(%rbp),%rax
  4044dd:	48 89 d6             	mov    %rdx,%rsi
  4044e0:	48 89 c7             	mov    %rax,%rdi
  4044e3:	e8 28 e0 ff ff       	callq  402510 <_ZNSsC1ERKSs@plt>
  4044e8:	48 8b 45 b8          	mov    -0x48(%rbp),%rax
  4044ec:	48 8b 40 08          	mov    0x8(%rax),%rax
  4044f0:	4c 8d 60 f8          	lea    -0x8(%rax),%r12
  4044f4:	48 8b 45 b8          	mov    -0x48(%rbp),%rax
  4044f8:	48 8b 40 08          	mov    0x8(%rax),%rax
  4044fc:	48 8d 58 f0          	lea    -0x10(%rax),%rbx
  404500:	48 8d 45 b0          	lea    -0x50(%rbp),%rax
  404504:	48 89 c7             	mov    %rax,%rdi
  404507:	e8 64 0a 00 00       	callq  404f70 <_ZNK9__gnu_cxx17__normal_iteratorIPSsSt6vectorISsSaISsEEE4baseEv>
  40450c:	48 8b 00             	mov    (%rax),%rax
  40450f:	4c 89 e2             	mov    %r12,%rdx
  404512:	48 89 de             	mov    %rbx,%rsi
  404515:	48 89 c7             	mov    %rax,%rdi
  404518:	e8 61 0a 00 00       	callq  404f7e <_ZSt13copy_backwardIPSsS0_ET0_T_S2_S1_>
  40451d:	48 8d 45 b0          	lea    -0x50(%rbp),%rax
  404521:	48 89 c7             	mov    %rax,%rdi
  404524:	e8 9b 0a 00 00       	callq  404fc4 <_ZNK9__gnu_cxx17__normal_iteratorIPSsSt6vectorISsSaISsEEEdeEv>
  404529:	48 8d 55 c0          	lea    -0x40(%rbp),%rdx
  40452d:	48 89 d6             	mov    %rdx,%rsi
  404530:	48 89 c7             	mov    %rax,%rdi
  404533:	e8 a8 e3 ff ff       	callq  4028e0 <_ZNSsaSERKSs@plt>
  404538:	48 8d 45 c0          	lea    -0x40(%rbp),%rax
  40453c:	48 89 c7             	mov    %rax,%rdi
  40453f:	e8 5c e0 ff ff       	callq  4025a0 <_ZNSsD1Ev@plt>
  404544:	e9 3b 02 00 00       	jmpq   404784 <_ZNSt6vectorISsSaISsEE13_M_insert_auxEN9__gnu_cxx17__normal_iteratorIPSsS1_EERKSs+0x316>
  404549:	48 8b 45 b8          	mov    -0x48(%rbp),%rax
  40454d:	ba 6f c3 40 00       	mov    $0x40c36f,%edx
  404552:	be 01 00 00 00       	mov    $0x1,%esi
  404557:	48 89 c7             	mov    %rax,%rdi
  40455a:	e8 77 0a 00 00       	callq  404fd6 <_ZNKSt6vectorISsSaISsEE12_M_check_lenEmPKc>
  40455f:	48 89 45 d8          	mov    %rax,-0x28(%rbp)
  404563:	48 8b 45 b8          	mov    -0x48(%rbp),%rax
  404567:	48 89 c7             	mov    %rax,%rdi
  40456a:	e8 9d fd ff ff       	callq  40430c <_ZNSt6vectorISsSaISsEE5beginEv>
  40456f:	48 89 45 c0          	mov    %rax,-0x40(%rbp)
  404573:	48 8d 55 c0          	lea    -0x40(%rbp),%rdx
  404577:	48 8d 45 b0          	lea    -0x50(%rbp),%rax
  40457b:	48 89 d6             	mov    %rdx,%rsi
  40457e:	48 89 c7             	mov    %rax,%rdi
  404581:	e8 19 0b 00 00       	callq  40509f <_ZN9__gnu_cxxmiIPSsSt6vectorISsSaISsEEEENS_17__normal_iteratorIT_T0_E15difference_typeERKS8_SB_>
  404586:	48 89 45 e0          	mov    %rax,-0x20(%rbp)
  40458a:	48 8b 45 b8          	mov    -0x48(%rbp),%rax
  40458e:	48 8b 55 d8          	mov    -0x28(%rbp),%rdx
  404592:	48 89 d6             	mov    %rdx,%rsi
  404595:	48 89 c7             	mov    %rax,%rdi
  404598:	e8 a1 07 00 00       	callq  404d3e <_ZNSt12_Vector_baseISsSaISsEE11_M_allocateEm>
  40459d:	48 89 45 e8          	mov    %rax,-0x18(%rbp)
  4045a1:	48 8b 45 e8          	mov    -0x18(%rbp),%rax
  4045a5:	48 89 45 d0          	mov    %rax,-0x30(%rbp)
  4045a9:	48 8b 45 e0          	mov    -0x20(%rbp),%rax
  4045ad:	48 8d 14 c5 00 00 00 	lea    0x0(,%rax,8),%rdx
  4045b4:	00 
  4045b5:	48 8b 45 e8          	mov    -0x18(%rbp),%rax
  4045b9:	48 8d 0c 02          	lea    (%rdx,%rax,1),%rcx
  4045bd:	48 8b 45 b8          	mov    -0x48(%rbp),%rax
  4045c1:	48 8b 55 a8          	mov    -0x58(%rbp),%rdx
  4045c5:	48 89 ce             	mov    %rcx,%rsi
  4045c8:	48 89 c7             	mov    %rax,%rdi
  4045cb:	e8 71 fe ff ff       	callq  404441 <_ZN9__gnu_cxx14__alloc_traitsISaISsEE9constructISsEEvRS1_PSsRKT_>
  4045d0:	48 c7 45 d0 00 00 00 	movq   $0x0,-0x30(%rbp)
  4045d7:	00 
  4045d8:	48 8b 45 b8          	mov    -0x48(%rbp),%rax
  4045dc:	48 89 c7             	mov    %rax,%rdi
  4045df:	e8 4e f7 ff ff       	callq  403d32 <_ZNSt12_Vector_baseISsSaISsEE19_M_get_Tp_allocatorEv>
  4045e4:	48 89 c3             	mov    %rax,%rbx
  4045e7:	48 8d 45 b0          	lea    -0x50(%rbp),%rax
  4045eb:	48 89 c7             	mov    %rax,%rdi
  4045ee:	e8 7d 09 00 00       	callq  404f70 <_ZNK9__gnu_cxx17__normal_iteratorIPSsSt6vectorISsSaISsEEE4baseEv>
  4045f3:	48 8b 30             	mov    (%rax),%rsi
  4045f6:	48 8b 45 b8          	mov    -0x48(%rbp),%rax
  4045fa:	48 8b 00             	mov    (%rax),%rax
  4045fd:	48 8b 55 e8          	mov    -0x18(%rbp),%rdx
  404601:	48 89 d9             	mov    %rbx,%rcx
  404604:	48 89 c7             	mov    %rax,%rdi
  404607:	e8 d6 0a 00 00       	callq  4050e2 <_ZSt34__uninitialized_move_if_noexcept_aIPSsS0_SaISsEET0_T_S3_S2_RT1_>
  40460c:	48 89 45 d0          	mov    %rax,-0x30(%rbp)
  404610:	48 83 45 d0 08       	addq   $0x8,-0x30(%rbp)
  404615:	48 8b 45 b8          	mov    -0x48(%rbp),%rax
  404619:	48 89 c7             	mov    %rax,%rdi
  40461c:	e8 11 f7 ff ff       	callq  403d32 <_ZNSt12_Vector_baseISsSaISsEE19_M_get_Tp_allocatorEv>
  404621:	49 89 c4             	mov    %rax,%r12
  404624:	48 8b 45 b8          	mov    -0x48(%rbp),%rax
  404628:	48 8b 58 08          	mov    0x8(%rax),%rbx
  40462c:	48 8d 45 b0          	lea    -0x50(%rbp),%rax
  404630:	48 89 c7             	mov    %rax,%rdi
  404633:	e8 38 09 00 00       	callq  404f70 <_ZNK9__gnu_cxx17__normal_iteratorIPSsSt6vectorISsSaISsEEE4baseEv>
  404638:	48 8b 00             	mov    (%rax),%rax
  40463b:	48 8b 55 d0          	mov    -0x30(%rbp),%rdx
  40463f:	4c 89 e1             	mov    %r12,%rcx
  404642:	48 89 de             	mov    %rbx,%rsi
  404645:	48 89 c7             	mov    %rax,%rdi
  404648:	e8 95 0a 00 00       	callq  4050e2 <_ZSt34__uninitialized_move_if_noexcept_aIPSsS0_SaISsEET0_T_S3_S2_RT1_>
  40464d:	48 89 45 d0          	mov    %rax,-0x30(%rbp)
  404651:	48 8b 45 b8          	mov    -0x48(%rbp),%rax
  404655:	48 89 c7             	mov    %rax,%rdi
  404658:	e8 d5 f6 ff ff       	callq  403d32 <_ZNSt12_Vector_baseISsSaISsEE19_M_get_Tp_allocatorEv>
  40465d:	48 89 c2             	mov    %rax,%rdx
  404660:	48 8b 45 b8          	mov    -0x48(%rbp),%rax
  404664:	48 8b 48 08          	mov    0x8(%rax),%rcx
  404668:	48 8b 45 b8          	mov    -0x48(%rbp),%rax
  40466c:	48 8b 00             	mov    (%rax),%rax
  40466f:	48 89 ce             	mov    %rcx,%rsi
  404672:	48 89 c7             	mov    %rax,%rdi
  404675:	e8 c6 f6 ff ff       	callq  403d40 <_ZSt8_DestroyIPSsSsEvT_S1_RSaIT0_E>
  40467a:	48 8b 45 b8          	mov    -0x48(%rbp),%rax
  40467e:	48 8b 40 10          	mov    0x10(%rax),%rax
  404682:	48 89 c2             	mov    %rax,%rdx
  404685:	48 8b 45 b8          	mov    -0x48(%rbp),%rax
  404689:	48 8b 00             	mov    (%rax),%rax
  40468c:	48 29 c2             	sub    %rax,%rdx
  40468f:	48 89 d0             	mov    %rdx,%rax
  404692:	48 c1 f8 03          	sar    $0x3,%rax
  404696:	48 89 c2             	mov    %rax,%rdx
  404699:	48 8b 45 b8          	mov    -0x48(%rbp),%rax
  40469d:	48 8b 08             	mov    (%rax),%rcx
  4046a0:	48 8b 45 b8          	mov    -0x48(%rbp),%rax
  4046a4:	48 89 ce             	mov    %rcx,%rsi
  4046a7:	48 89 c7             	mov    %rax,%rdi
  4046aa:	e8 29 fc ff ff       	callq  4042d8 <_ZNSt12_Vector_baseISsSaISsEE13_M_deallocateEPSsm>
  4046af:	48 8b 45 b8          	mov    -0x48(%rbp),%rax
  4046b3:	48 8b 55 e8          	mov    -0x18(%rbp),%rdx
  4046b7:	48 89 10             	mov    %rdx,(%rax)
  4046ba:	48 8b 45 b8          	mov    -0x48(%rbp),%rax
  4046be:	48 8b 55 d0          	mov    -0x30(%rbp),%rdx
  4046c2:	48 89 50 08          	mov    %rdx,0x8(%rax)
  4046c6:	48 8b 45 d8          	mov    -0x28(%rbp),%rax
  4046ca:	48 8d 14 c5 00 00 00 	lea    0x0(,%rax,8),%rdx
  4046d1:	00 
  4046d2:	48 8b 45 e8          	mov    -0x18(%rbp),%rax
  4046d6:	48 01 c2             	add    %rax,%rdx
  4046d9:	48 8b 45 b8          	mov    -0x48(%rbp),%rax
  4046dd:	48 89 50 10          	mov    %rdx,0x10(%rax)
  4046e1:	e9 9e 00 00 00       	jmpq   404784 <_ZNSt6vectorISsSaISsEE13_M_insert_auxEN9__gnu_cxx17__normal_iteratorIPSsS1_EERKSs+0x316>
  4046e6:	48 89 c3             	mov    %rax,%rbx
  4046e9:	48 8d 45 c0          	lea    -0x40(%rbp),%rax
  4046ed:	48 89 c7             	mov    %rax,%rdi
  4046f0:	e8 ab de ff ff       	callq  4025a0 <_ZNSsD1Ev@plt>
  4046f5:	48 89 d8             	mov    %rbx,%rax
  4046f8:	48 89 c7             	mov    %rax,%rdi
  4046fb:	e8 d0 e1 ff ff       	callq  4028d0 <_Unwind_Resume@plt>
  404700:	48 89 c3             	mov    %rax,%rbx
  404703:	e8 08 e1 ff ff       	callq  402810 <__cxa_end_catch@plt>
  404708:	48 89 d8             	mov    %rbx,%rax
  40470b:	48 89 c7             	mov    %rax,%rdi
  40470e:	e8 bd e1 ff ff       	callq  4028d0 <_Unwind_Resume@plt>
  404713:	48 89 c7             	mov    %rax,%rdi
  404716:	e8 35 e1 ff ff       	callq  402850 <__cxa_begin_catch@plt>
  40471b:	48 83 7d d0 00       	cmpq   $0x0,-0x30(%rbp)
  404720:	75 24                	jne    404746 <_ZNSt6vectorISsSaISsEE13_M_insert_auxEN9__gnu_cxx17__normal_iteratorIPSsS1_EERKSs+0x2d8>
  404722:	48 8b 45 e0          	mov    -0x20(%rbp),%rax
  404726:	48 8d 14 c5 00 00 00 	lea    0x0(,%rax,8),%rdx
  40472d:	00 
  40472e:	48 8b 45 e8          	mov    -0x18(%rbp),%rax
  404732:	48 01 c2             	add    %rax,%rdx
  404735:	48 8b 45 b8          	mov    -0x48(%rbp),%rax
  404739:	48 89 d6             	mov    %rdx,%rsi
  40473c:	48 89 c7             	mov    %rax,%rdi
  40473f:	e8 d0 09 00 00       	callq  405114 <_ZN9__gnu_cxx14__alloc_traitsISaISsEE7destroyERS1_PSs>
  404744:	eb 22                	jmp    404768 <_ZNSt6vectorISsSaISsEE13_M_insert_auxEN9__gnu_cxx17__normal_iteratorIPSsS1_EERKSs+0x2fa>
  404746:	48 8b 45 b8          	mov    -0x48(%rbp),%rax
  40474a:	48 89 c7             	mov    %rax,%rdi
  40474d:	e8 e0 f5 ff ff       	callq  403d32 <_ZNSt12_Vector_baseISsSaISsEE19_M_get_Tp_allocatorEv>
  404752:	48 89 c2             	mov    %rax,%rdx
  404755:	48 8b 4d d0          	mov    -0x30(%rbp),%rcx
  404759:	48 8b 45 e8          	mov    -0x18(%rbp),%rax
  40475d:	48 89 ce             	mov    %rcx,%rsi
  404760:	48 89 c7             	mov    %rax,%rdi
  404763:	e8 d8 f5 ff ff       	callq  403d40 <_ZSt8_DestroyIPSsSsEvT_S1_RSaIT0_E>
  404768:	48 8b 45 b8          	mov    -0x48(%rbp),%rax
  40476c:	48 8b 55 d8          	mov    -0x28(%rbp),%rdx
  404770:	48 8b 4d e8          	mov    -0x18(%rbp),%rcx
  404774:	48 89 ce             	mov    %rcx,%rsi
  404777:	48 89 c7             	mov    %rax,%rdi
  40477a:	e8 59 fb ff ff       	callq  4042d8 <_ZNSt12_Vector_baseISsSaISsEE13_M_deallocateEPSsm>
  40477f:	e8 0c dd ff ff       	callq  402490 <__cxa_rethrow@plt>
  404784:	48 83 c4 50          	add    $0x50,%rsp
  404788:	5b                   	pop    %rbx
  404789:	41 5c                	pop    %r12
  40478b:	5d                   	pop    %rbp
  40478c:	c3                   	retq   
  40478d:	90                   	nop

000000000040478e <_ZN9__gnu_cxx13new_allocatorIPSt6vectorISsSaISsEEE7destroyEPS4_>:
  40478e:	55                   	push   %rbp
  40478f:	48 89 e5             	mov    %rsp,%rbp
  404792:	48 89 7d f8          	mov    %rdi,-0x8(%rbp)
  404796:	48 89 75 f0          	mov    %rsi,-0x10(%rbp)
  40479a:	5d                   	pop    %rbp
  40479b:	c3                   	retq   

000000000040479c <_ZNSt5dequeIPSt6vectorISsSaISsEESaIS3_EE16_M_pop_front_auxEv>:
  40479c:	55                   	push   %rbp
  40479d:	48 89 e5             	mov    %rsp,%rbp
  4047a0:	48 83 ec 10          	sub    $0x10,%rsp
  4047a4:	48 89 7d f8          	mov    %rdi,-0x8(%rbp)
  4047a8:	48 8b 45 f8          	mov    -0x8(%rbp),%rax
  4047ac:	48 8b 50 10          	mov    0x10(%rax),%rdx
  4047b0:	48 8b 45 f8          	mov    -0x8(%rbp),%rax
  4047b4:	48 89 d6             	mov    %rdx,%rsi
  4047b7:	48 89 c7             	mov    %rax,%rdi
  4047ba:	e8 cf ff ff ff       	callq  40478e <_ZN9__gnu_cxx13new_allocatorIPSt6vectorISsSaISsEEE7destroyEPS4_>
  4047bf:	48 8b 45 f8          	mov    -0x8(%rbp),%rax
  4047c3:	48 8b 50 18          	mov    0x18(%rax),%rdx
  4047c7:	48 8b 45 f8          	mov    -0x8(%rbp),%rax
  4047cb:	48 89 d6             	mov    %rdx,%rsi
  4047ce:	48 89 c7             	mov    %rax,%rdi
  4047d1:	e8 36 05 00 00       	callq  404d0c <_ZNSt11_Deque_baseIPSt6vectorISsSaISsEESaIS3_EE18_M_deallocate_nodeEPS3_>
  4047d6:	48 8b 45 f8          	mov    -0x8(%rbp),%rax
  4047da:	48 8b 40 28          	mov    0x28(%rax),%rax
  4047de:	48 8d 50 08          	lea    0x8(%rax),%rdx
  4047e2:	48 8b 45 f8          	mov    -0x8(%rbp),%rax
  4047e6:	48 83 c0 10          	add    $0x10,%rax
  4047ea:	48 89 d6             	mov    %rdx,%rsi
  4047ed:	48 89 c7             	mov    %rax,%rdi
  4047f0:	e8 c7 04 00 00       	callq  404cbc <_ZNSt15_Deque_iteratorIPSt6vectorISsSaISsEERS3_PS3_E11_M_set_nodeEPS5_>
  4047f5:	48 8b 45 f8          	mov    -0x8(%rbp),%rax
  4047f9:	48 8b 50 18          	mov    0x18(%rax),%rdx
  4047fd:	48 8b 45 f8          	mov    -0x8(%rbp),%rax
  404801:	48 89 50 10          	mov    %rdx,0x10(%rax)
  404805:	c9                   	leaveq 
  404806:	c3                   	retq   

0000000000404807 <_ZSt8_DestroyIPSsEvT_S1_>:
  404807:	55                   	push   %rbp
  404808:	48 89 e5             	mov    %rsp,%rbp
  40480b:	48 83 ec 10          	sub    $0x10,%rsp
  40480f:	48 89 7d f8          	mov    %rdi,-0x8(%rbp)
  404813:	48 89 75 f0          	mov    %rsi,-0x10(%rbp)
  404817:	48 8b 55 f0          	mov    -0x10(%rbp),%rdx
  40481b:	48 8b 45 f8          	mov    -0x8(%rbp),%rax
  40481f:	48 89 d6             	mov    %rdx,%rsi
  404822:	48 89 c7             	mov    %rax,%rdi
  404825:	e8 0f 09 00 00       	callq  405139 <_ZNSt12_Destroy_auxILb0EE9__destroyIPSsEEvT_S3_>
  40482a:	c9                   	leaveq 
  40482b:	c3                   	retq   

000000000040482c <_ZNSt12_Vector_baseISsSaISsEE12_Vector_implC1ERKS0_>:
  40482c:	55                   	push   %rbp
  40482d:	48 89 e5             	mov    %rsp,%rbp
  404830:	48 83 ec 10          	sub    $0x10,%rsp
  404834:	48 89 7d f8          	mov    %rdi,-0x8(%rbp)
  404838:	48 89 75 f0          	mov    %rsi,-0x10(%rbp)
  40483c:	48 8b 55 f0          	mov    -0x10(%rbp),%rdx
  404840:	48 8b 45 f8          	mov    -0x8(%rbp),%rax
  404844:	48 89 d6             	mov    %rdx,%rsi
  404847:	48 89 c7             	mov    %rax,%rdi
  40484a:	e8 21 09 00 00       	callq  405170 <_ZNSaISsEC1ERKS_>
  40484f:	48 8b 45 f8          	mov    -0x8(%rbp),%rax
  404853:	48 c7 00 00 00 00 00 	movq   $0x0,(%rax)
  40485a:	48 8b 45 f8          	mov    -0x8(%rbp),%rax
  40485e:	48 c7 40 08 00 00 00 	movq   $0x0,0x8(%rax)
  404865:	00 
  404866:	48 8b 45 f8          	mov    -0x8(%rbp),%rax
  40486a:	48 c7 40 10 00 00 00 	movq   $0x0,0x10(%rax)
  404871:	00 
  404872:	c9                   	leaveq 
  404873:	c3                   	retq   

0000000000404874 <_ZNSt12_Vector_baseISsSaISsEE17_M_create_storageEm>:
  404874:	55                   	push   %rbp
  404875:	48 89 e5             	mov    %rsp,%rbp
  404878:	48 83 ec 10          	sub    $0x10,%rsp
  40487c:	48 89 7d f8          	mov    %rdi,-0x8(%rbp)
  404880:	48 89 75 f0          	mov    %rsi,-0x10(%rbp)
  404884:	48 8b 55 f0          	mov    -0x10(%rbp),%rdx
  404888:	48 8b 45 f8          	mov    -0x8(%rbp),%rax
  40488c:	48 89 d6             	mov    %rdx,%rsi
  40488f:	48 89 c7             	mov    %rax,%rdi
  404892:	e8 a7 04 00 00       	callq  404d3e <_ZNSt12_Vector_baseISsSaISsEE11_M_allocateEm>
  404897:	48 8b 55 f8          	mov    -0x8(%rbp),%rdx
  40489b:	48 89 02             	mov    %rax,(%rdx)
  40489e:	48 8b 45 f8          	mov    -0x8(%rbp),%rax
  4048a2:	48 8b 10             	mov    (%rax),%rdx
  4048a5:	48 8b 45 f8          	mov    -0x8(%rbp),%rax
  4048a9:	48 89 50 08          	mov    %rdx,0x8(%rax)
  4048ad:	48 8b 45 f8          	mov    -0x8(%rbp),%rax
  4048b1:	48 8b 00             	mov    (%rax),%rax
  4048b4:	48 8b 55 f0          	mov    -0x10(%rbp),%rdx
  4048b8:	48 c1 e2 03          	shl    $0x3,%rdx
  4048bc:	48 01 c2             	add    %rax,%rdx
  4048bf:	48 8b 45 f8          	mov    -0x8(%rbp),%rax
  4048c3:	48 89 50 10          	mov    %rdx,0x10(%rax)
  4048c7:	c9                   	leaveq 
  4048c8:	c3                   	retq   
  4048c9:	90                   	nop

00000000004048ca <_ZN9__gnu_cxx17__normal_iteratorIPKSsSt6vectorISsSaISsEEEC1ERKS2_>:
  4048ca:	55                   	push   %rbp
  4048cb:	48 89 e5             	mov    %rsp,%rbp
  4048ce:	48 89 7d f8          	mov    %rdi,-0x8(%rbp)
  4048d2:	48 89 75 f0          	mov    %rsi,-0x10(%rbp)
  4048d6:	48 8b 45 f0          	mov    -0x10(%rbp),%rax
  4048da:	48 8b 10             	mov    (%rax),%rdx
  4048dd:	48 8b 45 f8          	mov    -0x8(%rbp),%rax
  4048e1:	48 89 10             	mov    %rdx,(%rax)
  4048e4:	5d                   	pop    %rbp
  4048e5:	c3                   	retq   

00000000004048e6 <_ZSt18uninitialized_copyIN9__gnu_cxx17__normal_iteratorIPKSsSt6vectorISsSaISsEEEEPSsET0_T_SA_S9_>:
  4048e6:	55                   	push   %rbp
  4048e7:	48 89 e5             	mov    %rsp,%rbp
  4048ea:	48 83 ec 20          	sub    $0x20,%rsp
  4048ee:	48 89 7d f0          	mov    %rdi,-0x10(%rbp)
  4048f2:	48 89 75 e0          	mov    %rsi,-0x20(%rbp)
  4048f6:	48 89 55 e8          	mov    %rdx,-0x18(%rbp)
  4048fa:	48 8b 55 e8          	mov    -0x18(%rbp),%rdx
  4048fe:	48 8b 4d e0          	mov    -0x20(%rbp),%rcx
  404902:	48 8b 45 f0          	mov    -0x10(%rbp),%rax
  404906:	48 89 ce             	mov    %rcx,%rsi
  404909:	48 89 c7             	mov    %rax,%rdi
  40490c:	e8 84 08 00 00       	callq  405195 <_ZNSt20__uninitialized_copyILb0EE13__uninit_copyIN9__gnu_cxx17__normal_iteratorIPKSsSt6vectorISsSaISsEEEEPSsEET0_T_SC_SB_>
  404911:	c9                   	leaveq 
  404912:	c3                   	retq   
  404913:	90                   	nop

0000000000404914 <_ZNSt11_Deque_baseIPSt6vectorISsSaISsEESaIS3_EE11_Deque_implC1Ev>:
  404914:	55                   	push   %rbp
  404915:	48 89 e5             	mov    %rsp,%rbp
  404918:	48 83 ec 10          	sub    $0x10,%rsp
  40491c:	48 89 7d f8          	mov    %rdi,-0x8(%rbp)
  404920:	48 8b 45 f8          	mov    -0x8(%rbp),%rax
  404924:	48 89 c7             	mov    %rax,%rdi
  404927:	e8 16 09 00 00       	callq  405242 <_ZNSaIPSt6vectorISsSaISsEEEC1Ev>
  40492c:	48 8b 45 f8          	mov    -0x8(%rbp),%rax
  404930:	48 c7 00 00 00 00 00 	movq   $0x0,(%rax)
  404937:	48 8b 45 f8          	mov    -0x8(%rbp),%rax
  40493b:	48 c7 40 08 00 00 00 	movq   $0x0,0x8(%rax)
  404942:	00 
  404943:	48 8b 45 f8          	mov    -0x8(%rbp),%rax
  404947:	48 83 c0 10          	add    $0x10,%rax
  40494b:	48 89 c7             	mov    %rax,%rdi
  40494e:	e8 09 09 00 00       	callq  40525c <_ZNSt15_Deque_iteratorIPSt6vectorISsSaISsEERS3_PS3_EC1Ev>
  404953:	48 8b 45 f8          	mov    -0x8(%rbp),%rax
  404957:	48 83 c0 30          	add    $0x30,%rax
  40495b:	48 89 c7             	mov    %rax,%rdi
  40495e:	e8 f9 08 00 00       	callq  40525c <_ZNSt15_Deque_iteratorIPSt6vectorISsSaISsEERS3_PS3_EC1Ev>
  404963:	c9                   	leaveq 
  404964:	c3                   	retq   
  404965:	90                   	nop

0000000000404966 <_ZNSaIPSt6vectorISsSaISsEEED1Ev>:
  404966:	55                   	push   %rbp
  404967:	48 89 e5             	mov    %rsp,%rbp
  40496a:	48 83 ec 10          	sub    $0x10,%rsp
  40496e:	48 89 7d f8          	mov    %rdi,-0x8(%rbp)
  404972:	48 8b 45 f8          	mov    -0x8(%rbp),%rax
  404976:	48 89 c7             	mov    %rax,%rdi
  404979:	e8 18 09 00 00       	callq  405296 <_ZN9__gnu_cxx13new_allocatorIPSt6vectorISsSaISsEEED1Ev>
  40497e:	c9                   	leaveq 
  40497f:	c3                   	retq   

0000000000404980 <_ZNSt11_Deque_baseIPSt6vectorISsSaISsEESaIS3_EE17_M_initialize_mapEm>:
  404980:	55                   	push   %rbp
  404981:	48 89 e5             	mov    %rsp,%rbp
  404984:	53                   	push   %rbx
  404985:	48 83 ec 48          	sub    $0x48,%rsp
  404989:	48 89 7d b8          	mov    %rdi,-0x48(%rbp)
  40498d:	48 89 75 b0          	mov    %rsi,-0x50(%rbp)
  404991:	bf 08 00 00 00       	mov    $0x8,%edi
  404996:	e8 5c eb ff ff       	callq  4034f7 <_ZSt16__deque_buf_sizem>
  40499b:	48 89 c3             	mov    %rax,%rbx
  40499e:	48 8b 45 b0          	mov    -0x50(%rbp),%rax
  4049a2:	ba 00 00 00 00       	mov    $0x0,%edx
  4049a7:	48 f7 f3             	div    %rbx
  4049aa:	48 83 c0 01          	add    $0x1,%rax
  4049ae:	48 89 45 d8          	mov    %rax,-0x28(%rbp)
  4049b2:	48 8b 45 d8          	mov    -0x28(%rbp),%rax
  4049b6:	48 83 c0 02          	add    $0x2,%rax
  4049ba:	48 89 45 d0          	mov    %rax,-0x30(%rbp)
  4049be:	48 c7 45 c8 08 00 00 	movq   $0x8,-0x38(%rbp)
  4049c5:	00 
  4049c6:	48 8d 55 d0          	lea    -0x30(%rbp),%rdx
  4049ca:	48 8d 45 c8          	lea    -0x38(%rbp),%rax
  4049ce:	48 89 d6             	mov    %rdx,%rsi
  4049d1:	48 89 c7             	mov    %rax,%rdi
  4049d4:	e8 c7 08 00 00       	callq  4052a0 <_ZSt3maxImERKT_S2_S2_>
  4049d9:	48 8b 10             	mov    (%rax),%rdx
  4049dc:	48 8b 45 b8          	mov    -0x48(%rbp),%rax
  4049e0:	48 89 50 08          	mov    %rdx,0x8(%rax)
  4049e4:	48 8b 45 b8          	mov    -0x48(%rbp),%rax
  4049e8:	48 8b 50 08          	mov    0x8(%rax),%rdx
  4049ec:	48 8b 45 b8          	mov    -0x48(%rbp),%rax
  4049f0:	48 89 d6             	mov    %rdx,%rsi
  4049f3:	48 89 c7             	mov    %rax,%rdi
  4049f6:	e8 d1 08 00 00       	callq  4052cc <_ZNSt11_Deque_baseIPSt6vectorISsSaISsEESaIS3_EE15_M_allocate_mapEm>
  4049fb:	48 8b 55 b8          	mov    -0x48(%rbp),%rdx
  4049ff:	48 89 02             	mov    %rax,(%rdx)
  404a02:	48 8b 45 b8          	mov    -0x48(%rbp),%rax
  404a06:	48 8b 10             	mov    (%rax),%rdx
  404a09:	48 8b 45 b8          	mov    -0x48(%rbp),%rax
  404a0d:	48 8b 40 08          	mov    0x8(%rax),%rax
  404a11:	48 2b 45 d8          	sub    -0x28(%rbp),%rax
  404a15:	48 d1 e8             	shr    %rax
  404a18:	48 c1 e0 03          	shl    $0x3,%rax
  404a1c:	48 01 d0             	add    %rdx,%rax
  404a1f:	48 89 45 e0          	mov    %rax,-0x20(%rbp)
  404a23:	48 8b 45 d8          	mov    -0x28(%rbp),%rax
  404a27:	48 8d 14 c5 00 00 00 	lea    0x0(,%rax,8),%rdx
  404a2e:	00 
  404a2f:	48 8b 45 e0          	mov    -0x20(%rbp),%rax
  404a33:	48 01 d0             	add    %rdx,%rax
  404a36:	48 89 45 e8          	mov    %rax,-0x18(%rbp)
  404a3a:	48 8b 55 e8          	mov    -0x18(%rbp),%rdx
  404a3e:	48 8b 4d e0          	mov    -0x20(%rbp),%rcx
  404a42:	48 8b 45 b8          	mov    -0x48(%rbp),%rax
  404a46:	48 89 ce             	mov    %rcx,%rsi
  404a49:	48 89 c7             	mov    %rax,%rdi
  404a4c:	e8 ed 08 00 00       	callq  40533e <_ZNSt11_Deque_baseIPSt6vectorISsSaISsEESaIS3_EE15_M_create_nodesEPPS3_S7_>
  404a51:	48 8b 45 b8          	mov    -0x48(%rbp),%rax
  404a55:	48 8d 50 10          	lea    0x10(%rax),%rdx
  404a59:	48 8b 45 e0          	mov    -0x20(%rbp),%rax
  404a5d:	48 89 c6             	mov    %rax,%rsi
  404a60:	48 89 d7             	mov    %rdx,%rdi
  404a63:	e8 54 02 00 00       	callq  404cbc <_ZNSt15_Deque_iteratorIPSt6vectorISsSaISsEERS3_PS3_E11_M_set_nodeEPS5_>
  404a68:	48 8b 45 e8          	mov    -0x18(%rbp),%rax
  404a6c:	48 8d 50 f8          	lea    -0x8(%rax),%rdx
  404a70:	48 8b 45 b8          	mov    -0x48(%rbp),%rax
  404a74:	48 83 c0 30          	add    $0x30,%rax
  404a78:	48 89 d6             	mov    %rdx,%rsi
  404a7b:	48 89 c7             	mov    %rax,%rdi
  404a7e:	e8 39 02 00 00       	callq  404cbc <_ZNSt15_Deque_iteratorIPSt6vectorISsSaISsEERS3_PS3_E11_M_set_nodeEPS5_>
  404a83:	48 8b 45 b8          	mov    -0x48(%rbp),%rax
  404a87:	48 8b 50 18          	mov    0x18(%rax),%rdx
  404a8b:	48 8b 45 b8          	mov    -0x48(%rbp),%rax
  404a8f:	48 89 50 10          	mov    %rdx,0x10(%rax)
  404a93:	48 8b 45 b8          	mov    -0x48(%rbp),%rax
  404a97:	48 8b 58 38          	mov    0x38(%rax),%rbx
  404a9b:	bf 08 00 00 00       	mov    $0x8,%edi
  404aa0:	e8 52 ea ff ff       	callq  4034f7 <_ZSt16__deque_buf_sizem>
  404aa5:	48 89 c1             	mov    %rax,%rcx
  404aa8:	48 8b 45 b0          	mov    -0x50(%rbp),%rax
  404aac:	ba 00 00 00 00       	mov    $0x0,%edx
  404ab1:	48 f7 f1             	div    %rcx
  404ab4:	48 89 d1             	mov    %rdx,%rcx
  404ab7:	48 89 c8             	mov    %rcx,%rax
  404aba:	48 c1 e0 03          	shl    $0x3,%rax
  404abe:	48 8d 14 03          	lea    (%rbx,%rax,1),%rdx
  404ac2:	48 8b 45 b8          	mov    -0x48(%rbp),%rax
  404ac6:	48 89 50 30          	mov    %rdx,0x30(%rax)
  404aca:	eb 55                	jmp    404b21 <_ZNSt11_Deque_baseIPSt6vectorISsSaISsEESaIS3_EE17_M_initialize_mapEm+0x1a1>
  404acc:	48 89 c3             	mov    %rax,%rbx
  404acf:	e8 3c dd ff ff       	callq  402810 <__cxa_end_catch@plt>
  404ad4:	48 89 d8             	mov    %rbx,%rax
  404ad7:	48 89 c7             	mov    %rax,%rdi
  404ada:	e8 f1 dd ff ff       	callq  4028d0 <_Unwind_Resume@plt>
  404adf:	48 89 c7             	mov    %rax,%rdi
  404ae2:	e8 69 dd ff ff       	callq  402850 <__cxa_begin_catch@plt>
  404ae7:	48 8b 45 b8          	mov    -0x48(%rbp),%rax
  404aeb:	48 8b 50 08          	mov    0x8(%rax),%rdx
  404aef:	48 8b 45 b8          	mov    -0x48(%rbp),%rax
  404af3:	48 8b 08             	mov    (%rax),%rcx
  404af6:	48 8b 45 b8          	mov    -0x48(%rbp),%rax
  404afa:	48 89 ce             	mov    %rcx,%rsi
  404afd:	48 89 c7             	mov    %rax,%rdi
  404b00:	e8 69 00 00 00       	callq  404b6e <_ZNSt11_Deque_baseIPSt6vectorISsSaISsEESaIS3_EE17_M_deallocate_mapEPPS3_m>
  404b05:	48 8b 45 b8          	mov    -0x48(%rbp),%rax
  404b09:	48 c7 00 00 00 00 00 	movq   $0x0,(%rax)
  404b10:	48 8b 45 b8          	mov    -0x48(%rbp),%rax
  404b14:	48 c7 40 08 00 00 00 	movq   $0x0,0x8(%rax)
  404b1b:	00 
  404b1c:	e8 6f d9 ff ff       	callq  402490 <__cxa_rethrow@plt>
  404b21:	48 83 c4 48          	add    $0x48,%rsp
  404b25:	5b                   	pop    %rbx
  404b26:	5d                   	pop    %rbp
  404b27:	c3                   	retq   

0000000000404b28 <_ZNSt11_Deque_baseIPSt6vectorISsSaISsEESaIS3_EE16_M_destroy_nodesEPPS3_S7_>:
  404b28:	55                   	push   %rbp
  404b29:	48 89 e5             	mov    %rsp,%rbp
  404b2c:	48 83 ec 30          	sub    $0x30,%rsp
  404b30:	48 89 7d e8          	mov    %rdi,-0x18(%rbp)
  404b34:	48 89 75 e0          	mov    %rsi,-0x20(%rbp)
  404b38:	48 89 55 d8          	mov    %rdx,-0x28(%rbp)
  404b3c:	48 8b 45 e0          	mov    -0x20(%rbp),%rax
  404b40:	48 89 45 f8          	mov    %rax,-0x8(%rbp)
  404b44:	eb 1b                	jmp    404b61 <_ZNSt11_Deque_baseIPSt6vectorISsSaISsEESaIS3_EE16_M_destroy_nodesEPPS3_S7_+0x39>
  404b46:	48 8b 45 f8          	mov    -0x8(%rbp),%rax
  404b4a:	48 8b 10             	mov    (%rax),%rdx
  404b4d:	48 8b 45 e8          	mov    -0x18(%rbp),%rax
  404b51:	48 89 d6             	mov    %rdx,%rsi
  404b54:	48 89 c7             	mov    %rax,%rdi
  404b57:	e8 b0 01 00 00       	callq  404d0c <_ZNSt11_Deque_baseIPSt6vectorISsSaISsEESaIS3_EE18_M_deallocate_nodeEPS3_>
  404b5c:	48 83 45 f8 08       	addq   $0x8,-0x8(%rbp)
  404b61:	48 8b 45 f8          	mov    -0x8(%rbp),%rax
  404b65:	48 3b 45 d8          	cmp    -0x28(%rbp),%rax
  404b69:	72 db                	jb     404b46 <_ZNSt11_Deque_baseIPSt6vectorISsSaISsEESaIS3_EE16_M_destroy_nodesEPPS3_S7_+0x1e>
  404b6b:	c9                   	leaveq 
  404b6c:	c3                   	retq   
  404b6d:	90                   	nop

0000000000404b6e <_ZNSt11_Deque_baseIPSt6vectorISsSaISsEESaIS3_EE17_M_deallocate_mapEPPS3_m>:
  404b6e:	55                   	push   %rbp
  404b6f:	48 89 e5             	mov    %rsp,%rbp
  404b72:	48 83 ec 30          	sub    $0x30,%rsp
  404b76:	48 89 7d e8          	mov    %rdi,-0x18(%rbp)
  404b7a:	48 89 75 e0          	mov    %rsi,-0x20(%rbp)
  404b7e:	48 89 55 d8          	mov    %rdx,-0x28(%rbp)
  404b82:	48 8d 45 ff          	lea    -0x1(%rbp),%rax
  404b86:	48 8b 55 e8          	mov    -0x18(%rbp),%rdx
  404b8a:	48 89 d6             	mov    %rdx,%rsi
  404b8d:	48 89 c7             	mov    %rax,%rdi
  404b90:	e8 2b 08 00 00       	callq  4053c0 <_ZNKSt11_Deque_baseIPSt6vectorISsSaISsEESaIS3_EE20_M_get_map_allocatorEv>
  404b95:	48 8b 55 d8          	mov    -0x28(%rbp),%rdx
  404b99:	48 8b 4d e0          	mov    -0x20(%rbp),%rcx
  404b9d:	48 8d 45 ff          	lea    -0x1(%rbp),%rax
  404ba1:	48 89 ce             	mov    %rcx,%rsi
  404ba4:	48 89 c7             	mov    %rax,%rdi
  404ba7:	e8 62 08 00 00       	callq  40540e <_ZN9__gnu_cxx13new_allocatorIPPSt6vectorISsSaISsEEE10deallocateEPS5_m>
  404bac:	48 8d 45 ff          	lea    -0x1(%rbp),%rax
  404bb0:	48 89 c7             	mov    %rax,%rdi
  404bb3:	e8 3c 08 00 00       	callq  4053f4 <_ZNSaIPPSt6vectorISsSaISsEEED1Ev>
  404bb8:	c9                   	leaveq 
  404bb9:	c3                   	retq   

0000000000404bba <_ZSt24__uninitialized_fill_n_aIPSsmSsSsEvT_T0_RKT1_RSaIT2_E>:
  404bba:	55                   	push   %rbp
  404bbb:	48 89 e5             	mov    %rsp,%rbp
  404bbe:	48 83 ec 20          	sub    $0x20,%rsp
  404bc2:	48 89 7d f8          	mov    %rdi,-0x8(%rbp)
  404bc6:	48 89 75 f0          	mov    %rsi,-0x10(%rbp)
  404bca:	48 89 55 e8          	mov    %rdx,-0x18(%rbp)
  404bce:	48 89 4d e0          	mov    %rcx,-0x20(%rbp)
  404bd2:	48 8b 55 e8          	mov    -0x18(%rbp),%rdx
  404bd6:	48 8b 4d f0          	mov    -0x10(%rbp),%rcx
  404bda:	48 8b 45 f8          	mov    -0x8(%rbp),%rax
  404bde:	48 89 ce             	mov    %rcx,%rsi
  404be1:	48 89 c7             	mov    %rax,%rdi
  404be4:	e8 47 08 00 00       	callq  405430 <_ZSt20uninitialized_fill_nIPSsmSsEvT_T0_RKT1_>
  404be9:	c9                   	leaveq 
  404bea:	c3                   	retq   
  404beb:	90                   	nop

0000000000404bec <_ZNSt12_Vector_baseISsSaISsEE12_Vector_implC1Ev>:
  404bec:	55                   	push   %rbp
  404bed:	48 89 e5             	mov    %rsp,%rbp
  404bf0:	48 83 ec 10          	sub    $0x10,%rsp
  404bf4:	48 89 7d f8          	mov    %rdi,-0x8(%rbp)
  404bf8:	48 8b 45 f8          	mov    -0x8(%rbp),%rax
  404bfc:	48 89 c7             	mov    %rax,%rdi
  404bff:	e8 0c eb ff ff       	callq  403710 <_ZNSaISsEC1Ev>
  404c04:	48 8b 45 f8          	mov    -0x8(%rbp),%rax
  404c08:	48 c7 00 00 00 00 00 	movq   $0x0,(%rax)
  404c0f:	48 8b 45 f8          	mov    -0x8(%rbp),%rax
  404c13:	48 c7 40 08 00 00 00 	movq   $0x0,0x8(%rax)
  404c1a:	00 
  404c1b:	48 8b 45 f8          	mov    -0x8(%rbp),%rax
  404c1f:	48 c7 40 10 00 00 00 	movq   $0x0,0x10(%rax)
  404c26:	00 
  404c27:	c9                   	leaveq 
  404c28:	c3                   	retq   
  404c29:	90                   	nop

0000000000404c2a <_ZNSt5dequeIPSt6vectorISsSaISsEESaIS3_EE22_M_reserve_map_at_backEm>:
  404c2a:	55                   	push   %rbp
  404c2b:	48 89 e5             	mov    %rsp,%rbp
  404c2e:	48 83 ec 10          	sub    $0x10,%rsp
  404c32:	48 89 7d f8          	mov    %rdi,-0x8(%rbp)
  404c36:	48 89 75 f0          	mov    %rsi,-0x10(%rbp)
  404c3a:	48 8b 45 f0          	mov    -0x10(%rbp),%rax
  404c3e:	48 8d 70 01          	lea    0x1(%rax),%rsi
  404c42:	48 8b 45 f8          	mov    -0x8(%rbp),%rax
  404c46:	48 8b 50 08          	mov    0x8(%rax),%rdx
  404c4a:	48 8b 45 f8          	mov    -0x8(%rbp),%rax
  404c4e:	48 8b 40 48          	mov    0x48(%rax),%rax
  404c52:	48 89 c1             	mov    %rax,%rcx
  404c55:	48 8b 45 f8          	mov    -0x8(%rbp),%rax
  404c59:	48 8b 00             	mov    (%rax),%rax
  404c5c:	48 29 c1             	sub    %rax,%rcx
  404c5f:	48 89 c8             	mov    %rcx,%rax
  404c62:	48 c1 f8 03          	sar    $0x3,%rax
  404c66:	48 29 c2             	sub    %rax,%rdx
  404c69:	48 89 d0             	mov    %rdx,%rax
  404c6c:	48 39 c6             	cmp    %rax,%rsi
  404c6f:	76 18                	jbe    404c89 <_ZNSt5dequeIPSt6vectorISsSaISsEESaIS3_EE22_M_reserve_map_at_backEm+0x5f>
  404c71:	48 8b 4d f0          	mov    -0x10(%rbp),%rcx
  404c75:	48 8b 45 f8          	mov    -0x8(%rbp),%rax
  404c79:	ba 00 00 00 00       	mov    $0x0,%edx
  404c7e:	48 89 ce             	mov    %rcx,%rsi
  404c81:	48 89 c7             	mov    %rax,%rdi
  404c84:	e8 d5 07 00 00       	callq  40545e <_ZNSt5dequeIPSt6vectorISsSaISsEESaIS3_EE17_M_reallocate_mapEmb>
  404c89:	c9                   	leaveq 
  404c8a:	c3                   	retq   
  404c8b:	90                   	nop

0000000000404c8c <_ZNSt11_Deque_baseIPSt6vectorISsSaISsEESaIS3_EE16_M_allocate_nodeEv>:
  404c8c:	55                   	push   %rbp
  404c8d:	48 89 e5             	mov    %rsp,%rbp
  404c90:	48 83 ec 10          	sub    $0x10,%rsp
  404c94:	48 89 7d f8          	mov    %rdi,-0x8(%rbp)
  404c98:	bf 08 00 00 00       	mov    $0x8,%edi
  404c9d:	e8 55 e8 ff ff       	callq  4034f7 <_ZSt16__deque_buf_sizem>
  404ca2:	48 89 c1             	mov    %rax,%rcx
  404ca5:	48 8b 45 f8          	mov    -0x8(%rbp),%rax
  404ca9:	ba 00 00 00 00       	mov    $0x0,%edx
  404cae:	48 89 ce             	mov    %rcx,%rsi
  404cb1:	48 89 c7             	mov    %rax,%rdi
  404cb4:	e8 cd 09 00 00       	callq  405686 <_ZN9__gnu_cxx13new_allocatorIPSt6vectorISsSaISsEEE8allocateEmPKv>
  404cb9:	c9                   	leaveq 
  404cba:	c3                   	retq   
  404cbb:	90                   	nop

0000000000404cbc <_ZNSt15_Deque_iteratorIPSt6vectorISsSaISsEERS3_PS3_E11_M_set_nodeEPS5_>:
  404cbc:	55                   	push   %rbp
  404cbd:	48 89 e5             	mov    %rsp,%rbp
  404cc0:	53                   	push   %rbx
  404cc1:	48 83 ec 18          	sub    $0x18,%rsp
  404cc5:	48 89 7d e8          	mov    %rdi,-0x18(%rbp)
  404cc9:	48 89 75 e0          	mov    %rsi,-0x20(%rbp)
  404ccd:	48 8b 45 e8          	mov    -0x18(%rbp),%rax
  404cd1:	48 8b 55 e0          	mov    -0x20(%rbp),%rdx
  404cd5:	48 89 50 18          	mov    %rdx,0x18(%rax)
  404cd9:	48 8b 45 e0          	mov    -0x20(%rbp),%rax
  404cdd:	48 8b 10             	mov    (%rax),%rdx
  404ce0:	48 8b 45 e8          	mov    -0x18(%rbp),%rax
  404ce4:	48 89 50 08          	mov    %rdx,0x8(%rax)
  404ce8:	48 8b 45 e8          	mov    -0x18(%rbp),%rax
  404cec:	48 8b 58 08          	mov    0x8(%rax),%rbx
  404cf0:	e8 d3 09 00 00       	callq  4056c8 <_ZNSt15_Deque_iteratorIPSt6vectorISsSaISsEERS3_PS3_E14_S_buffer_sizeEv>
  404cf5:	48 c1 e0 03          	shl    $0x3,%rax
  404cf9:	48 8d 14 03          	lea    (%rbx,%rax,1),%rdx
  404cfd:	48 8b 45 e8          	mov    -0x18(%rbp),%rax
  404d01:	48 89 50 10          	mov    %rdx,0x10(%rax)
  404d05:	48 83 c4 18          	add    $0x18,%rsp
  404d09:	5b                   	pop    %rbx
  404d0a:	5d                   	pop    %rbp
  404d0b:	c3                   	retq   

0000000000404d0c <_ZNSt11_Deque_baseIPSt6vectorISsSaISsEESaIS3_EE18_M_deallocate_nodeEPS3_>:
  404d0c:	55                   	push   %rbp
  404d0d:	48 89 e5             	mov    %rsp,%rbp
  404d10:	48 83 ec 10          	sub    $0x10,%rsp
  404d14:	48 89 7d f8          	mov    %rdi,-0x8(%rbp)
  404d18:	48 89 75 f0          	mov    %rsi,-0x10(%rbp)
  404d1c:	bf 08 00 00 00       	mov    $0x8,%edi
  404d21:	e8 d1 e7 ff ff       	callq  4034f7 <_ZSt16__deque_buf_sizem>
  404d26:	48 89 c2             	mov    %rax,%rdx
  404d29:	48 8b 45 f8          	mov    -0x8(%rbp),%rax
  404d2d:	48 8b 4d f0          	mov    -0x10(%rbp),%rcx
  404d31:	48 89 ce             	mov    %rcx,%rsi
  404d34:	48 89 c7             	mov    %rax,%rdi
  404d37:	e8 9c 09 00 00       	callq  4056d8 <_ZN9__gnu_cxx13new_allocatorIPSt6vectorISsSaISsEEE10deallocateEPS4_m>
  404d3c:	c9                   	leaveq 
  404d3d:	c3                   	retq   

0000000000404d3e <_ZNSt12_Vector_baseISsSaISsEE11_M_allocateEm>:
  404d3e:	55                   	push   %rbp
  404d3f:	48 89 e5             	mov    %rsp,%rbp
  404d42:	48 83 ec 10          	sub    $0x10,%rsp
  404d46:	48 89 7d f8          	mov    %rdi,-0x8(%rbp)
  404d4a:	48 89 75 f0          	mov    %rsi,-0x10(%rbp)
  404d4e:	48 83 7d f0 00       	cmpq   $0x0,-0x10(%rbp)
  404d53:	74 1a                	je     404d6f <_ZNSt12_Vector_baseISsSaISsEE11_M_allocateEm+0x31>
  404d55:	48 8b 45 f8          	mov    -0x8(%rbp),%rax
  404d59:	48 8b 4d f0          	mov    -0x10(%rbp),%rcx
  404d5d:	ba 00 00 00 00       	mov    $0x0,%edx
  404d62:	48 89 ce             	mov    %rcx,%rsi
  404d65:	48 89 c7             	mov    %rax,%rdi
  404d68:	e8 8d 09 00 00       	callq  4056fa <_ZN9__gnu_cxx13new_allocatorISsE8allocateEmPKv>
  404d6d:	eb 05                	jmp    404d74 <_ZNSt12_Vector_baseISsSaISsEE11_M_allocateEm+0x36>
  404d6f:	b8 00 00 00 00       	mov    $0x0,%eax
  404d74:	c9                   	leaveq 
  404d75:	c3                   	retq   

0000000000404d76 <_ZN9__gnu_cxx13new_allocatorISsE10deallocateEPSsm>:
  404d76:	55                   	push   %rbp
  404d77:	48 89 e5             	mov    %rsp,%rbp
  404d7a:	48 83 ec 20          	sub    $0x20,%rsp
  404d7e:	48 89 7d f8          	mov    %rdi,-0x8(%rbp)
  404d82:	48 89 75 f0          	mov    %rsi,-0x10(%rbp)
  404d86:	48 89 55 e8          	mov    %rdx,-0x18(%rbp)
  404d8a:	48 8b 45 f0          	mov    -0x10(%rbp),%rax
  404d8e:	48 89 c7             	mov    %rax,%rdi
  404d91:	e8 ca d6 ff ff       	callq  402460 <_ZdlPv@plt>
  404d96:	c9                   	leaveq 
  404d97:	c3                   	retq   

0000000000404d98 <_ZN9__gnu_cxx17__normal_iteratorIPSsSt6vectorISsSaISsEEEC1ERKS1_>:
  404d98:	55                   	push   %rbp
  404d99:	48 89 e5             	mov    %rsp,%rbp
  404d9c:	48 89 7d f8          	mov    %rdi,-0x8(%rbp)
  404da0:	48 89 75 f0          	mov    %rsi,-0x10(%rbp)
  404da4:	48 8b 45 f0          	mov    -0x10(%rbp),%rax
  404da8:	48 8b 10             	mov    (%rax),%rdx
  404dab:	48 8b 45 f8          	mov    -0x8(%rbp),%rax
  404daf:	48 89 10             	mov    %rdx,(%rax)
  404db2:	5d                   	pop    %rbp
  404db3:	c3                   	retq   

0000000000404db4 <_ZSt12__miter_baseIN9__gnu_cxx17__normal_iteratorIPKSsSt6vectorISsSaISsEEEEENSt11_Miter_baseIT_E13iterator_typeES9_>:
  404db4:	55                   	push   %rbp
  404db5:	48 89 e5             	mov    %rsp,%rbp
  404db8:	48 83 ec 10          	sub    $0x10,%rsp
  404dbc:	48 89 7d f0          	mov    %rdi,-0x10(%rbp)
  404dc0:	48 8b 45 f0          	mov    -0x10(%rbp),%rax
  404dc4:	48 89 c7             	mov    %rax,%rdi
  404dc7:	e8 70 09 00 00       	callq  40573c <_ZNSt10_Iter_baseIN9__gnu_cxx17__normal_iteratorIPKSsSt6vectorISsSaISsEEEELb0EE7_S_baseES7_>
  404dcc:	c9                   	leaveq 
  404dcd:	c3                   	retq   

0000000000404dce <_ZSt14__copy_move_a2ILb0EN9__gnu_cxx17__normal_iteratorIPKSsSt6vectorISsSaISsEEEENS1_IPSsS6_EEET1_T0_SB_SA_>:
  404dce:	55                   	push   %rbp
  404dcf:	48 89 e5             	mov    %rsp,%rbp
  404dd2:	41 54                	push   %r12
  404dd4:	53                   	push   %rbx
  404dd5:	48 83 ec 40          	sub    $0x40,%rsp
  404dd9:	48 89 7d d0          	mov    %rdi,-0x30(%rbp)
  404ddd:	48 89 75 c0          	mov    %rsi,-0x40(%rbp)
  404de1:	48 89 55 b0          	mov    %rdx,-0x50(%rbp)
  404de5:	48 8b 45 b0          	mov    -0x50(%rbp),%rax
  404de9:	48 89 c7             	mov    %rax,%rdi
  404dec:	e8 73 09 00 00       	callq  405764 <_ZSt12__niter_baseIN9__gnu_cxx17__normal_iteratorIPSsSt6vectorISsSaISsEEEEENSt11_Niter_baseIT_E13iterator_typeES8_>
  404df1:	49 89 c4             	mov    %rax,%r12
  404df4:	48 8b 45 c0          	mov    -0x40(%rbp),%rax
  404df8:	48 89 c7             	mov    %rax,%rdi
  404dfb:	e8 4a 09 00 00       	callq  40574a <_ZSt12__niter_baseIN9__gnu_cxx17__normal_iteratorIPKSsSt6vectorISsSaISsEEEEENSt11_Niter_baseIT_E13iterator_typeES9_>
  404e00:	48 89 c3             	mov    %rax,%rbx
  404e03:	48 8b 45 d0          	mov    -0x30(%rbp),%rax
  404e07:	48 89 c7             	mov    %rax,%rdi
  404e0a:	e8 3b 09 00 00       	callq  40574a <_ZSt12__niter_baseIN9__gnu_cxx17__normal_iteratorIPKSsSt6vectorISsSaISsEEEEENSt11_Niter_baseIT_E13iterator_typeES9_>
  404e0f:	4c 89 e2             	mov    %r12,%rdx
  404e12:	48 89 de             	mov    %rbx,%rsi
  404e15:	48 89 c7             	mov    %rax,%rdi
  404e18:	e8 61 09 00 00       	callq  40577e <_ZSt13__copy_move_aILb0EPKSsPSsET1_T0_S4_S3_>
  404e1d:	48 89 45 e8          	mov    %rax,-0x18(%rbp)
  404e21:	48 8d 55 e8          	lea    -0x18(%rbp),%rdx
  404e25:	48 8d 45 e0          	lea    -0x20(%rbp),%rax
  404e29:	48 89 d6             	mov    %rdx,%rsi
  404e2c:	48 89 c7             	mov    %rax,%rdi
  404e2f:	e8 64 ff ff ff       	callq  404d98 <_ZN9__gnu_cxx17__normal_iteratorIPSsSt6vectorISsSaISsEEEC1ERKS1_>
  404e34:	48 8b 45 e0          	mov    -0x20(%rbp),%rax
  404e38:	48 83 c4 40          	add    $0x40,%rsp
  404e3c:	5b                   	pop    %rbx
  404e3d:	41 5c                	pop    %r12
  404e3f:	5d                   	pop    %rbp
  404e40:	c3                   	retq   

0000000000404e41 <_ZSt8_DestroyIN9__gnu_cxx17__normal_iteratorIPSsSt6vectorISsSaISsEEEEEvT_S7_>:
  404e41:	55                   	push   %rbp
  404e42:	48 89 e5             	mov    %rsp,%rbp
  404e45:	48 83 ec 20          	sub    $0x20,%rsp
  404e49:	48 89 7d f0          	mov    %rdi,-0x10(%rbp)
  404e4d:	48 89 75 e0          	mov    %rsi,-0x20(%rbp)
  404e51:	48 8b 55 e0          	mov    -0x20(%rbp),%rdx
  404e55:	48 8b 45 f0          	mov    -0x10(%rbp),%rax
  404e59:	48 89 d6             	mov    %rdx,%rsi
  404e5c:	48 89 c7             	mov    %rax,%rdi
  404e5f:	e8 4b 09 00 00       	callq  4057af <_ZNSt12_Destroy_auxILb0EE9__destroyIN9__gnu_cxx17__normal_iteratorIPSsSt6vectorISsSaISsEEEEEEvT_S9_>
  404e64:	c9                   	leaveq 
  404e65:	c3                   	retq   

0000000000404e66 <_ZSt12__miter_baseIPSsENSt11_Miter_baseIT_E13iterator_typeES2_>:
  404e66:	55                   	push   %rbp
  404e67:	48 89 e5             	mov    %rsp,%rbp
  404e6a:	48 83 ec 10          	sub    $0x10,%rsp
  404e6e:	48 89 7d f8          	mov    %rdi,-0x8(%rbp)
  404e72:	48 8b 45 f8          	mov    -0x8(%rbp),%rax
  404e76:	48 89 c7             	mov    %rax,%rdi
  404e79:	e8 84 09 00 00       	callq  405802 <_ZNSt10_Iter_baseIPSsLb0EE7_S_baseES0_>
  404e7e:	c9                   	leaveq 
  404e7f:	c3                   	retq   

0000000000404e80 <_ZSt14__copy_move_a2ILb0EPSsS0_ET1_T0_S2_S1_>:
  404e80:	55                   	push   %rbp
  404e81:	48 89 e5             	mov    %rsp,%rbp
  404e84:	41 54                	push   %r12
  404e86:	53                   	push   %rbx
  404e87:	48 83 ec 20          	sub    $0x20,%rsp
  404e8b:	48 89 7d e8          	mov    %rdi,-0x18(%rbp)
  404e8f:	48 89 75 e0          	mov    %rsi,-0x20(%rbp)
  404e93:	48 89 55 d8          	mov    %rdx,-0x28(%rbp)
  404e97:	48 8b 45 d8          	mov    -0x28(%rbp),%rax
  404e9b:	48 89 c7             	mov    %rax,%rdi
  404e9e:	e8 6d 09 00 00       	callq  405810 <_ZSt12__niter_baseIPSsENSt11_Niter_baseIT_E13iterator_typeES2_>
  404ea3:	49 89 c4             	mov    %rax,%r12
  404ea6:	48 8b 45 e0          	mov    -0x20(%rbp),%rax
  404eaa:	48 89 c7             	mov    %rax,%rdi
  404ead:	e8 5e 09 00 00       	callq  405810 <_ZSt12__niter_baseIPSsENSt11_Niter_baseIT_E13iterator_typeES2_>
  404eb2:	48 89 c3             	mov    %rax,%rbx
  404eb5:	48 8b 45 e8          	mov    -0x18(%rbp),%rax
  404eb9:	48 89 c7             	mov    %rax,%rdi
  404ebc:	e8 4f 09 00 00       	callq  405810 <_ZSt12__niter_baseIPSsENSt11_Niter_baseIT_E13iterator_typeES2_>
  404ec1:	4c 89 e2             	mov    %r12,%rdx
  404ec4:	48 89 de             	mov    %rbx,%rsi
  404ec7:	48 89 c7             	mov    %rax,%rdi
  404eca:	e8 5b 09 00 00       	callq  40582a <_ZSt13__copy_move_aILb0EPSsS0_ET1_T0_S2_S1_>
  404ecf:	48 83 c4 20          	add    $0x20,%rsp
  404ed3:	5b                   	pop    %rbx
  404ed4:	41 5c                	pop    %r12
  404ed6:	5d                   	pop    %rbp
  404ed7:	c3                   	retq   

0000000000404ed8 <_ZSt18uninitialized_copyIPSsS0_ET0_T_S2_S1_>:
  404ed8:	55                   	push   %rbp
  404ed9:	48 89 e5             	mov    %rsp,%rbp
  404edc:	48 83 ec 20          	sub    $0x20,%rsp
  404ee0:	48 89 7d f8          	mov    %rdi,-0x8(%rbp)
  404ee4:	48 89 75 f0          	mov    %rsi,-0x10(%rbp)
  404ee8:	48 89 55 e8          	mov    %rdx,-0x18(%rbp)
  404eec:	48 8b 55 e8          	mov    -0x18(%rbp),%rdx
  404ef0:	48 8b 4d f0          	mov    -0x10(%rbp),%rcx
  404ef4:	48 8b 45 f8          	mov    -0x8(%rbp),%rax
  404ef8:	48 89 ce             	mov    %rcx,%rsi
  404efb:	48 89 c7             	mov    %rax,%rdi
  404efe:	e8 58 09 00 00       	callq  40585b <_ZNSt20__uninitialized_copyILb0EE13__uninit_copyIPSsS2_EET0_T_S4_S3_>
  404f03:	c9                   	leaveq 
  404f04:	c3                   	retq   
  404f05:	90                   	nop

0000000000404f06 <_ZN9__gnu_cxx13new_allocatorISsE9constructEPSsRKSs>:
  404f06:	55                   	push   %rbp
  404f07:	48 89 e5             	mov    %rsp,%rbp
  404f0a:	41 55                	push   %r13
  404f0c:	41 54                	push   %r12
  404f0e:	53                   	push   %rbx
  404f0f:	48 83 ec 28          	sub    $0x28,%rsp
  404f13:	48 89 7d d8          	mov    %rdi,-0x28(%rbp)
  404f17:	48 89 75 d0          	mov    %rsi,-0x30(%rbp)
  404f1b:	48 89 55 c8          	mov    %rdx,-0x38(%rbp)
  404f1f:	4c 8b 65 d0          	mov    -0x30(%rbp),%r12
  404f23:	4c 89 e6             	mov    %r12,%rsi
  404f26:	bf 08 00 00 00       	mov    $0x8,%edi
  404f2b:	e8 a7 e5 ff ff       	callq  4034d7 <_ZnwmPv>
  404f30:	48 89 c3             	mov    %rax,%rbx
  404f33:	48 85 db             	test   %rbx,%rbx
  404f36:	74 11                	je     404f49 <_ZN9__gnu_cxx13new_allocatorISsE9constructEPSsRKSs+0x43>
  404f38:	48 8b 45 c8          	mov    -0x38(%rbp),%rax
  404f3c:	48 89 c6             	mov    %rax,%rsi
  404f3f:	48 89 df             	mov    %rbx,%rdi
  404f42:	e8 c9 d5 ff ff       	callq  402510 <_ZNSsC1ERKSs@plt>
  404f47:	eb 1b                	jmp    404f64 <_ZN9__gnu_cxx13new_allocatorISsE9constructEPSsRKSs+0x5e>
  404f49:	eb 19                	jmp    404f64 <_ZN9__gnu_cxx13new_allocatorISsE9constructEPSsRKSs+0x5e>
  404f4b:	49 89 c5             	mov    %rax,%r13
  404f4e:	4c 89 e6             	mov    %r12,%rsi
  404f51:	48 89 df             	mov    %rbx,%rdi
  404f54:	e8 90 e5 ff ff       	callq  4034e9 <_ZdlPvS_>
  404f59:	4c 89 e8             	mov    %r13,%rax
  404f5c:	48 89 c7             	mov    %rax,%rdi
  404f5f:	e8 6c d9 ff ff       	callq  4028d0 <_Unwind_Resume@plt>
  404f64:	48 83 c4 28          	add    $0x28,%rsp
  404f68:	5b                   	pop    %rbx
  404f69:	41 5c                	pop    %r12
  404f6b:	41 5d                	pop    %r13
  404f6d:	5d                   	pop    %rbp
  404f6e:	c3                   	retq   
  404f6f:	90                   	nop

0000000000404f70 <_ZNK9__gnu_cxx17__normal_iteratorIPSsSt6vectorISsSaISsEEE4baseEv>:
  404f70:	55                   	push   %rbp
  404f71:	48 89 e5             	mov    %rsp,%rbp
  404f74:	48 89 7d f8          	mov    %rdi,-0x8(%rbp)
  404f78:	48 8b 45 f8          	mov    -0x8(%rbp),%rax
  404f7c:	5d                   	pop    %rbp
  404f7d:	c3                   	retq   

0000000000404f7e <_ZSt13copy_backwardIPSsS0_ET0_T_S2_S1_>:
  404f7e:	55                   	push   %rbp
  404f7f:	48 89 e5             	mov    %rsp,%rbp
  404f82:	53                   	push   %rbx
  404f83:	48 83 ec 28          	sub    $0x28,%rsp
  404f87:	48 89 7d e8          	mov    %rdi,-0x18(%rbp)
  404f8b:	48 89 75 e0          	mov    %rsi,-0x20(%rbp)
  404f8f:	48 89 55 d8          	mov    %rdx,-0x28(%rbp)
  404f93:	48 8b 45 e0          	mov    -0x20(%rbp),%rax
  404f97:	48 89 c7             	mov    %rax,%rdi
  404f9a:	e8 c7 fe ff ff       	callq  404e66 <_ZSt12__miter_baseIPSsENSt11_Miter_baseIT_E13iterator_typeES2_>
  404f9f:	48 89 c3             	mov    %rax,%rbx
  404fa2:	48 8b 45 e8          	mov    -0x18(%rbp),%rax
  404fa6:	48 89 c7             	mov    %rax,%rdi
  404fa9:	e8 b8 fe ff ff       	callq  404e66 <_ZSt12__miter_baseIPSsENSt11_Miter_baseIT_E13iterator_typeES2_>
  404fae:	48 8b 55 d8          	mov    -0x28(%rbp),%rdx
  404fb2:	48 89 de             	mov    %rbx,%rsi
  404fb5:	48 89 c7             	mov    %rax,%rdi
  404fb8:	e8 2c 09 00 00       	callq  4058e9 <_ZSt23__copy_move_backward_a2ILb0EPSsS0_ET1_T0_S2_S1_>
  404fbd:	48 83 c4 28          	add    $0x28,%rsp
  404fc1:	5b                   	pop    %rbx
  404fc2:	5d                   	pop    %rbp
  404fc3:	c3                   	retq   

0000000000404fc4 <_ZNK9__gnu_cxx17__normal_iteratorIPSsSt6vectorISsSaISsEEEdeEv>:
  404fc4:	55                   	push   %rbp
  404fc5:	48 89 e5             	mov    %rsp,%rbp
  404fc8:	48 89 7d f8          	mov    %rdi,-0x8(%rbp)
  404fcc:	48 8b 45 f8          	mov    -0x8(%rbp),%rax
  404fd0:	48 8b 00             	mov    (%rax),%rax
  404fd3:	5d                   	pop    %rbp
  404fd4:	c3                   	retq   
  404fd5:	90                   	nop

0000000000404fd6 <_ZNKSt6vectorISsSaISsEE12_M_check_lenEmPKc>:
  404fd6:	55                   	push   %rbp
  404fd7:	48 89 e5             	mov    %rsp,%rbp
  404fda:	53                   	push   %rbx
  404fdb:	48 83 ec 38          	sub    $0x38,%rsp
  404fdf:	48 89 7d d8          	mov    %rdi,-0x28(%rbp)
  404fe3:	48 89 75 d0          	mov    %rsi,-0x30(%rbp)
  404fe7:	48 89 55 c8          	mov    %rdx,-0x38(%rbp)
  404feb:	48 8b 45 d8          	mov    -0x28(%rbp),%rax
  404fef:	48 89 c7             	mov    %rax,%rdi
  404ff2:	e8 4b 09 00 00       	callq  405942 <_ZNKSt6vectorISsSaISsEE8max_sizeEv>
  404ff7:	48 89 c3             	mov    %rax,%rbx
  404ffa:	48 8b 45 d8          	mov    -0x28(%rbp),%rax
  404ffe:	48 89 c7             	mov    %rax,%rdi
  405001:	e8 8a e8 ff ff       	callq  403890 <_ZNKSt6vectorISsSaISsEE4sizeEv>
  405006:	48 29 c3             	sub    %rax,%rbx
  405009:	48 89 da             	mov    %rbx,%rdx
  40500c:	48 8b 45 d0          	mov    -0x30(%rbp),%rax
  405010:	48 39 c2             	cmp    %rax,%rdx
  405013:	0f 92 c0             	setb   %al
  405016:	84 c0                	test   %al,%al
  405018:	74 0c                	je     405026 <_ZNKSt6vectorISsSaISsEE12_M_check_lenEmPKc+0x50>
  40501a:	48 8b 45 c8          	mov    -0x38(%rbp),%rax
  40501e:	48 89 c7             	mov    %rax,%rdi
  405021:	e8 4a d3 ff ff       	callq  402370 <_ZSt20__throw_length_errorPKc@plt>
  405026:	48 8b 45 d8          	mov    -0x28(%rbp),%rax
  40502a:	48 89 c7             	mov    %rax,%rdi
  40502d:	e8 5e e8 ff ff       	callq  403890 <_ZNKSt6vectorISsSaISsEE4sizeEv>
  405032:	48 89 c3             	mov    %rax,%rbx
  405035:	48 8b 45 d8          	mov    -0x28(%rbp),%rax
  405039:	48 89 c7             	mov    %rax,%rdi
  40503c:	e8 4f e8 ff ff       	callq  403890 <_ZNKSt6vectorISsSaISsEE4sizeEv>
  405041:	48 89 45 e0          	mov    %rax,-0x20(%rbp)
  405045:	48 8d 55 d0          	lea    -0x30(%rbp),%rdx
  405049:	48 8d 45 e0          	lea    -0x20(%rbp),%rax
  40504d:	48 89 d6             	mov    %rdx,%rsi
  405050:	48 89 c7             	mov    %rax,%rdi
  405053:	e8 48 02 00 00       	callq  4052a0 <_ZSt3maxImERKT_S2_S2_>
  405058:	48 8b 00             	mov    (%rax),%rax
  40505b:	48 01 d8             	add    %rbx,%rax
  40505e:	48 89 45 e8          	mov    %rax,-0x18(%rbp)
  405062:	48 8b 45 d8          	mov    -0x28(%rbp),%rax
  405066:	48 89 c7             	mov    %rax,%rdi
  405069:	e8 22 e8 ff ff       	callq  403890 <_ZNKSt6vectorISsSaISsEE4sizeEv>
  40506e:	48 3b 45 e8          	cmp    -0x18(%rbp),%rax
  405072:	77 12                	ja     405086 <_ZNKSt6vectorISsSaISsEE12_M_check_lenEmPKc+0xb0>
  405074:	48 8b 45 d8          	mov    -0x28(%rbp),%rax
  405078:	48 89 c7             	mov    %rax,%rdi
  40507b:	e8 c2 08 00 00       	callq  405942 <_ZNKSt6vectorISsSaISsEE8max_sizeEv>
  405080:	48 3b 45 e8          	cmp    -0x18(%rbp),%rax
  405084:	73 0e                	jae    405094 <_ZNKSt6vectorISsSaISsEE12_M_check_lenEmPKc+0xbe>
  405086:	48 8b 45 d8          	mov    -0x28(%rbp),%rax
  40508a:	48 89 c7             	mov    %rax,%rdi
  40508d:	e8 b0 08 00 00       	callq  405942 <_ZNKSt6vectorISsSaISsEE8max_sizeEv>
  405092:	eb 04                	jmp    405098 <_ZNKSt6vectorISsSaISsEE12_M_check_lenEmPKc+0xc2>
  405094:	48 8b 45 e8          	mov    -0x18(%rbp),%rax
  405098:	48 83 c4 38          	add    $0x38,%rsp
  40509c:	5b                   	pop    %rbx
  40509d:	5d                   	pop    %rbp
  40509e:	c3                   	retq   

000000000040509f <_ZN9__gnu_cxxmiIPSsSt6vectorISsSaISsEEEENS_17__normal_iteratorIT_T0_E15difference_typeERKS8_SB_>:
  40509f:	55                   	push   %rbp
  4050a0:	48 89 e5             	mov    %rsp,%rbp
  4050a3:	53                   	push   %rbx
  4050a4:	48 83 ec 18          	sub    $0x18,%rsp
  4050a8:	48 89 7d e8          	mov    %rdi,-0x18(%rbp)
  4050ac:	48 89 75 e0          	mov    %rsi,-0x20(%rbp)
  4050b0:	48 8b 45 e8          	mov    -0x18(%rbp),%rax
  4050b4:	48 89 c7             	mov    %rax,%rdi
  4050b7:	e8 b4 fe ff ff       	callq  404f70 <_ZNK9__gnu_cxx17__normal_iteratorIPSsSt6vectorISsSaISsEEE4baseEv>
  4050bc:	48 8b 00             	mov    (%rax),%rax
  4050bf:	48 89 c3             	mov    %rax,%rbx
  4050c2:	48 8b 45 e0          	mov    -0x20(%rbp),%rax
  4050c6:	48 89 c7             	mov    %rax,%rdi
  4050c9:	e8 a2 fe ff ff       	callq  404f70 <_ZNK9__gnu_cxx17__normal_iteratorIPSsSt6vectorISsSaISsEEE4baseEv>
  4050ce:	48 8b 00             	mov    (%rax),%rax
  4050d1:	48 29 c3             	sub    %rax,%rbx
  4050d4:	48 89 d8             	mov    %rbx,%rax
  4050d7:	48 c1 f8 03          	sar    $0x3,%rax
  4050db:	48 83 c4 18          	add    $0x18,%rsp
  4050df:	5b                   	pop    %rbx
  4050e0:	5d                   	pop    %rbp
  4050e1:	c3                   	retq   

00000000004050e2 <_ZSt34__uninitialized_move_if_noexcept_aIPSsS0_SaISsEET0_T_S3_S2_RT1_>:
  4050e2:	55                   	push   %rbp
  4050e3:	48 89 e5             	mov    %rsp,%rbp
  4050e6:	48 83 ec 20          	sub    $0x20,%rsp
  4050ea:	48 89 7d f8          	mov    %rdi,-0x8(%rbp)
  4050ee:	48 89 75 f0          	mov    %rsi,-0x10(%rbp)
  4050f2:	48 89 55 e8          	mov    %rdx,-0x18(%rbp)
  4050f6:	48 89 4d e0          	mov    %rcx,-0x20(%rbp)
  4050fa:	48 8b 4d e0          	mov    -0x20(%rbp),%rcx
  4050fe:	48 8b 55 e8          	mov    -0x18(%rbp),%rdx
  405102:	48 8b 75 f0          	mov    -0x10(%rbp),%rsi
  405106:	48 8b 45 f8          	mov    -0x8(%rbp),%rax
  40510a:	48 89 c7             	mov    %rax,%rdi
  40510d:	e8 fe f2 ff ff       	callq  404410 <_ZSt22__uninitialized_copy_aIPSsS0_SsET0_T_S2_S1_RSaIT1_E>
  405112:	c9                   	leaveq 
  405113:	c3                   	retq   

0000000000405114 <_ZN9__gnu_cxx14__alloc_traitsISaISsEE7destroyERS1_PSs>:
  405114:	55                   	push   %rbp
  405115:	48 89 e5             	mov    %rsp,%rbp
  405118:	48 83 ec 10          	sub    $0x10,%rsp
  40511c:	48 89 7d f8          	mov    %rdi,-0x8(%rbp)
  405120:	48 89 75 f0          	mov    %rsi,-0x10(%rbp)
  405124:	48 8b 55 f0          	mov    -0x10(%rbp),%rdx
  405128:	48 8b 45 f8          	mov    -0x8(%rbp),%rax
  40512c:	48 89 d6             	mov    %rdx,%rsi
  40512f:	48 89 c7             	mov    %rax,%rdi
  405132:	e8 2d 08 00 00       	callq  405964 <_ZN9__gnu_cxx13new_allocatorISsE7destroyEPSs>
  405137:	c9                   	leaveq 
  405138:	c3                   	retq   

0000000000405139 <_ZNSt12_Destroy_auxILb0EE9__destroyIPSsEEvT_S3_>:
  405139:	55                   	push   %rbp
  40513a:	48 89 e5             	mov    %rsp,%rbp
  40513d:	48 83 ec 10          	sub    $0x10,%rsp
  405141:	48 89 7d f8          	mov    %rdi,-0x8(%rbp)
  405145:	48 89 75 f0          	mov    %rsi,-0x10(%rbp)
  405149:	eb 19                	jmp    405164 <_ZNSt12_Destroy_auxILb0EE9__destroyIPSsEEvT_S3_+0x2b>
  40514b:	48 8b 45 f8          	mov    -0x8(%rbp),%rax
  40514f:	48 89 c7             	mov    %rax,%rdi
  405152:	e8 2b 08 00 00       	callq  405982 <_ZSt11__addressofISsEPT_RS0_>
  405157:	48 89 c7             	mov    %rax,%rdi
  40515a:	e8 31 08 00 00       	callq  405990 <_ZSt8_DestroyISsEvPT_>
  40515f:	48 83 45 f8 08       	addq   $0x8,-0x8(%rbp)
  405164:	48 8b 45 f8          	mov    -0x8(%rbp),%rax
  405168:	48 3b 45 f0          	cmp    -0x10(%rbp),%rax
  40516c:	75 dd                	jne    40514b <_ZNSt12_Destroy_auxILb0EE9__destroyIPSsEEvT_S3_+0x12>
  40516e:	c9                   	leaveq 
  40516f:	c3                   	retq   

0000000000405170 <_ZNSaISsEC1ERKS_>:
  405170:	55                   	push   %rbp
  405171:	48 89 e5             	mov    %rsp,%rbp
  405174:	48 83 ec 10          	sub    $0x10,%rsp
  405178:	48 89 7d f8          	mov    %rdi,-0x8(%rbp)
  40517c:	48 89 75 f0          	mov    %rsi,-0x10(%rbp)
  405180:	48 8b 55 f0          	mov    -0x10(%rbp),%rdx
  405184:	48 8b 45 f8          	mov    -0x8(%rbp),%rax
  405188:	48 89 d6             	mov    %rdx,%rsi
  40518b:	48 89 c7             	mov    %rax,%rdi
  40518e:	e8 17 08 00 00       	callq  4059aa <_ZN9__gnu_cxx13new_allocatorISsEC1ERKS1_>
  405193:	c9                   	leaveq 
  405194:	c3                   	retq   

0000000000405195 <_ZNSt20__uninitialized_copyILb0EE13__uninit_copyIN9__gnu_cxx17__normal_iteratorIPKSsSt6vectorISsSaISsEEEEPSsEET0_T_SC_SB_>:
  405195:	55                   	push   %rbp
  405196:	48 89 e5             	mov    %rsp,%rbp
  405199:	53                   	push   %rbx
  40519a:	48 83 ec 38          	sub    $0x38,%rsp
  40519e:	48 89 7d d0          	mov    %rdi,-0x30(%rbp)
  4051a2:	48 89 75 c0          	mov    %rsi,-0x40(%rbp)
  4051a6:	48 89 55 c8          	mov    %rdx,-0x38(%rbp)
  4051aa:	48 8b 45 c8          	mov    -0x38(%rbp),%rax
  4051ae:	48 89 45 e8          	mov    %rax,-0x18(%rbp)
  4051b2:	eb 37                	jmp    4051eb <_ZNSt20__uninitialized_copyILb0EE13__uninit_copyIN9__gnu_cxx17__normal_iteratorIPKSsSt6vectorISsSaISsEEEEPSsEET0_T_SC_SB_+0x56>
  4051b4:	48 8d 45 d0          	lea    -0x30(%rbp),%rax
  4051b8:	48 89 c7             	mov    %rax,%rdi
  4051bb:	e8 54 08 00 00       	callq  405a14 <_ZNK9__gnu_cxx17__normal_iteratorIPKSsSt6vectorISsSaISsEEEdeEv>
  4051c0:	48 89 c3             	mov    %rax,%rbx
  4051c3:	48 8b 45 e8          	mov    -0x18(%rbp),%rax
  4051c7:	48 89 c7             	mov    %rax,%rdi
  4051ca:	e8 b3 07 00 00       	callq  405982 <_ZSt11__addressofISsEPT_RS0_>
  4051cf:	48 89 de             	mov    %rbx,%rsi
  4051d2:	48 89 c7             	mov    %rax,%rdi
  4051d5:	e8 4b 08 00 00       	callq  405a25 <_ZSt10_ConstructISsSsEvPT_RKT0_>
  4051da:	48 8d 45 d0          	lea    -0x30(%rbp),%rax
  4051de:	48 89 c7             	mov    %rax,%rdi
  4051e1:	e8 0e 08 00 00       	callq  4059f4 <_ZN9__gnu_cxx17__normal_iteratorIPKSsSt6vectorISsSaISsEEEppEv>
  4051e6:	48 83 45 e8 08       	addq   $0x8,-0x18(%rbp)
  4051eb:	48 8d 55 c0          	lea    -0x40(%rbp),%rdx
  4051ef:	48 8d 45 d0          	lea    -0x30(%rbp),%rax
  4051f3:	48 89 d6             	mov    %rdx,%rsi
  4051f6:	48 89 c7             	mov    %rax,%rdi
  4051f9:	e8 ba 07 00 00       	callq  4059b8 <_ZN9__gnu_cxxneIPKSsSt6vectorISsSaISsEEEEbRKNS_17__normal_iteratorIT_T0_EESB_>
  4051fe:	84 c0                	test   %al,%al
  405200:	75 b2                	jne    4051b4 <_ZNSt20__uninitialized_copyILb0EE13__uninit_copyIN9__gnu_cxx17__normal_iteratorIPKSsSt6vectorISsSaISsEEEEPSsEET0_T_SC_SB_+0x1f>
  405202:	48 8b 45 e8          	mov    -0x18(%rbp),%rax
  405206:	eb 33                	jmp    40523b <_ZNSt20__uninitialized_copyILb0EE13__uninit_copyIN9__gnu_cxx17__normal_iteratorIPKSsSt6vectorISsSaISsEEEEPSsEET0_T_SC_SB_+0xa6>
  405208:	48 89 c3             	mov    %rax,%rbx
  40520b:	e8 00 d6 ff ff       	callq  402810 <__cxa_end_catch@plt>
  405210:	48 89 d8             	mov    %rbx,%rax
  405213:	48 89 c7             	mov    %rax,%rdi
  405216:	e8 b5 d6 ff ff       	callq  4028d0 <_Unwind_Resume@plt>
  40521b:	48 89 c7             	mov    %rax,%rdi
  40521e:	e8 2d d6 ff ff       	callq  402850 <__cxa_begin_catch@plt>
  405223:	48 8b 55 e8          	mov    -0x18(%rbp),%rdx
  405227:	48 8b 45 c8          	mov    -0x38(%rbp),%rax
  40522b:	48 89 d6             	mov    %rdx,%rsi
  40522e:	48 89 c7             	mov    %rax,%rdi
  405231:	e8 d1 f5 ff ff       	callq  404807 <_ZSt8_DestroyIPSsEvT_S1_>
  405236:	e8 55 d2 ff ff       	callq  402490 <__cxa_rethrow@plt>
  40523b:	48 83 c4 38          	add    $0x38,%rsp
  40523f:	5b                   	pop    %rbx
  405240:	5d                   	pop    %rbp
  405241:	c3                   	retq   

0000000000405242 <_ZNSaIPSt6vectorISsSaISsEEEC1Ev>:
  405242:	55                   	push   %rbp
  405243:	48 89 e5             	mov    %rsp,%rbp
  405246:	48 83 ec 10          	sub    $0x10,%rsp
  40524a:	48 89 7d f8          	mov    %rdi,-0x8(%rbp)
  40524e:	48 8b 45 f8          	mov    -0x8(%rbp),%rax
  405252:	48 89 c7             	mov    %rax,%rdi
  405255:	e8 30 08 00 00       	callq  405a8a <_ZN9__gnu_cxx13new_allocatorIPSt6vectorISsSaISsEEEC1Ev>
  40525a:	c9                   	leaveq 
  40525b:	c3                   	retq   

000000000040525c <_ZNSt15_Deque_iteratorIPSt6vectorISsSaISsEERS3_PS3_EC1Ev>:
  40525c:	55                   	push   %rbp
  40525d:	48 89 e5             	mov    %rsp,%rbp
  405260:	48 89 7d f8          	mov    %rdi,-0x8(%rbp)
  405264:	48 8b 45 f8          	mov    -0x8(%rbp),%rax
  405268:	48 c7 00 00 00 00 00 	movq   $0x0,(%rax)
  40526f:	48 8b 45 f8          	mov    -0x8(%rbp),%rax
  405273:	48 c7 40 08 00 00 00 	movq   $0x0,0x8(%rax)
  40527a:	00 
  40527b:	48 8b 45 f8          	mov    -0x8(%rbp),%rax
  40527f:	48 c7 40 10 00 00 00 	movq   $0x0,0x10(%rax)
  405286:	00 
  405287:	48 8b 45 f8          	mov    -0x8(%rbp),%rax
  40528b:	48 c7 40 18 00 00 00 	movq   $0x0,0x18(%rax)
  405292:	00 
  405293:	5d                   	pop    %rbp
  405294:	c3                   	retq   
  405295:	90                   	nop

0000000000405296 <_ZN9__gnu_cxx13new_allocatorIPSt6vectorISsSaISsEEED1Ev>:
  405296:	55                   	push   %rbp
  405297:	48 89 e5             	mov    %rsp,%rbp
  40529a:	48 89 7d f8          	mov    %rdi,-0x8(%rbp)
  40529e:	5d                   	pop    %rbp
  40529f:	c3                   	retq   

00000000004052a0 <_ZSt3maxImERKT_S2_S2_>:
  4052a0:	55                   	push   %rbp
  4052a1:	48 89 e5             	mov    %rsp,%rbp
  4052a4:	48 89 7d f8          	mov    %rdi,-0x8(%rbp)
  4052a8:	48 89 75 f0          	mov    %rsi,-0x10(%rbp)
  4052ac:	48 8b 45 f8          	mov    -0x8(%rbp),%rax
  4052b0:	48 8b 10             	mov    (%rax),%rdx
  4052b3:	48 8b 45 f0          	mov    -0x10(%rbp),%rax
  4052b7:	48 8b 00             	mov    (%rax),%rax
  4052ba:	48 39 c2             	cmp    %rax,%rdx
  4052bd:	73 06                	jae    4052c5 <_ZSt3maxImERKT_S2_S2_+0x25>
  4052bf:	48 8b 45 f0          	mov    -0x10(%rbp),%rax
  4052c3:	eb 04                	jmp    4052c9 <_ZSt3maxImERKT_S2_S2_+0x29>
  4052c5:	48 8b 45 f8          	mov    -0x8(%rbp),%rax
  4052c9:	5d                   	pop    %rbp
  4052ca:	c3                   	retq   
  4052cb:	90                   	nop

00000000004052cc <_ZNSt11_Deque_baseIPSt6vectorISsSaISsEESaIS3_EE15_M_allocate_mapEm>:
  4052cc:	55                   	push   %rbp
  4052cd:	48 89 e5             	mov    %rsp,%rbp
  4052d0:	53                   	push   %rbx
  4052d1:	48 83 ec 28          	sub    $0x28,%rsp
  4052d5:	48 89 7d d8          	mov    %rdi,-0x28(%rbp)
  4052d9:	48 89 75 d0          	mov    %rsi,-0x30(%rbp)
  4052dd:	48 8d 45 ef          	lea    -0x11(%rbp),%rax
  4052e1:	48 8b 55 d8          	mov    -0x28(%rbp),%rdx
  4052e5:	48 89 d6             	mov    %rdx,%rsi
  4052e8:	48 89 c7             	mov    %rax,%rdi
  4052eb:	e8 d0 00 00 00       	callq  4053c0 <_ZNKSt11_Deque_baseIPSt6vectorISsSaISsEESaIS3_EE20_M_get_map_allocatorEv>
  4052f0:	48 8b 4d d0          	mov    -0x30(%rbp),%rcx
  4052f4:	48 8d 45 ef          	lea    -0x11(%rbp),%rax
  4052f8:	ba 00 00 00 00       	mov    $0x0,%edx
  4052fd:	48 89 ce             	mov    %rcx,%rsi
  405300:	48 89 c7             	mov    %rax,%rdi
  405303:	e8 8c 07 00 00       	callq  405a94 <_ZN9__gnu_cxx13new_allocatorIPPSt6vectorISsSaISsEEE8allocateEmPKv>
  405308:	48 89 c3             	mov    %rax,%rbx
  40530b:	48 8d 45 ef          	lea    -0x11(%rbp),%rax
  40530f:	48 89 c7             	mov    %rax,%rdi
  405312:	e8 dd 00 00 00       	callq  4053f4 <_ZNSaIPPSt6vectorISsSaISsEEED1Ev>
  405317:	48 89 d8             	mov    %rbx,%rax
  40531a:	eb 1a                	jmp    405336 <_ZNSt11_Deque_baseIPSt6vectorISsSaISsEESaIS3_EE15_M_allocate_mapEm+0x6a>
  40531c:	48 89 c3             	mov    %rax,%rbx
  40531f:	48 8d 45 ef          	lea    -0x11(%rbp),%rax
  405323:	48 89 c7             	mov    %rax,%rdi
  405326:	e8 c9 00 00 00       	callq  4053f4 <_ZNSaIPPSt6vectorISsSaISsEEED1Ev>
  40532b:	48 89 d8             	mov    %rbx,%rax
  40532e:	48 89 c7             	mov    %rax,%rdi
  405331:	e8 9a d5 ff ff       	callq  4028d0 <_Unwind_Resume@plt>
  405336:	48 83 c4 28          	add    $0x28,%rsp
  40533a:	5b                   	pop    %rbx
  40533b:	5d                   	pop    %rbp
  40533c:	c3                   	retq   
  40533d:	90                   	nop

000000000040533e <_ZNSt11_Deque_baseIPSt6vectorISsSaISsEESaIS3_EE15_M_create_nodesEPPS3_S7_>:
  40533e:	55                   	push   %rbp
  40533f:	48 89 e5             	mov    %rsp,%rbp
  405342:	53                   	push   %rbx
  405343:	48 83 ec 38          	sub    $0x38,%rsp
  405347:	48 89 7d d8          	mov    %rdi,-0x28(%rbp)
  40534b:	48 89 75 d0          	mov    %rsi,-0x30(%rbp)
  40534f:	48 89 55 c8          	mov    %rdx,-0x38(%rbp)
  405353:	48 8b 45 d0          	mov    -0x30(%rbp),%rax
  405357:	48 89 45 e8          	mov    %rax,-0x18(%rbp)
  40535b:	eb 18                	jmp    405375 <_ZNSt11_Deque_baseIPSt6vectorISsSaISsEESaIS3_EE15_M_create_nodesEPPS3_S7_+0x37>
  40535d:	48 8b 45 d8          	mov    -0x28(%rbp),%rax
  405361:	48 89 c7             	mov    %rax,%rdi
  405364:	e8 23 f9 ff ff       	callq  404c8c <_ZNSt11_Deque_baseIPSt6vectorISsSaISsEESaIS3_EE16_M_allocate_nodeEv>
  405369:	48 8b 55 e8          	mov    -0x18(%rbp),%rdx
  40536d:	48 89 02             	mov    %rax,(%rdx)
  405370:	48 83 45 e8 08       	addq   $0x8,-0x18(%rbp)
  405375:	48 8b 45 e8          	mov    -0x18(%rbp),%rax
  405379:	48 3b 45 c8          	cmp    -0x38(%rbp),%rax
  40537d:	72 de                	jb     40535d <_ZNSt11_Deque_baseIPSt6vectorISsSaISsEESaIS3_EE15_M_create_nodesEPPS3_S7_+0x1f>
  40537f:	eb 37                	jmp    4053b8 <_ZNSt11_Deque_baseIPSt6vectorISsSaISsEESaIS3_EE15_M_create_nodesEPPS3_S7_+0x7a>
  405381:	48 89 c3             	mov    %rax,%rbx
  405384:	e8 87 d4 ff ff       	callq  402810 <__cxa_end_catch@plt>
  405389:	48 89 d8             	mov    %rbx,%rax
  40538c:	48 89 c7             	mov    %rax,%rdi
  40538f:	e8 3c d5 ff ff       	callq  4028d0 <_Unwind_Resume@plt>
  405394:	48 89 c7             	mov    %rax,%rdi
  405397:	e8 b4 d4 ff ff       	callq  402850 <__cxa_begin_catch@plt>
  40539c:	48 8b 55 e8          	mov    -0x18(%rbp),%rdx
  4053a0:	48 8b 4d d0          	mov    -0x30(%rbp),%rcx
  4053a4:	48 8b 45 d8          	mov    -0x28(%rbp),%rax
  4053a8:	48 89 ce             	mov    %rcx,%rsi
  4053ab:	48 89 c7             	mov    %rax,%rdi
  4053ae:	e8 75 f7 ff ff       	callq  404b28 <_ZNSt11_Deque_baseIPSt6vectorISsSaISsEESaIS3_EE16_M_destroy_nodesEPPS3_S7_>
  4053b3:	e8 d8 d0 ff ff       	callq  402490 <__cxa_rethrow@plt>
  4053b8:	48 83 c4 38          	add    $0x38,%rsp
  4053bc:	5b                   	pop    %rbx
  4053bd:	5d                   	pop    %rbp
  4053be:	c3                   	retq   
  4053bf:	90                   	nop

00000000004053c0 <_ZNKSt11_Deque_baseIPSt6vectorISsSaISsEESaIS3_EE20_M_get_map_allocatorEv>:
  4053c0:	55                   	push   %rbp
  4053c1:	48 89 e5             	mov    %rsp,%rbp
  4053c4:	48 83 ec 10          	sub    $0x10,%rsp
  4053c8:	48 89 7d f8          	mov    %rdi,-0x8(%rbp)
  4053cc:	48 89 75 f0          	mov    %rsi,-0x10(%rbp)
  4053d0:	48 8b 45 f0          	mov    -0x10(%rbp),%rax
  4053d4:	48 89 c7             	mov    %rax,%rdi
  4053d7:	e8 fa 06 00 00       	callq  405ad6 <_ZNKSt11_Deque_baseIPSt6vectorISsSaISsEESaIS3_EE19_M_get_Tp_allocatorEv>
  4053dc:	48 89 c2             	mov    %rax,%rdx
  4053df:	48 8b 45 f8          	mov    -0x8(%rbp),%rax
  4053e3:	48 89 d6             	mov    %rdx,%rsi
  4053e6:	48 89 c7             	mov    %rax,%rdi
  4053e9:	e8 f6 06 00 00       	callq  405ae4 <_ZNSaIPPSt6vectorISsSaISsEEEC1IS2_EERKSaIT_E>
  4053ee:	48 8b 45 f8          	mov    -0x8(%rbp),%rax
  4053f2:	c9                   	leaveq 
  4053f3:	c3                   	retq   

00000000004053f4 <_ZNSaIPPSt6vectorISsSaISsEEED1Ev>:
  4053f4:	55                   	push   %rbp
  4053f5:	48 89 e5             	mov    %rsp,%rbp
  4053f8:	48 83 ec 10          	sub    $0x10,%rsp
  4053fc:	48 89 7d f8          	mov    %rdi,-0x8(%rbp)
  405400:	48 8b 45 f8          	mov    -0x8(%rbp),%rax
  405404:	48 89 c7             	mov    %rax,%rdi
  405407:	e8 f6 06 00 00       	callq  405b02 <_ZN9__gnu_cxx13new_allocatorIPPSt6vectorISsSaISsEEED1Ev>
  40540c:	c9                   	leaveq 
  40540d:	c3                   	retq   

000000000040540e <_ZN9__gnu_cxx13new_allocatorIPPSt6vectorISsSaISsEEE10deallocateEPS5_m>:
  40540e:	55                   	push   %rbp
  40540f:	48 89 e5             	mov    %rsp,%rbp
  405412:	48 83 ec 20          	sub    $0x20,%rsp
  405416:	48 89 7d f8          	mov    %rdi,-0x8(%rbp)
  40541a:	48 89 75 f0          	mov    %rsi,-0x10(%rbp)
  40541e:	48 89 55 e8          	mov    %rdx,-0x18(%rbp)
  405422:	48 8b 45 f0          	mov    -0x10(%rbp),%rax
  405426:	48 89 c7             	mov    %rax,%rdi
  405429:	e8 32 d0 ff ff       	callq  402460 <_ZdlPv@plt>
  40542e:	c9                   	leaveq 
  40542f:	c3                   	retq   

0000000000405430 <_ZSt20uninitialized_fill_nIPSsmSsEvT_T0_RKT1_>:
  405430:	55                   	push   %rbp
  405431:	48 89 e5             	mov    %rsp,%rbp
  405434:	48 83 ec 20          	sub    $0x20,%rsp
  405438:	48 89 7d f8          	mov    %rdi,-0x8(%rbp)
  40543c:	48 89 75 f0          	mov    %rsi,-0x10(%rbp)
  405440:	48 89 55 e8          	mov    %rdx,-0x18(%rbp)
  405444:	48 8b 55 e8          	mov    -0x18(%rbp),%rdx
  405448:	48 8b 4d f0          	mov    -0x10(%rbp),%rcx
  40544c:	48 8b 45 f8          	mov    -0x8(%rbp),%rax
  405450:	48 89 ce             	mov    %rcx,%rsi
  405453:	48 89 c7             	mov    %rax,%rdi
  405456:	e8 b1 06 00 00       	callq  405b0c <_ZNSt22__uninitialized_fill_nILb0EE15__uninit_fill_nIPSsmSsEEvT_T0_RKT1_>
  40545b:	c9                   	leaveq 
  40545c:	c3                   	retq   
  40545d:	90                   	nop

000000000040545e <_ZNSt5dequeIPSt6vectorISsSaISsEESaIS3_EE17_M_reallocate_mapEmb>:
  40545e:	55                   	push   %rbp
  40545f:	48 89 e5             	mov    %rsp,%rbp
  405462:	53                   	push   %rbx
  405463:	48 83 ec 58          	sub    $0x58,%rsp
  405467:	48 89 7d b8          	mov    %rdi,-0x48(%rbp)
  40546b:	48 89 75 b0          	mov    %rsi,-0x50(%rbp)
  40546f:	89 d0                	mov    %edx,%eax
  405471:	88 45 ac             	mov    %al,-0x54(%rbp)
  405474:	48 8b 45 b8          	mov    -0x48(%rbp),%rax
  405478:	48 8b 40 48          	mov    0x48(%rax),%rax
  40547c:	48 89 c2             	mov    %rax,%rdx
  40547f:	48 8b 45 b8          	mov    -0x48(%rbp),%rax
  405483:	48 8b 40 28          	mov    0x28(%rax),%rax
  405487:	48 29 c2             	sub    %rax,%rdx
  40548a:	48 89 d0             	mov    %rdx,%rax
  40548d:	48 c1 f8 03          	sar    $0x3,%rax
  405491:	48 83 c0 01          	add    $0x1,%rax
  405495:	48 89 45 d0          	mov    %rax,-0x30(%rbp)
  405499:	48 8b 55 b0          	mov    -0x50(%rbp),%rdx
  40549d:	48 8b 45 d0          	mov    -0x30(%rbp),%rax
  4054a1:	48 01 d0             	add    %rdx,%rax
  4054a4:	48 89 45 d8          	mov    %rax,-0x28(%rbp)
  4054a8:	48 8b 45 b8          	mov    -0x48(%rbp),%rax
  4054ac:	48 8b 40 08          	mov    0x8(%rax),%rax
  4054b0:	48 8b 55 d8          	mov    -0x28(%rbp),%rdx
  4054b4:	48 01 d2             	add    %rdx,%rdx
  4054b7:	48 39 d0             	cmp    %rdx,%rax
  4054ba:	0f 86 aa 00 00 00    	jbe    40556a <_ZNSt5dequeIPSt6vectorISsSaISsEESaIS3_EE17_M_reallocate_mapEmb+0x10c>
  4054c0:	48 8b 45 b8          	mov    -0x48(%rbp),%rax
  4054c4:	48 8b 10             	mov    (%rax),%rdx
  4054c7:	48 8b 45 b8          	mov    -0x48(%rbp),%rax
  4054cb:	48 8b 40 08          	mov    0x8(%rax),%rax
  4054cf:	48 2b 45 d8          	sub    -0x28(%rbp),%rax
  4054d3:	48 d1 e8             	shr    %rax
  4054d6:	48 8d 0c c5 00 00 00 	lea    0x0(,%rax,8),%rcx
  4054dd:	00 
  4054de:	80 7d ac 00          	cmpb   $0x0,-0x54(%rbp)
  4054e2:	74 0a                	je     4054ee <_ZNSt5dequeIPSt6vectorISsSaISsEESaIS3_EE17_M_reallocate_mapEmb+0x90>
  4054e4:	48 8b 45 b0          	mov    -0x50(%rbp),%rax
  4054e8:	48 c1 e0 03          	shl    $0x3,%rax
  4054ec:	eb 05                	jmp    4054f3 <_ZNSt5dequeIPSt6vectorISsSaISsEESaIS3_EE17_M_reallocate_mapEmb+0x95>
  4054ee:	b8 00 00 00 00       	mov    $0x0,%eax
  4054f3:	48 01 c8             	add    %rcx,%rax
  4054f6:	48 01 d0             	add    %rdx,%rax
  4054f9:	48 89 45 c8          	mov    %rax,-0x38(%rbp)
  4054fd:	48 8b 45 b8          	mov    -0x48(%rbp),%rax
  405501:	48 8b 40 28          	mov    0x28(%rax),%rax
  405505:	48 3b 45 c8          	cmp    -0x38(%rbp),%rax
  405509:	76 28                	jbe    405533 <_ZNSt5dequeIPSt6vectorISsSaISsEESaIS3_EE17_M_reallocate_mapEmb+0xd5>
  40550b:	48 8b 45 b8          	mov    -0x48(%rbp),%rax
  40550f:	48 8b 40 48          	mov    0x48(%rax),%rax
  405513:	48 8d 48 08          	lea    0x8(%rax),%rcx
  405517:	48 8b 45 b8          	mov    -0x48(%rbp),%rax
  40551b:	48 8b 40 28          	mov    0x28(%rax),%rax
  40551f:	48 8b 55 c8          	mov    -0x38(%rbp),%rdx
  405523:	48 89 ce             	mov    %rcx,%rsi
  405526:	48 89 c7             	mov    %rax,%rdi
  405529:	e8 65 06 00 00       	callq  405b93 <_ZSt4copyIPPPSt6vectorISsSaISsEES5_ET0_T_S7_S6_>
  40552e:	e9 0f 01 00 00       	jmpq   405642 <_ZNSt5dequeIPSt6vectorISsSaISsEESaIS3_EE17_M_reallocate_mapEmb+0x1e4>
  405533:	48 8b 45 d0          	mov    -0x30(%rbp),%rax
  405537:	48 8d 14 c5 00 00 00 	lea    0x0(,%rax,8),%rdx
  40553e:	00 
  40553f:	48 8b 45 c8          	mov    -0x38(%rbp),%rax
  405543:	48 01 c2             	add    %rax,%rdx
  405546:	48 8b 45 b8          	mov    -0x48(%rbp),%rax
  40554a:	48 8b 40 48          	mov    0x48(%rax),%rax
  40554e:	48 8d 48 08          	lea    0x8(%rax),%rcx
  405552:	48 8b 45 b8          	mov    -0x48(%rbp),%rax
  405556:	48 8b 40 28          	mov    0x28(%rax),%rax
  40555a:	48 89 ce             	mov    %rcx,%rsi
  40555d:	48 89 c7             	mov    %rax,%rdi
  405560:	e8 74 06 00 00       	callq  405bd9 <_ZSt13copy_backwardIPPPSt6vectorISsSaISsEES5_ET0_T_S7_S6_>
  405565:	e9 d8 00 00 00       	jmpq   405642 <_ZNSt5dequeIPSt6vectorISsSaISsEESaIS3_EE17_M_reallocate_mapEmb+0x1e4>
  40556a:	48 8b 45 b8          	mov    -0x48(%rbp),%rax
  40556e:	48 8b 58 08          	mov    0x8(%rax),%rbx
  405572:	48 8b 45 b8          	mov    -0x48(%rbp),%rax
  405576:	48 8d 50 08          	lea    0x8(%rax),%rdx
  40557a:	48 8d 45 b0          	lea    -0x50(%rbp),%rax
  40557e:	48 89 c6             	mov    %rax,%rsi
  405581:	48 89 d7             	mov    %rdx,%rdi
  405584:	e8 17 fd ff ff       	callq  4052a0 <_ZSt3maxImERKT_S2_S2_>
  405589:	48 8b 00             	mov    (%rax),%rax
  40558c:	48 01 d8             	add    %rbx,%rax
  40558f:	48 83 c0 02          	add    $0x2,%rax
  405593:	48 89 45 e0          	mov    %rax,-0x20(%rbp)
  405597:	48 8b 45 b8          	mov    -0x48(%rbp),%rax
  40559b:	48 8b 55 e0          	mov    -0x20(%rbp),%rdx
  40559f:	48 89 d6             	mov    %rdx,%rsi
  4055a2:	48 89 c7             	mov    %rax,%rdi
  4055a5:	e8 22 fd ff ff       	callq  4052cc <_ZNSt11_Deque_baseIPSt6vectorISsSaISsEESaIS3_EE15_M_allocate_mapEm>
  4055aa:	48 89 45 e8          	mov    %rax,-0x18(%rbp)
  4055ae:	48 8b 45 d8          	mov    -0x28(%rbp),%rax
  4055b2:	48 8b 55 e0          	mov    -0x20(%rbp),%rdx
  4055b6:	48 29 c2             	sub    %rax,%rdx
  4055b9:	48 89 d0             	mov    %rdx,%rax
  4055bc:	48 d1 e8             	shr    %rax
  4055bf:	48 8d 14 c5 00 00 00 	lea    0x0(,%rax,8),%rdx
  4055c6:	00 
  4055c7:	80 7d ac 00          	cmpb   $0x0,-0x54(%rbp)
  4055cb:	74 0a                	je     4055d7 <_ZNSt5dequeIPSt6vectorISsSaISsEESaIS3_EE17_M_reallocate_mapEmb+0x179>
  4055cd:	48 8b 45 b0          	mov    -0x50(%rbp),%rax
  4055d1:	48 c1 e0 03          	shl    $0x3,%rax
  4055d5:	eb 05                	jmp    4055dc <_ZNSt5dequeIPSt6vectorISsSaISsEESaIS3_EE17_M_reallocate_mapEmb+0x17e>
  4055d7:	b8 00 00 00 00       	mov    $0x0,%eax
  4055dc:	48 01 c2             	add    %rax,%rdx
  4055df:	48 8b 45 e8          	mov    -0x18(%rbp),%rax
  4055e3:	48 01 d0             	add    %rdx,%rax
  4055e6:	48 89 45 c8          	mov    %rax,-0x38(%rbp)
  4055ea:	48 8b 45 b8          	mov    -0x48(%rbp),%rax
  4055ee:	48 8b 40 48          	mov    0x48(%rax),%rax
  4055f2:	48 8d 48 08          	lea    0x8(%rax),%rcx
  4055f6:	48 8b 45 b8          	mov    -0x48(%rbp),%rax
  4055fa:	48 8b 40 28          	mov    0x28(%rax),%rax
  4055fe:	48 8b 55 c8          	mov    -0x38(%rbp),%rdx
  405602:	48 89 ce             	mov    %rcx,%rsi
  405605:	48 89 c7             	mov    %rax,%rdi
  405608:	e8 86 05 00 00       	callq  405b93 <_ZSt4copyIPPPSt6vectorISsSaISsEES5_ET0_T_S7_S6_>
  40560d:	48 8b 45 b8          	mov    -0x48(%rbp),%rax
  405611:	48 8b 50 08          	mov    0x8(%rax),%rdx
  405615:	48 8b 45 b8          	mov    -0x48(%rbp),%rax
  405619:	48 8b 08             	mov    (%rax),%rcx
  40561c:	48 8b 45 b8          	mov    -0x48(%rbp),%rax
  405620:	48 89 ce             	mov    %rcx,%rsi
  405623:	48 89 c7             	mov    %rax,%rdi
  405626:	e8 43 f5 ff ff       	callq  404b6e <_ZNSt11_Deque_baseIPSt6vectorISsSaISsEESaIS3_EE17_M_deallocate_mapEPPS3_m>
  40562b:	48 8b 45 b8          	mov    -0x48(%rbp),%rax
  40562f:	48 8b 55 e8          	mov    -0x18(%rbp),%rdx
  405633:	48 89 10             	mov    %rdx,(%rax)
  405636:	48 8b 45 b8          	mov    -0x48(%rbp),%rax
  40563a:	48 8b 55 e0          	mov    -0x20(%rbp),%rdx
  40563e:	48 89 50 08          	mov    %rdx,0x8(%rax)
  405642:	48 8b 45 b8          	mov    -0x48(%rbp),%rax
  405646:	48 8d 50 10          	lea    0x10(%rax),%rdx
  40564a:	48 8b 45 c8          	mov    -0x38(%rbp),%rax
  40564e:	48 89 c6             	mov    %rax,%rsi
  405651:	48 89 d7             	mov    %rdx,%rdi
  405654:	e8 63 f6 ff ff       	callq  404cbc <_ZNSt15_Deque_iteratorIPSt6vectorISsSaISsEERS3_PS3_E11_M_set_nodeEPS5_>
  405659:	48 8b 45 d0          	mov    -0x30(%rbp),%rax
  40565d:	48 c1 e0 03          	shl    $0x3,%rax
  405661:	48 8d 50 f8          	lea    -0x8(%rax),%rdx
  405665:	48 8b 45 c8          	mov    -0x38(%rbp),%rax
  405669:	48 01 c2             	add    %rax,%rdx
  40566c:	48 8b 45 b8          	mov    -0x48(%rbp),%rax
  405670:	48 83 c0 30          	add    $0x30,%rax
  405674:	48 89 d6             	mov    %rdx,%rsi
  405677:	48 89 c7             	mov    %rax,%rdi
  40567a:	e8 3d f6 ff ff       	callq  404cbc <_ZNSt15_Deque_iteratorIPSt6vectorISsSaISsEERS3_PS3_E11_M_set_nodeEPS5_>
  40567f:	48 83 c4 58          	add    $0x58,%rsp
  405683:	5b                   	pop    %rbx
  405684:	5d                   	pop    %rbp
  405685:	c3                   	retq   

0000000000405686 <_ZN9__gnu_cxx13new_allocatorIPSt6vectorISsSaISsEEE8allocateEmPKv>:
  405686:	55                   	push   %rbp
  405687:	48 89 e5             	mov    %rsp,%rbp
  40568a:	48 83 ec 20          	sub    $0x20,%rsp
  40568e:	48 89 7d f8          	mov    %rdi,-0x8(%rbp)
  405692:	48 89 75 f0          	mov    %rsi,-0x10(%rbp)
  405696:	48 89 55 e8          	mov    %rdx,-0x18(%rbp)
  40569a:	48 8b 45 f8          	mov    -0x8(%rbp),%rax
  40569e:	48 89 c7             	mov    %rax,%rdi
  4056a1:	e8 7a 05 00 00       	callq  405c20 <_ZNK9__gnu_cxx13new_allocatorIPSt6vectorISsSaISsEEE8max_sizeEv>
  4056a6:	48 3b 45 f0          	cmp    -0x10(%rbp),%rax
  4056aa:	0f 92 c0             	setb   %al
  4056ad:	84 c0                	test   %al,%al
  4056af:	74 05                	je     4056b6 <_ZN9__gnu_cxx13new_allocatorIPSt6vectorISsSaISsEEE8allocateEmPKv+0x30>
  4056b1:	e8 6a d1 ff ff       	callq  402820 <_ZSt17__throw_bad_allocv@plt>
  4056b6:	48 8b 45 f0          	mov    -0x10(%rbp),%rax
  4056ba:	48 c1 e0 03          	shl    $0x3,%rax
  4056be:	48 89 c7             	mov    %rax,%rdi
  4056c1:	e8 fa d1 ff ff       	callq  4028c0 <_Znwm@plt>
  4056c6:	c9                   	leaveq 
  4056c7:	c3                   	retq   

00000000004056c8 <_ZNSt15_Deque_iteratorIPSt6vectorISsSaISsEERS3_PS3_E14_S_buffer_sizeEv>:
  4056c8:	55                   	push   %rbp
  4056c9:	48 89 e5             	mov    %rsp,%rbp
  4056cc:	bf 08 00 00 00       	mov    $0x8,%edi
  4056d1:	e8 21 de ff ff       	callq  4034f7 <_ZSt16__deque_buf_sizem>
  4056d6:	5d                   	pop    %rbp
  4056d7:	c3                   	retq   

00000000004056d8 <_ZN9__gnu_cxx13new_allocatorIPSt6vectorISsSaISsEEE10deallocateEPS4_m>:
  4056d8:	55                   	push   %rbp
  4056d9:	48 89 e5             	mov    %rsp,%rbp
  4056dc:	48 83 ec 20          	sub    $0x20,%rsp
  4056e0:	48 89 7d f8          	mov    %rdi,-0x8(%rbp)
  4056e4:	48 89 75 f0          	mov    %rsi,-0x10(%rbp)
  4056e8:	48 89 55 e8          	mov    %rdx,-0x18(%rbp)
  4056ec:	48 8b 45 f0          	mov    -0x10(%rbp),%rax
  4056f0:	48 89 c7             	mov    %rax,%rdi
  4056f3:	e8 68 cd ff ff       	callq  402460 <_ZdlPv@plt>
  4056f8:	c9                   	leaveq 
  4056f9:	c3                   	retq   

00000000004056fa <_ZN9__gnu_cxx13new_allocatorISsE8allocateEmPKv>:
  4056fa:	55                   	push   %rbp
  4056fb:	48 89 e5             	mov    %rsp,%rbp
  4056fe:	48 83 ec 20          	sub    $0x20,%rsp
  405702:	48 89 7d f8          	mov    %rdi,-0x8(%rbp)
  405706:	48 89 75 f0          	mov    %rsi,-0x10(%rbp)
  40570a:	48 89 55 e8          	mov    %rdx,-0x18(%rbp)
  40570e:	48 8b 45 f8          	mov    -0x8(%rbp),%rax
  405712:	48 89 c7             	mov    %rax,%rdi
  405715:	e8 1a 05 00 00       	callq  405c34 <_ZNK9__gnu_cxx13new_allocatorISsE8max_sizeEv>
  40571a:	48 3b 45 f0          	cmp    -0x10(%rbp),%rax
  40571e:	0f 92 c0             	setb   %al
  405721:	84 c0                	test   %al,%al
  405723:	74 05                	je     40572a <_ZN9__gnu_cxx13new_allocatorISsE8allocateEmPKv+0x30>
  405725:	e8 f6 d0 ff ff       	callq  402820 <_ZSt17__throw_bad_allocv@plt>
  40572a:	48 8b 45 f0          	mov    -0x10(%rbp),%rax
  40572e:	48 c1 e0 03          	shl    $0x3,%rax
  405732:	48 89 c7             	mov    %rax,%rdi
  405735:	e8 86 d1 ff ff       	callq  4028c0 <_Znwm@plt>
  40573a:	c9                   	leaveq 
  40573b:	c3                   	retq   

000000000040573c <_ZNSt10_Iter_baseIN9__gnu_cxx17__normal_iteratorIPKSsSt6vectorISsSaISsEEEELb0EE7_S_baseES7_>:
  40573c:	55                   	push   %rbp
  40573d:	48 89 e5             	mov    %rsp,%rbp
  405740:	48 89 7d f0          	mov    %rdi,-0x10(%rbp)
  405744:	48 8b 45 f0          	mov    -0x10(%rbp),%rax
  405748:	5d                   	pop    %rbp
  405749:	c3                   	retq   

000000000040574a <_ZSt12__niter_baseIN9__gnu_cxx17__normal_iteratorIPKSsSt6vectorISsSaISsEEEEENSt11_Niter_baseIT_E13iterator_typeES9_>:
  40574a:	55                   	push   %rbp
  40574b:	48 89 e5             	mov    %rsp,%rbp
  40574e:	48 83 ec 10          	sub    $0x10,%rsp
  405752:	48 89 7d f0          	mov    %rdi,-0x10(%rbp)
  405756:	48 8b 45 f0          	mov    -0x10(%rbp),%rax
  40575a:	48 89 c7             	mov    %rax,%rdi
  40575d:	e8 e6 04 00 00       	callq  405c48 <_ZNSt10_Iter_baseIN9__gnu_cxx17__normal_iteratorIPKSsSt6vectorISsSaISsEEEELb1EE7_S_baseES7_>
  405762:	c9                   	leaveq 
  405763:	c3                   	retq   

0000000000405764 <_ZSt12__niter_baseIN9__gnu_cxx17__normal_iteratorIPSsSt6vectorISsSaISsEEEEENSt11_Niter_baseIT_E13iterator_typeES8_>:
  405764:	55                   	push   %rbp
  405765:	48 89 e5             	mov    %rsp,%rbp
  405768:	48 83 ec 10          	sub    $0x10,%rsp
  40576c:	48 89 7d f0          	mov    %rdi,-0x10(%rbp)
  405770:	48 8b 45 f0          	mov    -0x10(%rbp),%rax
  405774:	48 89 c7             	mov    %rax,%rdi
  405777:	e8 e9 04 00 00       	callq  405c65 <_ZNSt10_Iter_baseIN9__gnu_cxx17__normal_iteratorIPSsSt6vectorISsSaISsEEEELb1EE7_S_baseES6_>
  40577c:	c9                   	leaveq 
  40577d:	c3                   	retq   

000000000040577e <_ZSt13__copy_move_aILb0EPKSsPSsET1_T0_S4_S3_>:
  40577e:	55                   	push   %rbp
  40577f:	48 89 e5             	mov    %rsp,%rbp
  405782:	48 83 ec 30          	sub    $0x30,%rsp
  405786:	48 89 7d e8          	mov    %rdi,-0x18(%rbp)
  40578a:	48 89 75 e0          	mov    %rsi,-0x20(%rbp)
  40578e:	48 89 55 d8          	mov    %rdx,-0x28(%rbp)
  405792:	c6 45 ff 00          	movb   $0x0,-0x1(%rbp)
  405796:	48 8b 55 d8          	mov    -0x28(%rbp),%rdx
  40579a:	48 8b 4d e0          	mov    -0x20(%rbp),%rcx
  40579e:	48 8b 45 e8          	mov    -0x18(%rbp),%rax
  4057a2:	48 89 ce             	mov    %rcx,%rsi
  4057a5:	48 89 c7             	mov    %rax,%rdi
  4057a8:	e8 d5 04 00 00       	callq  405c82 <_ZNSt11__copy_moveILb0ELb0ESt26random_access_iterator_tagE8__copy_mIPKSsPSsEET0_T_S7_S6_>
  4057ad:	c9                   	leaveq 
  4057ae:	c3                   	retq   

00000000004057af <_ZNSt12_Destroy_auxILb0EE9__destroyIN9__gnu_cxx17__normal_iteratorIPSsSt6vectorISsSaISsEEEEEEvT_S9_>:
  4057af:	55                   	push   %rbp
  4057b0:	48 89 e5             	mov    %rsp,%rbp
  4057b3:	48 83 ec 20          	sub    $0x20,%rsp
  4057b7:	48 89 7d f0          	mov    %rdi,-0x10(%rbp)
  4057bb:	48 89 75 e0          	mov    %rsi,-0x20(%rbp)
  4057bf:	eb 28                	jmp    4057e9 <_ZNSt12_Destroy_auxILb0EE9__destroyIN9__gnu_cxx17__normal_iteratorIPSsSt6vectorISsSaISsEEEEEEvT_S9_+0x3a>
  4057c1:	48 8d 45 f0          	lea    -0x10(%rbp),%rax
  4057c5:	48 89 c7             	mov    %rax,%rdi
  4057c8:	e8 f7 f7 ff ff       	callq  404fc4 <_ZNK9__gnu_cxx17__normal_iteratorIPSsSt6vectorISsSaISsEEEdeEv>
  4057cd:	48 89 c7             	mov    %rax,%rdi
  4057d0:	e8 ad 01 00 00       	callq  405982 <_ZSt11__addressofISsEPT_RS0_>
  4057d5:	48 89 c7             	mov    %rax,%rdi
  4057d8:	e8 b3 01 00 00       	callq  405990 <_ZSt8_DestroyISsEvPT_>
  4057dd:	48 8d 45 f0          	lea    -0x10(%rbp),%rax
  4057e1:	48 89 c7             	mov    %rax,%rdi
  4057e4:	e8 31 05 00 00       	callq  405d1a <_ZN9__gnu_cxx17__normal_iteratorIPSsSt6vectorISsSaISsEEEppEv>
  4057e9:	48 8d 55 e0          	lea    -0x20(%rbp),%rdx
  4057ed:	48 8d 45 f0          	lea    -0x10(%rbp),%rax
  4057f1:	48 89 d6             	mov    %rdx,%rsi
  4057f4:	48 89 c7             	mov    %rax,%rdi
  4057f7:	e8 e1 04 00 00       	callq  405cdd <_ZN9__gnu_cxxneIPSsSt6vectorISsSaISsEEEEbRKNS_17__normal_iteratorIT_T0_EESA_>
  4057fc:	84 c0                	test   %al,%al
  4057fe:	75 c1                	jne    4057c1 <_ZNSt12_Destroy_auxILb0EE9__destroyIN9__gnu_cxx17__normal_iteratorIPSsSt6vectorISsSaISsEEEEEEvT_S9_+0x12>
  405800:	c9                   	leaveq 
  405801:	c3                   	retq   

0000000000405802 <_ZNSt10_Iter_baseIPSsLb0EE7_S_baseES0_>:
  405802:	55                   	push   %rbp
  405803:	48 89 e5             	mov    %rsp,%rbp
  405806:	48 89 7d f8          	mov    %rdi,-0x8(%rbp)
  40580a:	48 8b 45 f8          	mov    -0x8(%rbp),%rax
  40580e:	5d                   	pop    %rbp
  40580f:	c3                   	retq   

0000000000405810 <_ZSt12__niter_baseIPSsENSt11_Niter_baseIT_E13iterator_typeES2_>:
  405810:	55                   	push   %rbp
  405811:	48 89 e5             	mov    %rsp,%rbp
  405814:	48 83 ec 10          	sub    $0x10,%rsp
  405818:	48 89 7d f8          	mov    %rdi,-0x8(%rbp)
  40581c:	48 8b 45 f8          	mov    -0x8(%rbp),%rax
  405820:	48 89 c7             	mov    %rax,%rdi
  405823:	e8 da ff ff ff       	callq  405802 <_ZNSt10_Iter_baseIPSsLb0EE7_S_baseES0_>
  405828:	c9                   	leaveq 
  405829:	c3                   	retq   

000000000040582a <_ZSt13__copy_move_aILb0EPSsS0_ET1_T0_S2_S1_>:
  40582a:	55                   	push   %rbp
  40582b:	48 89 e5             	mov    %rsp,%rbp
  40582e:	48 83 ec 30          	sub    $0x30,%rsp
  405832:	48 89 7d e8          	mov    %rdi,-0x18(%rbp)
  405836:	48 89 75 e0          	mov    %rsi,-0x20(%rbp)
  40583a:	48 89 55 d8          	mov    %rdx,-0x28(%rbp)
  40583e:	c6 45 ff 00          	movb   $0x0,-0x1(%rbp)
  405842:	48 8b 55 d8          	mov    -0x28(%rbp),%rdx
  405846:	48 8b 4d e0          	mov    -0x20(%rbp),%rcx
  40584a:	48 8b 45 e8          	mov    -0x18(%rbp),%rax
  40584e:	48 89 ce             	mov    %rcx,%rsi
  405851:	48 89 c7             	mov    %rax,%rdi
  405854:	e8 e1 04 00 00       	callq  405d3a <_ZNSt11__copy_moveILb0ELb0ESt26random_access_iterator_tagE8__copy_mIPSsS3_EET0_T_S5_S4_>
  405859:	c9                   	leaveq 
  40585a:	c3                   	retq   

000000000040585b <_ZNSt20__uninitialized_copyILb0EE13__uninit_copyIPSsS2_EET0_T_S4_S3_>:
  40585b:	55                   	push   %rbp
  40585c:	48 89 e5             	mov    %rsp,%rbp
  40585f:	53                   	push   %rbx
  405860:	48 83 ec 38          	sub    $0x38,%rsp
  405864:	48 89 7d d8          	mov    %rdi,-0x28(%rbp)
  405868:	48 89 75 d0          	mov    %rsi,-0x30(%rbp)
  40586c:	48 89 55 c8          	mov    %rdx,-0x38(%rbp)
  405870:	48 8b 45 c8          	mov    -0x38(%rbp),%rax
  405874:	48 89 45 e8          	mov    %rax,-0x18(%rbp)
  405878:	eb 25                	jmp    40589f <_ZNSt20__uninitialized_copyILb0EE13__uninit_copyIPSsS2_EET0_T_S4_S3_+0x44>
  40587a:	48 8b 45 e8          	mov    -0x18(%rbp),%rax
  40587e:	48 89 c7             	mov    %rax,%rdi
  405881:	e8 fc 00 00 00       	callq  405982 <_ZSt11__addressofISsEPT_RS0_>
  405886:	48 8b 55 d8          	mov    -0x28(%rbp),%rdx
  40588a:	48 89 d6             	mov    %rdx,%rsi
  40588d:	48 89 c7             	mov    %rax,%rdi
  405890:	e8 90 01 00 00       	callq  405a25 <_ZSt10_ConstructISsSsEvPT_RKT0_>
  405895:	48 83 45 d8 08       	addq   $0x8,-0x28(%rbp)
  40589a:	48 83 45 e8 08       	addq   $0x8,-0x18(%rbp)
  40589f:	48 8b 45 d8          	mov    -0x28(%rbp),%rax
  4058a3:	48 3b 45 d0          	cmp    -0x30(%rbp),%rax
  4058a7:	75 d1                	jne    40587a <_ZNSt20__uninitialized_copyILb0EE13__uninit_copyIPSsS2_EET0_T_S4_S3_+0x1f>
  4058a9:	48 8b 45 e8          	mov    -0x18(%rbp),%rax
  4058ad:	eb 33                	jmp    4058e2 <_ZNSt20__uninitialized_copyILb0EE13__uninit_copyIPSsS2_EET0_T_S4_S3_+0x87>
  4058af:	48 89 c3             	mov    %rax,%rbx
  4058b2:	e8 59 cf ff ff       	callq  402810 <__cxa_end_catch@plt>
  4058b7:	48 89 d8             	mov    %rbx,%rax
  4058ba:	48 89 c7             	mov    %rax,%rdi
  4058bd:	e8 0e d0 ff ff       	callq  4028d0 <_Unwind_Resume@plt>
  4058c2:	48 89 c7             	mov    %rax,%rdi
  4058c5:	e8 86 cf ff ff       	callq  402850 <__cxa_begin_catch@plt>
  4058ca:	48 8b 55 e8          	mov    -0x18(%rbp),%rdx
  4058ce:	48 8b 45 c8          	mov    -0x38(%rbp),%rax
  4058d2:	48 89 d6             	mov    %rdx,%rsi
  4058d5:	48 89 c7             	mov    %rax,%rdi
  4058d8:	e8 2a ef ff ff       	callq  404807 <_ZSt8_DestroyIPSsEvT_S1_>
  4058dd:	e8 ae cb ff ff       	callq  402490 <__cxa_rethrow@plt>
  4058e2:	48 83 c4 38          	add    $0x38,%rsp
  4058e6:	5b                   	pop    %rbx
  4058e7:	5d                   	pop    %rbp
  4058e8:	c3                   	retq   

00000000004058e9 <_ZSt23__copy_move_backward_a2ILb0EPSsS0_ET1_T0_S2_S1_>:
  4058e9:	55                   	push   %rbp
  4058ea:	48 89 e5             	mov    %rsp,%rbp
  4058ed:	41 54                	push   %r12
  4058ef:	53                   	push   %rbx
  4058f0:	48 83 ec 20          	sub    $0x20,%rsp
  4058f4:	48 89 7d e8          	mov    %rdi,-0x18(%rbp)
  4058f8:	48 89 75 e0          	mov    %rsi,-0x20(%rbp)
  4058fc:	48 89 55 d8          	mov    %rdx,-0x28(%rbp)
  405900:	48 8b 45 d8          	mov    -0x28(%rbp),%rax
  405904:	48 89 c7             	mov    %rax,%rdi
  405907:	e8 04 ff ff ff       	callq  405810 <_ZSt12__niter_baseIPSsENSt11_Niter_baseIT_E13iterator_typeES2_>
  40590c:	49 89 c4             	mov    %rax,%r12
  40590f:	48 8b 45 e0          	mov    -0x20(%rbp),%rax
  405913:	48 89 c7             	mov    %rax,%rdi
  405916:	e8 f5 fe ff ff       	callq  405810 <_ZSt12__niter_baseIPSsENSt11_Niter_baseIT_E13iterator_typeES2_>
  40591b:	48 89 c3             	mov    %rax,%rbx
  40591e:	48 8b 45 e8          	mov    -0x18(%rbp),%rax
  405922:	48 89 c7             	mov    %rax,%rdi
  405925:	e8 e6 fe ff ff       	callq  405810 <_ZSt12__niter_baseIPSsENSt11_Niter_baseIT_E13iterator_typeES2_>
  40592a:	4c 89 e2             	mov    %r12,%rdx
  40592d:	48 89 de             	mov    %rbx,%rsi
  405930:	48 89 c7             	mov    %rax,%rdi
  405933:	e8 5d 04 00 00       	callq  405d95 <_ZSt22__copy_move_backward_aILb0EPSsS0_ET1_T0_S2_S1_>
  405938:	48 83 c4 20          	add    $0x20,%rsp
  40593c:	5b                   	pop    %rbx
  40593d:	41 5c                	pop    %r12
  40593f:	5d                   	pop    %rbp
  405940:	c3                   	retq   
  405941:	90                   	nop

0000000000405942 <_ZNKSt6vectorISsSaISsEE8max_sizeEv>:
  405942:	55                   	push   %rbp
  405943:	48 89 e5             	mov    %rsp,%rbp
  405946:	48 83 ec 10          	sub    $0x10,%rsp
  40594a:	48 89 7d f8          	mov    %rdi,-0x8(%rbp)
  40594e:	48 8b 45 f8          	mov    -0x8(%rbp),%rax
  405952:	48 89 c7             	mov    %rax,%rdi
  405955:	e8 1e e4 ff ff       	callq  403d78 <_ZNKSt12_Vector_baseISsSaISsEE19_M_get_Tp_allocatorEv>
  40595a:	48 89 c7             	mov    %rax,%rdi
  40595d:	e8 64 04 00 00       	callq  405dc6 <_ZN9__gnu_cxx14__alloc_traitsISaISsEE8max_sizeERKS1_>
  405962:	c9                   	leaveq 
  405963:	c3                   	retq   

0000000000405964 <_ZN9__gnu_cxx13new_allocatorISsE7destroyEPSs>:
  405964:	55                   	push   %rbp
  405965:	48 89 e5             	mov    %rsp,%rbp
  405968:	48 83 ec 10          	sub    $0x10,%rsp
  40596c:	48 89 7d f8          	mov    %rdi,-0x8(%rbp)
  405970:	48 89 75 f0          	mov    %rsi,-0x10(%rbp)
  405974:	48 8b 45 f0          	mov    -0x10(%rbp),%rax
  405978:	48 89 c7             	mov    %rax,%rdi
  40597b:	e8 20 cc ff ff       	callq  4025a0 <_ZNSsD1Ev@plt>
  405980:	c9                   	leaveq 
  405981:	c3                   	retq   

0000000000405982 <_ZSt11__addressofISsEPT_RS0_>:
  405982:	55                   	push   %rbp
  405983:	48 89 e5             	mov    %rsp,%rbp
  405986:	48 89 7d f8          	mov    %rdi,-0x8(%rbp)
  40598a:	48 8b 45 f8          	mov    -0x8(%rbp),%rax
  40598e:	5d                   	pop    %rbp
  40598f:	c3                   	retq   

0000000000405990 <_ZSt8_DestroyISsEvPT_>:
  405990:	55                   	push   %rbp
  405991:	48 89 e5             	mov    %rsp,%rbp
  405994:	48 83 ec 10          	sub    $0x10,%rsp
  405998:	48 89 7d f8          	mov    %rdi,-0x8(%rbp)
  40599c:	48 8b 45 f8          	mov    -0x8(%rbp),%rax
  4059a0:	48 89 c7             	mov    %rax,%rdi
  4059a3:	e8 f8 cb ff ff       	callq  4025a0 <_ZNSsD1Ev@plt>
  4059a8:	c9                   	leaveq 
  4059a9:	c3                   	retq   

00000000004059aa <_ZN9__gnu_cxx13new_allocatorISsEC1ERKS1_>:
  4059aa:	55                   	push   %rbp
  4059ab:	48 89 e5             	mov    %rsp,%rbp
  4059ae:	48 89 7d f8          	mov    %rdi,-0x8(%rbp)
  4059b2:	48 89 75 f0          	mov    %rsi,-0x10(%rbp)
  4059b6:	5d                   	pop    %rbp
  4059b7:	c3                   	retq   

00000000004059b8 <_ZN9__gnu_cxxneIPKSsSt6vectorISsSaISsEEEEbRKNS_17__normal_iteratorIT_T0_EESB_>:
  4059b8:	55                   	push   %rbp
  4059b9:	48 89 e5             	mov    %rsp,%rbp
  4059bc:	53                   	push   %rbx
  4059bd:	48 83 ec 18          	sub    $0x18,%rsp
  4059c1:	48 89 7d e8          	mov    %rdi,-0x18(%rbp)
  4059c5:	48 89 75 e0          	mov    %rsi,-0x20(%rbp)
  4059c9:	48 8b 45 e8          	mov    -0x18(%rbp),%rax
  4059cd:	48 89 c7             	mov    %rax,%rdi
  4059d0:	e8 0b 04 00 00       	callq  405de0 <_ZNK9__gnu_cxx17__normal_iteratorIPKSsSt6vectorISsSaISsEEE4baseEv>
  4059d5:	48 8b 18             	mov    (%rax),%rbx
  4059d8:	48 8b 45 e0          	mov    -0x20(%rbp),%rax
  4059dc:	48 89 c7             	mov    %rax,%rdi
  4059df:	e8 fc 03 00 00       	callq  405de0 <_ZNK9__gnu_cxx17__normal_iteratorIPKSsSt6vectorISsSaISsEEE4baseEv>
  4059e4:	48 8b 00             	mov    (%rax),%rax
  4059e7:	48 39 c3             	cmp    %rax,%rbx
  4059ea:	0f 95 c0             	setne  %al
  4059ed:	48 83 c4 18          	add    $0x18,%rsp
  4059f1:	5b                   	pop    %rbx
  4059f2:	5d                   	pop    %rbp
  4059f3:	c3                   	retq   

00000000004059f4 <_ZN9__gnu_cxx17__normal_iteratorIPKSsSt6vectorISsSaISsEEEppEv>:
  4059f4:	55                   	push   %rbp
  4059f5:	48 89 e5             	mov    %rsp,%rbp
  4059f8:	48 89 7d f8          	mov    %rdi,-0x8(%rbp)
  4059fc:	48 8b 45 f8          	mov    -0x8(%rbp),%rax
  405a00:	48 8b 00             	mov    (%rax),%rax
  405a03:	48 8d 50 08          	lea    0x8(%rax),%rdx
  405a07:	48 8b 45 f8          	mov    -0x8(%rbp),%rax
  405a0b:	48 89 10             	mov    %rdx,(%rax)
  405a0e:	48 8b 45 f8          	mov    -0x8(%rbp),%rax
  405a12:	5d                   	pop    %rbp
  405a13:	c3                   	retq   

0000000000405a14 <_ZNK9__gnu_cxx17__normal_iteratorIPKSsSt6vectorISsSaISsEEEdeEv>:
  405a14:	55                   	push   %rbp
  405a15:	48 89 e5             	mov    %rsp,%rbp
  405a18:	48 89 7d f8          	mov    %rdi,-0x8(%rbp)
  405a1c:	48 8b 45 f8          	mov    -0x8(%rbp),%rax
  405a20:	48 8b 00             	mov    (%rax),%rax
  405a23:	5d                   	pop    %rbp
  405a24:	c3                   	retq   

0000000000405a25 <_ZSt10_ConstructISsSsEvPT_RKT0_>:
  405a25:	55                   	push   %rbp
  405a26:	48 89 e5             	mov    %rsp,%rbp
  405a29:	41 55                	push   %r13
  405a2b:	41 54                	push   %r12
  405a2d:	53                   	push   %rbx
  405a2e:	48 83 ec 18          	sub    $0x18,%rsp
  405a32:	48 89 7d d8          	mov    %rdi,-0x28(%rbp)
  405a36:	48 89 75 d0          	mov    %rsi,-0x30(%rbp)
  405a3a:	4c 8b 65 d8          	mov    -0x28(%rbp),%r12
  405a3e:	4c 89 e6             	mov    %r12,%rsi
  405a41:	bf 08 00 00 00       	mov    $0x8,%edi
  405a46:	e8 8c da ff ff       	callq  4034d7 <_ZnwmPv>
  405a4b:	48 89 c3             	mov    %rax,%rbx
  405a4e:	48 85 db             	test   %rbx,%rbx
  405a51:	74 11                	je     405a64 <_ZSt10_ConstructISsSsEvPT_RKT0_+0x3f>
  405a53:	48 8b 45 d0          	mov    -0x30(%rbp),%rax
  405a57:	48 89 c6             	mov    %rax,%rsi
  405a5a:	48 89 df             	mov    %rbx,%rdi
  405a5d:	e8 ae ca ff ff       	callq  402510 <_ZNSsC1ERKSs@plt>
  405a62:	eb 1b                	jmp    405a7f <_ZSt10_ConstructISsSsEvPT_RKT0_+0x5a>
  405a64:	eb 19                	jmp    405a7f <_ZSt10_ConstructISsSsEvPT_RKT0_+0x5a>
  405a66:	49 89 c5             	mov    %rax,%r13
  405a69:	4c 89 e6             	mov    %r12,%rsi
  405a6c:	48 89 df             	mov    %rbx,%rdi
  405a6f:	e8 75 da ff ff       	callq  4034e9 <_ZdlPvS_>
  405a74:	4c 89 e8             	mov    %r13,%rax
  405a77:	48 89 c7             	mov    %rax,%rdi
  405a7a:	e8 51 ce ff ff       	callq  4028d0 <_Unwind_Resume@plt>
  405a7f:	48 83 c4 18          	add    $0x18,%rsp
  405a83:	5b                   	pop    %rbx
  405a84:	41 5c                	pop    %r12
  405a86:	41 5d                	pop    %r13
  405a88:	5d                   	pop    %rbp
  405a89:	c3                   	retq   

0000000000405a8a <_ZN9__gnu_cxx13new_allocatorIPSt6vectorISsSaISsEEEC1Ev>:
  405a8a:	55                   	push   %rbp
  405a8b:	48 89 e5             	mov    %rsp,%rbp
  405a8e:	48 89 7d f8          	mov    %rdi,-0x8(%rbp)
  405a92:	5d                   	pop    %rbp
  405a93:	c3                   	retq   

0000000000405a94 <_ZN9__gnu_cxx13new_allocatorIPPSt6vectorISsSaISsEEE8allocateEmPKv>:
  405a94:	55                   	push   %rbp
  405a95:	48 89 e5             	mov    %rsp,%rbp
  405a98:	48 83 ec 20          	sub    $0x20,%rsp
  405a9c:	48 89 7d f8          	mov    %rdi,-0x8(%rbp)
  405aa0:	48 89 75 f0          	mov    %rsi,-0x10(%rbp)
  405aa4:	48 89 55 e8          	mov    %rdx,-0x18(%rbp)
  405aa8:	48 8b 45 f8          	mov    -0x8(%rbp),%rax
  405aac:	48 89 c7             	mov    %rax,%rdi
  405aaf:	e8 3a 03 00 00       	callq  405dee <_ZNK9__gnu_cxx13new_allocatorIPPSt6vectorISsSaISsEEE8max_sizeEv>
  405ab4:	48 3b 45 f0          	cmp    -0x10(%rbp),%rax
  405ab8:	0f 92 c0             	setb   %al
  405abb:	84 c0                	test   %al,%al
  405abd:	74 05                	je     405ac4 <_ZN9__gnu_cxx13new_allocatorIPPSt6vectorISsSaISsEEE8allocateEmPKv+0x30>
  405abf:	e8 5c cd ff ff       	callq  402820 <_ZSt17__throw_bad_allocv@plt>
  405ac4:	48 8b 45 f0          	mov    -0x10(%rbp),%rax
  405ac8:	48 c1 e0 03          	shl    $0x3,%rax
  405acc:	48 89 c7             	mov    %rax,%rdi
  405acf:	e8 ec cd ff ff       	callq  4028c0 <_Znwm@plt>
  405ad4:	c9                   	leaveq 
  405ad5:	c3                   	retq   

0000000000405ad6 <_ZNKSt11_Deque_baseIPSt6vectorISsSaISsEESaIS3_EE19_M_get_Tp_allocatorEv>:
  405ad6:	55                   	push   %rbp
  405ad7:	48 89 e5             	mov    %rsp,%rbp
  405ada:	48 89 7d f8          	mov    %rdi,-0x8(%rbp)
  405ade:	48 8b 45 f8          	mov    -0x8(%rbp),%rax
  405ae2:	5d                   	pop    %rbp
  405ae3:	c3                   	retq   

0000000000405ae4 <_ZNSaIPPSt6vectorISsSaISsEEEC1IS2_EERKSaIT_E>:
  405ae4:	55                   	push   %rbp
  405ae5:	48 89 e5             	mov    %rsp,%rbp
  405ae8:	48 83 ec 10          	sub    $0x10,%rsp
  405aec:	48 89 7d f8          	mov    %rdi,-0x8(%rbp)
  405af0:	48 89 75 f0          	mov    %rsi,-0x10(%rbp)
  405af4:	48 8b 45 f8          	mov    -0x8(%rbp),%rax
  405af8:	48 89 c7             	mov    %rax,%rdi
  405afb:	e8 02 03 00 00       	callq  405e02 <_ZN9__gnu_cxx13new_allocatorIPPSt6vectorISsSaISsEEEC1Ev>
  405b00:	c9                   	leaveq 
  405b01:	c3                   	retq   

0000000000405b02 <_ZN9__gnu_cxx13new_allocatorIPPSt6vectorISsSaISsEEED1Ev>:
  405b02:	55                   	push   %rbp
  405b03:	48 89 e5             	mov    %rsp,%rbp
  405b06:	48 89 7d f8          	mov    %rdi,-0x8(%rbp)
  405b0a:	5d                   	pop    %rbp
  405b0b:	c3                   	retq   

0000000000405b0c <_ZNSt22__uninitialized_fill_nILb0EE15__uninit_fill_nIPSsmSsEEvT_T0_RKT1_>:
  405b0c:	55                   	push   %rbp
  405b0d:	48 89 e5             	mov    %rsp,%rbp
  405b10:	53                   	push   %rbx
  405b11:	48 83 ec 38          	sub    $0x38,%rsp
  405b15:	48 89 7d d8          	mov    %rdi,-0x28(%rbp)
  405b19:	48 89 75 d0          	mov    %rsi,-0x30(%rbp)
  405b1d:	48 89 55 c8          	mov    %rdx,-0x38(%rbp)
  405b21:	48 8b 45 d8          	mov    -0x28(%rbp),%rax
  405b25:	48 89 45 e8          	mov    %rax,-0x18(%rbp)
  405b29:	eb 25                	jmp    405b50 <_ZNSt22__uninitialized_fill_nILb0EE15__uninit_fill_nIPSsmSsEEvT_T0_RKT1_+0x44>
  405b2b:	48 8b 45 e8          	mov    -0x18(%rbp),%rax
  405b2f:	48 89 c7             	mov    %rax,%rdi
  405b32:	e8 4b fe ff ff       	callq  405982 <_ZSt11__addressofISsEPT_RS0_>
  405b37:	48 8b 55 c8          	mov    -0x38(%rbp),%rdx
  405b3b:	48 89 d6             	mov    %rdx,%rsi
  405b3e:	48 89 c7             	mov    %rax,%rdi
  405b41:	e8 df fe ff ff       	callq  405a25 <_ZSt10_ConstructISsSsEvPT_RKT0_>
  405b46:	48 83 6d d0 01       	subq   $0x1,-0x30(%rbp)
  405b4b:	48 83 45 e8 08       	addq   $0x8,-0x18(%rbp)
  405b50:	48 83 7d d0 00       	cmpq   $0x0,-0x30(%rbp)
  405b55:	75 d4                	jne    405b2b <_ZNSt22__uninitialized_fill_nILb0EE15__uninit_fill_nIPSsmSsEEvT_T0_RKT1_+0x1f>
  405b57:	eb 33                	jmp    405b8c <_ZNSt22__uninitialized_fill_nILb0EE15__uninit_fill_nIPSsmSsEEvT_T0_RKT1_+0x80>
  405b59:	48 89 c3             	mov    %rax,%rbx
  405b5c:	e8 af cc ff ff       	callq  402810 <__cxa_end_catch@plt>
  405b61:	48 89 d8             	mov    %rbx,%rax
  405b64:	48 89 c7             	mov    %rax,%rdi
  405b67:	e8 64 cd ff ff       	callq  4028d0 <_Unwind_Resume@plt>
  405b6c:	48 89 c7             	mov    %rax,%rdi
  405b6f:	e8 dc cc ff ff       	callq  402850 <__cxa_begin_catch@plt>
  405b74:	48 8b 55 e8          	mov    -0x18(%rbp),%rdx
  405b78:	48 8b 45 d8          	mov    -0x28(%rbp),%rax
  405b7c:	48 89 d6             	mov    %rdx,%rsi
  405b7f:	48 89 c7             	mov    %rax,%rdi
  405b82:	e8 80 ec ff ff       	callq  404807 <_ZSt8_DestroyIPSsEvT_S1_>
  405b87:	e8 04 c9 ff ff       	callq  402490 <__cxa_rethrow@plt>
  405b8c:	48 83 c4 38          	add    $0x38,%rsp
  405b90:	5b                   	pop    %rbx
  405b91:	5d                   	pop    %rbp
  405b92:	c3                   	retq   

0000000000405b93 <_ZSt4copyIPPPSt6vectorISsSaISsEES5_ET0_T_S7_S6_>:
  405b93:	55                   	push   %rbp
  405b94:	48 89 e5             	mov    %rsp,%rbp
  405b97:	53                   	push   %rbx
  405b98:	48 83 ec 28          	sub    $0x28,%rsp
  405b9c:	48 89 7d e8          	mov    %rdi,-0x18(%rbp)
  405ba0:	48 89 75 e0          	mov    %rsi,-0x20(%rbp)
  405ba4:	48 89 55 d8          	mov    %rdx,-0x28(%rbp)
  405ba8:	48 8b 45 e0          	mov    -0x20(%rbp),%rax
  405bac:	48 89 c7             	mov    %rax,%rdi
  405baf:	e8 58 02 00 00       	callq  405e0c <_ZSt12__miter_baseIPPPSt6vectorISsSaISsEEENSt11_Miter_baseIT_E13iterator_typeES7_>
  405bb4:	48 89 c3             	mov    %rax,%rbx
  405bb7:	48 8b 45 e8          	mov    -0x18(%rbp),%rax
  405bbb:	48 89 c7             	mov    %rax,%rdi
  405bbe:	e8 49 02 00 00       	callq  405e0c <_ZSt12__miter_baseIPPPSt6vectorISsSaISsEEENSt11_Miter_baseIT_E13iterator_typeES7_>
  405bc3:	48 8b 55 d8          	mov    -0x28(%rbp),%rdx
  405bc7:	48 89 de             	mov    %rbx,%rsi
  405bca:	48 89 c7             	mov    %rax,%rdi
  405bcd:	e8 54 02 00 00       	callq  405e26 <_ZSt14__copy_move_a2ILb0EPPPSt6vectorISsSaISsEES5_ET1_T0_S7_S6_>
  405bd2:	48 83 c4 28          	add    $0x28,%rsp
  405bd6:	5b                   	pop    %rbx
  405bd7:	5d                   	pop    %rbp
  405bd8:	c3                   	retq   

0000000000405bd9 <_ZSt13copy_backwardIPPPSt6vectorISsSaISsEES5_ET0_T_S7_S6_>:
  405bd9:	55                   	push   %rbp
  405bda:	48 89 e5             	mov    %rsp,%rbp
  405bdd:	53                   	push   %rbx
  405bde:	48 83 ec 28          	sub    $0x28,%rsp
  405be2:	48 89 7d e8          	mov    %rdi,-0x18(%rbp)
  405be6:	48 89 75 e0          	mov    %rsi,-0x20(%rbp)
  405bea:	48 89 55 d8          	mov    %rdx,-0x28(%rbp)
  405bee:	48 8b 45 e0          	mov    -0x20(%rbp),%rax
  405bf2:	48 89 c7             	mov    %rax,%rdi
  405bf5:	e8 12 02 00 00       	callq  405e0c <_ZSt12__miter_baseIPPPSt6vectorISsSaISsEEENSt11_Miter_baseIT_E13iterator_typeES7_>
  405bfa:	48 89 c3             	mov    %rax,%rbx
  405bfd:	48 8b 45 e8          	mov    -0x18(%rbp),%rax
  405c01:	48 89 c7             	mov    %rax,%rdi
  405c04:	e8 03 02 00 00       	callq  405e0c <_ZSt12__miter_baseIPPPSt6vectorISsSaISsEEENSt11_Miter_baseIT_E13iterator_typeES7_>
  405c09:	48 8b 55 d8          	mov    -0x28(%rbp),%rdx
  405c0d:	48 89 de             	mov    %rbx,%rsi
  405c10:	48 89 c7             	mov    %rax,%rdi
  405c13:	e8 66 02 00 00       	callq  405e7e <_ZSt23__copy_move_backward_a2ILb0EPPPSt6vectorISsSaISsEES5_ET1_T0_S7_S6_>
  405c18:	48 83 c4 28          	add    $0x28,%rsp
  405c1c:	5b                   	pop    %rbx
  405c1d:	5d                   	pop    %rbp
  405c1e:	c3                   	retq   
  405c1f:	90                   	nop

0000000000405c20 <_ZNK9__gnu_cxx13new_allocatorIPSt6vectorISsSaISsEEE8max_sizeEv>:
  405c20:	55                   	push   %rbp
  405c21:	48 89 e5             	mov    %rsp,%rbp
  405c24:	48 89 7d f8          	mov    %rdi,-0x8(%rbp)
  405c28:	48 b8 ff ff ff ff ff 	movabs $0x1fffffffffffffff,%rax
  405c2f:	ff ff 1f 
  405c32:	5d                   	pop    %rbp
  405c33:	c3                   	retq   

0000000000405c34 <_ZNK9__gnu_cxx13new_allocatorISsE8max_sizeEv>:
  405c34:	55                   	push   %rbp
  405c35:	48 89 e5             	mov    %rsp,%rbp
  405c38:	48 89 7d f8          	mov    %rdi,-0x8(%rbp)
  405c3c:	48 b8 ff ff ff ff ff 	movabs $0x1fffffffffffffff,%rax
  405c43:	ff ff 1f 
  405c46:	5d                   	pop    %rbp
  405c47:	c3                   	retq   

0000000000405c48 <_ZNSt10_Iter_baseIN9__gnu_cxx17__normal_iteratorIPKSsSt6vectorISsSaISsEEEELb1EE7_S_baseES7_>:
  405c48:	55                   	push   %rbp
  405c49:	48 89 e5             	mov    %rsp,%rbp
  405c4c:	48 83 ec 10          	sub    $0x10,%rsp
  405c50:	48 89 7d f0          	mov    %rdi,-0x10(%rbp)
  405c54:	48 8d 45 f0          	lea    -0x10(%rbp),%rax
  405c58:	48 89 c7             	mov    %rax,%rdi
  405c5b:	e8 80 01 00 00       	callq  405de0 <_ZNK9__gnu_cxx17__normal_iteratorIPKSsSt6vectorISsSaISsEEE4baseEv>
  405c60:	48 8b 00             	mov    (%rax),%rax
  405c63:	c9                   	leaveq 
  405c64:	c3                   	retq   

0000000000405c65 <_ZNSt10_Iter_baseIN9__gnu_cxx17__normal_iteratorIPSsSt6vectorISsSaISsEEEELb1EE7_S_baseES6_>:
  405c65:	55                   	push   %rbp
  405c66:	48 89 e5             	mov    %rsp,%rbp
  405c69:	48 83 ec 10          	sub    $0x10,%rsp
  405c6d:	48 89 7d f0          	mov    %rdi,-0x10(%rbp)
  405c71:	48 8d 45 f0          	lea    -0x10(%rbp),%rax
  405c75:	48 89 c7             	mov    %rax,%rdi
  405c78:	e8 f3 f2 ff ff       	callq  404f70 <_ZNK9__gnu_cxx17__normal_iteratorIPSsSt6vectorISsSaISsEEE4baseEv>
  405c7d:	48 8b 00             	mov    (%rax),%rax
  405c80:	c9                   	leaveq 
  405c81:	c3                   	retq   

0000000000405c82 <_ZNSt11__copy_moveILb0ELb0ESt26random_access_iterator_tagE8__copy_mIPKSsPSsEET0_T_S7_S6_>:
  405c82:	55                   	push   %rbp
  405c83:	48 89 e5             	mov    %rsp,%rbp
  405c86:	48 83 ec 30          	sub    $0x30,%rsp
  405c8a:	48 89 7d e8          	mov    %rdi,-0x18(%rbp)
  405c8e:	48 89 75 e0          	mov    %rsi,-0x20(%rbp)
  405c92:	48 89 55 d8          	mov    %rdx,-0x28(%rbp)
  405c96:	48 8b 55 e0          	mov    -0x20(%rbp),%rdx
  405c9a:	48 8b 45 e8          	mov    -0x18(%rbp),%rax
  405c9e:	48 29 c2             	sub    %rax,%rdx
  405ca1:	48 89 d0             	mov    %rdx,%rax
  405ca4:	48 c1 f8 03          	sar    $0x3,%rax
  405ca8:	48 89 45 f8          	mov    %rax,-0x8(%rbp)
  405cac:	eb 22                	jmp    405cd0 <_ZNSt11__copy_moveILb0ELb0ESt26random_access_iterator_tagE8__copy_mIPKSsPSsEET0_T_S7_S6_+0x4e>
  405cae:	48 8b 55 e8          	mov    -0x18(%rbp),%rdx
  405cb2:	48 8b 45 d8          	mov    -0x28(%rbp),%rax
  405cb6:	48 89 d6             	mov    %rdx,%rsi
  405cb9:	48 89 c7             	mov    %rax,%rdi
  405cbc:	e8 1f cc ff ff       	callq  4028e0 <_ZNSsaSERKSs@plt>
  405cc1:	48 83 45 e8 08       	addq   $0x8,-0x18(%rbp)
  405cc6:	48 83 45 d8 08       	addq   $0x8,-0x28(%rbp)
  405ccb:	48 83 6d f8 01       	subq   $0x1,-0x8(%rbp)
  405cd0:	48 83 7d f8 00       	cmpq   $0x0,-0x8(%rbp)
  405cd5:	7f d7                	jg     405cae <_ZNSt11__copy_moveILb0ELb0ESt26random_access_iterator_tagE8__copy_mIPKSsPSsEET0_T_S7_S6_+0x2c>
  405cd7:	48 8b 45 d8          	mov    -0x28(%rbp),%rax
  405cdb:	c9                   	leaveq 
  405cdc:	c3                   	retq   

0000000000405cdd <_ZN9__gnu_cxxneIPSsSt6vectorISsSaISsEEEEbRKNS_17__normal_iteratorIT_T0_EESA_>:
  405cdd:	55                   	push   %rbp
  405cde:	48 89 e5             	mov    %rsp,%rbp
  405ce1:	53                   	push   %rbx
  405ce2:	48 83 ec 18          	sub    $0x18,%rsp
  405ce6:	48 89 7d e8          	mov    %rdi,-0x18(%rbp)
  405cea:	48 89 75 e0          	mov    %rsi,-0x20(%rbp)
  405cee:	48 8b 45 e8          	mov    -0x18(%rbp),%rax
  405cf2:	48 89 c7             	mov    %rax,%rdi
  405cf5:	e8 76 f2 ff ff       	callq  404f70 <_ZNK9__gnu_cxx17__normal_iteratorIPSsSt6vectorISsSaISsEEE4baseEv>
  405cfa:	48 8b 18             	mov    (%rax),%rbx
  405cfd:	48 8b 45 e0          	mov    -0x20(%rbp),%rax
  405d01:	48 89 c7             	mov    %rax,%rdi
  405d04:	e8 67 f2 ff ff       	callq  404f70 <_ZNK9__gnu_cxx17__normal_iteratorIPSsSt6vectorISsSaISsEEE4baseEv>
  405d09:	48 8b 00             	mov    (%rax),%rax
  405d0c:	48 39 c3             	cmp    %rax,%rbx
  405d0f:	0f 95 c0             	setne  %al
  405d12:	48 83 c4 18          	add    $0x18,%rsp
  405d16:	5b                   	pop    %rbx
  405d17:	5d                   	pop    %rbp
  405d18:	c3                   	retq   
  405d19:	90                   	nop

0000000000405d1a <_ZN9__gnu_cxx17__normal_iteratorIPSsSt6vectorISsSaISsEEEppEv>:
  405d1a:	55                   	push   %rbp
  405d1b:	48 89 e5             	mov    %rsp,%rbp
  405d1e:	48 89 7d f8          	mov    %rdi,-0x8(%rbp)
  405d22:	48 8b 45 f8          	mov    -0x8(%rbp),%rax
  405d26:	48 8b 00             	mov    (%rax),%rax
  405d29:	48 8d 50 08          	lea    0x8(%rax),%rdx
  405d2d:	48 8b 45 f8          	mov    -0x8(%rbp),%rax
  405d31:	48 89 10             	mov    %rdx,(%rax)
  405d34:	48 8b 45 f8          	mov    -0x8(%rbp),%rax
  405d38:	5d                   	pop    %rbp
  405d39:	c3                   	retq   

0000000000405d3a <_ZNSt11__copy_moveILb0ELb0ESt26random_access_iterator_tagE8__copy_mIPSsS3_EET0_T_S5_S4_>:
  405d3a:	55                   	push   %rbp
  405d3b:	48 89 e5             	mov    %rsp,%rbp
  405d3e:	48 83 ec 30          	sub    $0x30,%rsp
  405d42:	48 89 7d e8          	mov    %rdi,-0x18(%rbp)
  405d46:	48 89 75 e0          	mov    %rsi,-0x20(%rbp)
  405d4a:	48 89 55 d8          	mov    %rdx,-0x28(%rbp)
  405d4e:	48 8b 55 e0          	mov    -0x20(%rbp),%rdx
  405d52:	48 8b 45 e8          	mov    -0x18(%rbp),%rax
  405d56:	48 29 c2             	sub    %rax,%rdx
  405d59:	48 89 d0             	mov    %rdx,%rax
  405d5c:	48 c1 f8 03          	sar    $0x3,%rax
  405d60:	48 89 45 f8          	mov    %rax,-0x8(%rbp)
  405d64:	eb 22                	jmp    405d88 <_ZNSt11__copy_moveILb0ELb0ESt26random_access_iterator_tagE8__copy_mIPSsS3_EET0_T_S5_S4_+0x4e>
  405d66:	48 8b 55 e8          	mov    -0x18(%rbp),%rdx
  405d6a:	48 8b 45 d8          	mov    -0x28(%rbp),%rax
  405d6e:	48 89 d6             	mov    %rdx,%rsi
  405d71:	48 89 c7             	mov    %rax,%rdi
  405d74:	e8 67 cb ff ff       	callq  4028e0 <_ZNSsaSERKSs@plt>
  405d79:	48 83 45 e8 08       	addq   $0x8,-0x18(%rbp)
  405d7e:	48 83 45 d8 08       	addq   $0x8,-0x28(%rbp)
  405d83:	48 83 6d f8 01       	subq   $0x1,-0x8(%rbp)
  405d88:	48 83 7d f8 00       	cmpq   $0x0,-0x8(%rbp)
  405d8d:	7f d7                	jg     405d66 <_ZNSt11__copy_moveILb0ELb0ESt26random_access_iterator_tagE8__copy_mIPSsS3_EET0_T_S5_S4_+0x2c>
  405d8f:	48 8b 45 d8          	mov    -0x28(%rbp),%rax
  405d93:	c9                   	leaveq 
  405d94:	c3                   	retq   

0000000000405d95 <_ZSt22__copy_move_backward_aILb0EPSsS0_ET1_T0_S2_S1_>:
  405d95:	55                   	push   %rbp
  405d96:	48 89 e5             	mov    %rsp,%rbp
  405d99:	48 83 ec 30          	sub    $0x30,%rsp
  405d9d:	48 89 7d e8          	mov    %rdi,-0x18(%rbp)
  405da1:	48 89 75 e0          	mov    %rsi,-0x20(%rbp)
  405da5:	48 89 55 d8          	mov    %rdx,-0x28(%rbp)
  405da9:	c6 45 ff 00          	movb   $0x0,-0x1(%rbp)
  405dad:	48 8b 55 d8          	mov    -0x28(%rbp),%rdx
  405db1:	48 8b 4d e0          	mov    -0x20(%rbp),%rcx
  405db5:	48 8b 45 e8          	mov    -0x18(%rbp),%rax
  405db9:	48 89 ce             	mov    %rcx,%rsi
  405dbc:	48 89 c7             	mov    %rax,%rdi
  405dbf:	e8 12 01 00 00       	callq  405ed6 <_ZNSt20__copy_move_backwardILb0ELb0ESt26random_access_iterator_tagE13__copy_move_bIPSsS3_EET0_T_S5_S4_>
  405dc4:	c9                   	leaveq 
  405dc5:	c3                   	retq   

0000000000405dc6 <_ZN9__gnu_cxx14__alloc_traitsISaISsEE8max_sizeERKS1_>:
  405dc6:	55                   	push   %rbp
  405dc7:	48 89 e5             	mov    %rsp,%rbp
  405dca:	48 83 ec 10          	sub    $0x10,%rsp
  405dce:	48 89 7d f8          	mov    %rdi,-0x8(%rbp)
  405dd2:	48 8b 45 f8          	mov    -0x8(%rbp),%rax
  405dd6:	48 89 c7             	mov    %rax,%rdi
  405dd9:	e8 56 fe ff ff       	callq  405c34 <_ZNK9__gnu_cxx13new_allocatorISsE8max_sizeEv>
  405dde:	c9                   	leaveq 
  405ddf:	c3                   	retq   

0000000000405de0 <_ZNK9__gnu_cxx17__normal_iteratorIPKSsSt6vectorISsSaISsEEE4baseEv>:
  405de0:	55                   	push   %rbp
  405de1:	48 89 e5             	mov    %rsp,%rbp
  405de4:	48 89 7d f8          	mov    %rdi,-0x8(%rbp)
  405de8:	48 8b 45 f8          	mov    -0x8(%rbp),%rax
  405dec:	5d                   	pop    %rbp
  405ded:	c3                   	retq   

0000000000405dee <_ZNK9__gnu_cxx13new_allocatorIPPSt6vectorISsSaISsEEE8max_sizeEv>:
  405dee:	55                   	push   %rbp
  405def:	48 89 e5             	mov    %rsp,%rbp
  405df2:	48 89 7d f8          	mov    %rdi,-0x8(%rbp)
  405df6:	48 b8 ff ff ff ff ff 	movabs $0x1fffffffffffffff,%rax
  405dfd:	ff ff 1f 
  405e00:	5d                   	pop    %rbp
  405e01:	c3                   	retq   

0000000000405e02 <_ZN9__gnu_cxx13new_allocatorIPPSt6vectorISsSaISsEEEC1Ev>:
  405e02:	55                   	push   %rbp
  405e03:	48 89 e5             	mov    %rsp,%rbp
  405e06:	48 89 7d f8          	mov    %rdi,-0x8(%rbp)
  405e0a:	5d                   	pop    %rbp
  405e0b:	c3                   	retq   

0000000000405e0c <_ZSt12__miter_baseIPPPSt6vectorISsSaISsEEENSt11_Miter_baseIT_E13iterator_typeES7_>:
  405e0c:	55                   	push   %rbp
  405e0d:	48 89 e5             	mov    %rsp,%rbp
  405e10:	48 83 ec 10          	sub    $0x10,%rsp
  405e14:	48 89 7d f8          	mov    %rdi,-0x8(%rbp)
  405e18:	48 8b 45 f8          	mov    -0x8(%rbp),%rax
  405e1c:	48 89 c7             	mov    %rax,%rdi
  405e1f:	e8 0d 01 00 00       	callq  405f31 <_ZNSt10_Iter_baseIPPPSt6vectorISsSaISsEELb0EE7_S_baseES5_>
  405e24:	c9                   	leaveq 
  405e25:	c3                   	retq   

0000000000405e26 <_ZSt14__copy_move_a2ILb0EPPPSt6vectorISsSaISsEES5_ET1_T0_S7_S6_>:
  405e26:	55                   	push   %rbp
  405e27:	48 89 e5             	mov    %rsp,%rbp
  405e2a:	41 54                	push   %r12
  405e2c:	53                   	push   %rbx
  405e2d:	48 83 ec 20          	sub    $0x20,%rsp
  405e31:	48 89 7d e8          	mov    %rdi,-0x18(%rbp)
  405e35:	48 89 75 e0          	mov    %rsi,-0x20(%rbp)
  405e39:	48 89 55 d8          	mov    %rdx,-0x28(%rbp)
  405e3d:	48 8b 45 d8          	mov    -0x28(%rbp),%rax
  405e41:	48 89 c7             	mov    %rax,%rdi
  405e44:	e8 f6 00 00 00       	callq  405f3f <_ZSt12__niter_baseIPPPSt6vectorISsSaISsEEENSt11_Niter_baseIT_E13iterator_typeES7_>
  405e49:	49 89 c4             	mov    %rax,%r12
  405e4c:	48 8b 45 e0          	mov    -0x20(%rbp),%rax
  405e50:	48 89 c7             	mov    %rax,%rdi
  405e53:	e8 e7 00 00 00       	callq  405f3f <_ZSt12__niter_baseIPPPSt6vectorISsSaISsEEENSt11_Niter_baseIT_E13iterator_typeES7_>
  405e58:	48 89 c3             	mov    %rax,%rbx
  405e5b:	48 8b 45 e8          	mov    -0x18(%rbp),%rax
  405e5f:	48 89 c7             	mov    %rax,%rdi
  405e62:	e8 d8 00 00 00       	callq  405f3f <_ZSt12__niter_baseIPPPSt6vectorISsSaISsEEENSt11_Niter_baseIT_E13iterator_typeES7_>
  405e67:	4c 89 e2             	mov    %r12,%rdx
  405e6a:	48 89 de             	mov    %rbx,%rsi
  405e6d:	48 89 c7             	mov    %rax,%rdi
  405e70:	e8 e4 00 00 00       	callq  405f59 <_ZSt13__copy_move_aILb0EPPPSt6vectorISsSaISsEES5_ET1_T0_S7_S6_>
  405e75:	48 83 c4 20          	add    $0x20,%rsp
  405e79:	5b                   	pop    %rbx
  405e7a:	41 5c                	pop    %r12
  405e7c:	5d                   	pop    %rbp
  405e7d:	c3                   	retq   

0000000000405e7e <_ZSt23__copy_move_backward_a2ILb0EPPPSt6vectorISsSaISsEES5_ET1_T0_S7_S6_>:
  405e7e:	55                   	push   %rbp
  405e7f:	48 89 e5             	mov    %rsp,%rbp
  405e82:	41 54                	push   %r12
  405e84:	53                   	push   %rbx
  405e85:	48 83 ec 20          	sub    $0x20,%rsp
  405e89:	48 89 7d e8          	mov    %rdi,-0x18(%rbp)
  405e8d:	48 89 75 e0          	mov    %rsi,-0x20(%rbp)
  405e91:	48 89 55 d8          	mov    %rdx,-0x28(%rbp)
  405e95:	48 8b 45 d8          	mov    -0x28(%rbp),%rax
  405e99:	48 89 c7             	mov    %rax,%rdi
  405e9c:	e8 9e 00 00 00       	callq  405f3f <_ZSt12__niter_baseIPPPSt6vectorISsSaISsEEENSt11_Niter_baseIT_E13iterator_typeES7_>
  405ea1:	49 89 c4             	mov    %rax,%r12
  405ea4:	48 8b 45 e0          	mov    -0x20(%rbp),%rax
  405ea8:	48 89 c7             	mov    %rax,%rdi
  405eab:	e8 8f 00 00 00       	callq  405f3f <_ZSt12__niter_baseIPPPSt6vectorISsSaISsEEENSt11_Niter_baseIT_E13iterator_typeES7_>
  405eb0:	48 89 c3             	mov    %rax,%rbx
  405eb3:	48 8b 45 e8          	mov    -0x18(%rbp),%rax
  405eb7:	48 89 c7             	mov    %rax,%rdi
  405eba:	e8 80 00 00 00       	callq  405f3f <_ZSt12__niter_baseIPPPSt6vectorISsSaISsEEENSt11_Niter_baseIT_E13iterator_typeES7_>
  405ebf:	4c 89 e2             	mov    %r12,%rdx
  405ec2:	48 89 de             	mov    %rbx,%rsi
  405ec5:	48 89 c7             	mov    %rax,%rdi
  405ec8:	e8 bd 00 00 00       	callq  405f8a <_ZSt22__copy_move_backward_aILb0EPPPSt6vectorISsSaISsEES5_ET1_T0_S7_S6_>
  405ecd:	48 83 c4 20          	add    $0x20,%rsp
  405ed1:	5b                   	pop    %rbx
  405ed2:	41 5c                	pop    %r12
  405ed4:	5d                   	pop    %rbp
  405ed5:	c3                   	retq   

0000000000405ed6 <_ZNSt20__copy_move_backwardILb0ELb0ESt26random_access_iterator_tagE13__copy_move_bIPSsS3_EET0_T_S5_S4_>:
  405ed6:	55                   	push   %rbp
  405ed7:	48 89 e5             	mov    %rsp,%rbp
  405eda:	48 83 ec 30          	sub    $0x30,%rsp
  405ede:	48 89 7d e8          	mov    %rdi,-0x18(%rbp)
  405ee2:	48 89 75 e0          	mov    %rsi,-0x20(%rbp)
  405ee6:	48 89 55 d8          	mov    %rdx,-0x28(%rbp)
  405eea:	48 8b 55 e0          	mov    -0x20(%rbp),%rdx
  405eee:	48 8b 45 e8          	mov    -0x18(%rbp),%rax
  405ef2:	48 29 c2             	sub    %rax,%rdx
  405ef5:	48 89 d0             	mov    %rdx,%rax
  405ef8:	48 c1 f8 03          	sar    $0x3,%rax
  405efc:	48 89 45 f8          	mov    %rax,-0x8(%rbp)
  405f00:	eb 22                	jmp    405f24 <_ZNSt20__copy_move_backwardILb0ELb0ESt26random_access_iterator_tagE13__copy_move_bIPSsS3_EET0_T_S5_S4_+0x4e>
  405f02:	48 83 6d e0 08       	subq   $0x8,-0x20(%rbp)
  405f07:	48 83 6d d8 08       	subq   $0x8,-0x28(%rbp)
  405f0c:	48 8b 55 e0          	mov    -0x20(%rbp),%rdx
  405f10:	48 8b 45 d8          	mov    -0x28(%rbp),%rax
  405f14:	48 89 d6             	mov    %rdx,%rsi
  405f17:	48 89 c7             	mov    %rax,%rdi
  405f1a:	e8 c1 c9 ff ff       	callq  4028e0 <_ZNSsaSERKSs@plt>
  405f1f:	48 83 6d f8 01       	subq   $0x1,-0x8(%rbp)
  405f24:	48 83 7d f8 00       	cmpq   $0x0,-0x8(%rbp)
  405f29:	7f d7                	jg     405f02 <_ZNSt20__copy_move_backwardILb0ELb0ESt26random_access_iterator_tagE13__copy_move_bIPSsS3_EET0_T_S5_S4_+0x2c>
  405f2b:	48 8b 45 d8          	mov    -0x28(%rbp),%rax
  405f2f:	c9                   	leaveq 
  405f30:	c3                   	retq   

0000000000405f31 <_ZNSt10_Iter_baseIPPPSt6vectorISsSaISsEELb0EE7_S_baseES5_>:
  405f31:	55                   	push   %rbp
  405f32:	48 89 e5             	mov    %rsp,%rbp
  405f35:	48 89 7d f8          	mov    %rdi,-0x8(%rbp)
  405f39:	48 8b 45 f8          	mov    -0x8(%rbp),%rax
  405f3d:	5d                   	pop    %rbp
  405f3e:	c3                   	retq   

0000000000405f3f <_ZSt12__niter_baseIPPPSt6vectorISsSaISsEEENSt11_Niter_baseIT_E13iterator_typeES7_>:
  405f3f:	55                   	push   %rbp
  405f40:	48 89 e5             	mov    %rsp,%rbp
  405f43:	48 83 ec 10          	sub    $0x10,%rsp
  405f47:	48 89 7d f8          	mov    %rdi,-0x8(%rbp)
  405f4b:	48 8b 45 f8          	mov    -0x8(%rbp),%rax
  405f4f:	48 89 c7             	mov    %rax,%rdi
  405f52:	e8 da ff ff ff       	callq  405f31 <_ZNSt10_Iter_baseIPPPSt6vectorISsSaISsEELb0EE7_S_baseES5_>
  405f57:	c9                   	leaveq 
  405f58:	c3                   	retq   

0000000000405f59 <_ZSt13__copy_move_aILb0EPPPSt6vectorISsSaISsEES5_ET1_T0_S7_S6_>:
  405f59:	55                   	push   %rbp
  405f5a:	48 89 e5             	mov    %rsp,%rbp
  405f5d:	48 83 ec 30          	sub    $0x30,%rsp
  405f61:	48 89 7d e8          	mov    %rdi,-0x18(%rbp)
  405f65:	48 89 75 e0          	mov    %rsi,-0x20(%rbp)
  405f69:	48 89 55 d8          	mov    %rdx,-0x28(%rbp)
  405f6d:	c6 45 ff 01          	movb   $0x1,-0x1(%rbp)
  405f71:	48 8b 55 d8          	mov    -0x28(%rbp),%rdx
  405f75:	48 8b 4d e0          	mov    -0x20(%rbp),%rcx
  405f79:	48 8b 45 e8          	mov    -0x18(%rbp),%rax
  405f7d:	48 89 ce             	mov    %rcx,%rsi
  405f80:	48 89 c7             	mov    %rax,%rdi
  405f83:	e8 33 00 00 00       	callq  405fbb <_ZNSt11__copy_moveILb0ELb1ESt26random_access_iterator_tagE8__copy_mIPPSt6vectorISsSaISsEEEEPT_PKS8_SB_S9_>
  405f88:	c9                   	leaveq 
  405f89:	c3                   	retq   

0000000000405f8a <_ZSt22__copy_move_backward_aILb0EPPPSt6vectorISsSaISsEES5_ET1_T0_S7_S6_>:
  405f8a:	55                   	push   %rbp
  405f8b:	48 89 e5             	mov    %rsp,%rbp
  405f8e:	48 83 ec 30          	sub    $0x30,%rsp
  405f92:	48 89 7d e8          	mov    %rdi,-0x18(%rbp)
  405f96:	48 89 75 e0          	mov    %rsi,-0x20(%rbp)
  405f9a:	48 89 55 d8          	mov    %rdx,-0x28(%rbp)
  405f9e:	c6 45 ff 01          	movb   $0x1,-0x1(%rbp)
  405fa2:	48 8b 55 d8          	mov    -0x28(%rbp),%rdx
  405fa6:	48 8b 4d e0          	mov    -0x20(%rbp),%rcx
  405faa:	48 8b 45 e8          	mov    -0x18(%rbp),%rax
  405fae:	48 89 ce             	mov    %rcx,%rsi
  405fb1:	48 89 c7             	mov    %rax,%rdi
  405fb4:	e8 67 00 00 00       	callq  406020 <_ZNSt20__copy_move_backwardILb0ELb1ESt26random_access_iterator_tagE13__copy_move_bIPPSt6vectorISsSaISsEEEEPT_PKS8_SB_S9_>
  405fb9:	c9                   	leaveq 
  405fba:	c3                   	retq   

0000000000405fbb <_ZNSt11__copy_moveILb0ELb1ESt26random_access_iterator_tagE8__copy_mIPPSt6vectorISsSaISsEEEEPT_PKS8_SB_S9_>:
  405fbb:	55                   	push   %rbp
  405fbc:	48 89 e5             	mov    %rsp,%rbp
  405fbf:	48 83 ec 30          	sub    $0x30,%rsp
  405fc3:	48 89 7d e8          	mov    %rdi,-0x18(%rbp)
  405fc7:	48 89 75 e0          	mov    %rsi,-0x20(%rbp)
  405fcb:	48 89 55 d8          	mov    %rdx,-0x28(%rbp)
  405fcf:	48 8b 55 e0          	mov    -0x20(%rbp),%rdx
  405fd3:	48 8b 45 e8          	mov    -0x18(%rbp),%rax
  405fd7:	48 29 c2             	sub    %rax,%rdx
  405fda:	48 89 d0             	mov    %rdx,%rax
  405fdd:	48 c1 f8 03          	sar    $0x3,%rax
  405fe1:	48 89 45 f8          	mov    %rax,-0x8(%rbp)
  405fe5:	48 83 7d f8 00       	cmpq   $0x0,-0x8(%rbp)
  405fea:	74 1f                	je     40600b <_ZNSt11__copy_moveILb0ELb1ESt26random_access_iterator_tagE8__copy_mIPPSt6vectorISsSaISsEEEEPT_PKS8_SB_S9_+0x50>
  405fec:	48 8b 45 f8          	mov    -0x8(%rbp),%rax
  405ff0:	48 8d 14 c5 00 00 00 	lea    0x0(,%rax,8),%rdx
  405ff7:	00 
  405ff8:	48 8b 4d e8          	mov    -0x18(%rbp),%rcx
  405ffc:	48 8b 45 d8          	mov    -0x28(%rbp),%rax
  406000:	48 89 ce             	mov    %rcx,%rsi
  406003:	48 89 c7             	mov    %rax,%rdi
  406006:	e8 95 c6 ff ff       	callq  4026a0 <memmove@plt>
  40600b:	48 8b 45 f8          	mov    -0x8(%rbp),%rax
  40600f:	48 8d 14 c5 00 00 00 	lea    0x0(,%rax,8),%rdx
  406016:	00 
  406017:	48 8b 45 d8          	mov    -0x28(%rbp),%rax
  40601b:	48 01 d0             	add    %rdx,%rax
  40601e:	c9                   	leaveq 
  40601f:	c3                   	retq   

0000000000406020 <_ZNSt20__copy_move_backwardILb0ELb1ESt26random_access_iterator_tagE13__copy_move_bIPPSt6vectorISsSaISsEEEEPT_PKS8_SB_S9_>:
  406020:	55                   	push   %rbp
  406021:	48 89 e5             	mov    %rsp,%rbp
  406024:	48 83 ec 30          	sub    $0x30,%rsp
  406028:	48 89 7d e8          	mov    %rdi,-0x18(%rbp)
  40602c:	48 89 75 e0          	mov    %rsi,-0x20(%rbp)
  406030:	48 89 55 d8          	mov    %rdx,-0x28(%rbp)
  406034:	48 8b 55 e0          	mov    -0x20(%rbp),%rdx
  406038:	48 8b 45 e8          	mov    -0x18(%rbp),%rax
  40603c:	48 29 c2             	sub    %rax,%rdx
  40603f:	48 89 d0             	mov    %rdx,%rax
  406042:	48 c1 f8 03          	sar    $0x3,%rax
  406046:	48 89 45 f8          	mov    %rax,-0x8(%rbp)
  40604a:	48 83 7d f8 00       	cmpq   $0x0,-0x8(%rbp)
  40604f:	74 30                	je     406081 <_ZNSt20__copy_move_backwardILb0ELb1ESt26random_access_iterator_tagE13__copy_move_bIPPSt6vectorISsSaISsEEEEPT_PKS8_SB_S9_+0x61>
  406051:	48 8b 45 f8          	mov    -0x8(%rbp),%rax
  406055:	48 8d 14 c5 00 00 00 	lea    0x0(,%rax,8),%rdx
  40605c:	00 
  40605d:	48 8b 45 f8          	mov    -0x8(%rbp),%rax
  406061:	48 c1 e0 03          	shl    $0x3,%rax
  406065:	48 f7 d8             	neg    %rax
  406068:	48 89 c1             	mov    %rax,%rcx
  40606b:	48 8b 45 d8          	mov    -0x28(%rbp),%rax
  40606f:	48 01 c1             	add    %rax,%rcx
  406072:	48 8b 45 e8          	mov    -0x18(%rbp),%rax
  406076:	48 89 c6             	mov    %rax,%rsi
  406079:	48 89 cf             	mov    %rcx,%rdi
  40607c:	e8 1f c6 ff ff       	callq  4026a0 <memmove@plt>
  406081:	48 8b 45 f8          	mov    -0x8(%rbp),%rax
  406085:	48 c1 e0 03          	shl    $0x3,%rax
  406089:	48 f7 d8             	neg    %rax
  40608c:	48 89 c2             	mov    %rax,%rdx
  40608f:	48 8b 45 d8          	mov    -0x28(%rbp),%rax
  406093:	48 01 d0             	add    %rdx,%rax
  406096:	c9                   	leaveq 
  406097:	c3                   	retq   

0000000000406098 <_ZN7LexiconC1Ev>:
  406098:	55                   	push   %rbp
  406099:	48 89 e5             	mov    %rsp,%rbp
  40609c:	48 83 ec 10          	sub    $0x10,%rsp
  4060a0:	48 89 7d f8          	mov    %rdi,-0x8(%rbp)
  4060a4:	48 8b 45 f8          	mov    -0x8(%rbp),%rax
  4060a8:	48 c7 00 d0 c5 40 00 	movq   $0x40c5d0,(%rax)
  4060af:	48 8b 45 f8          	mov    -0x8(%rbp),%rax
  4060b3:	48 83 c0 20          	add    $0x20,%rax
  4060b7:	48 89 c7             	mov    %rax,%rdi
  4060ba:	e8 f7 20 00 00       	callq  4081b6 <_ZN3SetISsEC1Ev>
  4060bf:	48 8b 45 f8          	mov    -0x8(%rbp),%rax
  4060c3:	48 c7 40 10 00 00 00 	movq   $0x0,0x10(%rax)
  4060ca:	00 
  4060cb:	48 8b 45 f8          	mov    -0x8(%rbp),%rax
  4060cf:	48 8b 50 10          	mov    0x10(%rax),%rdx
  4060d3:	48 8b 45 f8          	mov    -0x8(%rbp),%rax
  4060d7:	48 89 50 08          	mov    %rdx,0x8(%rax)
  4060db:	48 8b 45 f8          	mov    -0x8(%rbp),%rax
  4060df:	c7 40 1c 00 00 00 00 	movl   $0x0,0x1c(%rax)
  4060e6:	48 8b 45 f8          	mov    -0x8(%rbp),%rax
  4060ea:	8b 50 1c             	mov    0x1c(%rax),%edx
  4060ed:	48 8b 45 f8          	mov    -0x8(%rbp),%rax
  4060f1:	89 50 18             	mov    %edx,0x18(%rax)
  4060f4:	c9                   	leaveq 
  4060f5:	c3                   	retq   

00000000004060f6 <_ZN7LexiconC1ESs>:
  4060f6:	55                   	push   %rbp
  4060f7:	48 89 e5             	mov    %rsp,%rbp
  4060fa:	53                   	push   %rbx
  4060fb:	48 83 ec 28          	sub    $0x28,%rsp
  4060ff:	48 89 7d d8          	mov    %rdi,-0x28(%rbp)
  406103:	48 89 75 d0          	mov    %rsi,-0x30(%rbp)
  406107:	48 8b 45 d8          	mov    -0x28(%rbp),%rax
  40610b:	48 c7 00 d0 c5 40 00 	movq   $0x40c5d0,(%rax)
  406112:	48 8b 45 d8          	mov    -0x28(%rbp),%rax
  406116:	48 83 c0 20          	add    $0x20,%rax
  40611a:	48 89 c7             	mov    %rax,%rdi
  40611d:	e8 94 20 00 00       	callq  4081b6 <_ZN3SetISsEC1Ev>
  406122:	48 8b 45 d8          	mov    -0x28(%rbp),%rax
  406126:	48 c7 40 10 00 00 00 	movq   $0x0,0x10(%rax)
  40612d:	00 
  40612e:	48 8b 45 d8          	mov    -0x28(%rbp),%rax
  406132:	48 8b 50 10          	mov    0x10(%rax),%rdx
  406136:	48 8b 45 d8          	mov    -0x28(%rbp),%rax
  40613a:	48 89 50 08          	mov    %rdx,0x8(%rax)
  40613e:	48 8b 45 d8          	mov    -0x28(%rbp),%rax
  406142:	c7 40 1c 00 00 00 00 	movl   $0x0,0x1c(%rax)
  406149:	48 8b 45 d8          	mov    -0x28(%rbp),%rax
  40614d:	8b 50 1c             	mov    0x1c(%rax),%edx
  406150:	48 8b 45 d8          	mov    -0x28(%rbp),%rax
  406154:	89 50 18             	mov    %edx,0x18(%rax)
  406157:	48 8b 55 d0          	mov    -0x30(%rbp),%rdx
  40615b:	48 8d 45 e0          	lea    -0x20(%rbp),%rax
  40615f:	48 89 d6             	mov    %rdx,%rsi
  406162:	48 89 c7             	mov    %rax,%rdi
  406165:	e8 a6 c3 ff ff       	callq  402510 <_ZNSsC1ERKSs@plt>
  40616a:	48 8d 55 e0          	lea    -0x20(%rbp),%rdx
  40616e:	48 8b 45 d8          	mov    -0x28(%rbp),%rax
  406172:	48 89 d6             	mov    %rdx,%rsi
  406175:	48 89 c7             	mov    %rax,%rdi
  406178:	e8 c3 05 00 00       	callq  406740 <_ZN7Lexicon16addWordsFromFileESs>
  40617d:	48 8d 45 e0          	lea    -0x20(%rbp),%rax
  406181:	48 89 c7             	mov    %rax,%rdi
  406184:	e8 17 c4 ff ff       	callq  4025a0 <_ZNSsD1Ev@plt>
  406189:	eb 2f                	jmp    4061ba <_ZN7LexiconC1ESs+0xc4>
  40618b:	48 89 c3             	mov    %rax,%rbx
  40618e:	48 8d 45 e0          	lea    -0x20(%rbp),%rax
  406192:	48 89 c7             	mov    %rax,%rdi
  406195:	e8 06 c4 ff ff       	callq  4025a0 <_ZNSsD1Ev@plt>
  40619a:	eb 03                	jmp    40619f <_ZN7LexiconC1ESs+0xa9>
  40619c:	48 89 c3             	mov    %rax,%rbx
  40619f:	48 8b 45 d8          	mov    -0x28(%rbp),%rax
  4061a3:	48 83 c0 20          	add    $0x20,%rax
  4061a7:	48 89 c7             	mov    %rax,%rdi
  4061aa:	e8 31 20 00 00       	callq  4081e0 <_ZN3SetISsED1Ev>
  4061af:	48 89 d8             	mov    %rbx,%rax
  4061b2:	48 89 c7             	mov    %rax,%rdi
  4061b5:	e8 16 c7 ff ff       	callq  4028d0 <_Unwind_Resume@plt>
  4061ba:	48 83 c4 28          	add    $0x28,%rsp
  4061be:	5b                   	pop    %rbx
  4061bf:	5d                   	pop    %rbp
  4061c0:	c3                   	retq   
  4061c1:	90                   	nop

00000000004061c2 <_ZN7LexiconD1Ev>:
  4061c2:	55                   	push   %rbp
  4061c3:	48 89 e5             	mov    %rsp,%rbp
  4061c6:	48 83 ec 10          	sub    $0x10,%rsp
  4061ca:	48 89 7d f8          	mov    %rdi,-0x8(%rbp)
  4061ce:	48 8b 45 f8          	mov    -0x8(%rbp),%rax
  4061d2:	48 c7 00 d0 c5 40 00 	movq   $0x40c5d0,(%rax)
  4061d9:	48 8b 45 f8          	mov    -0x8(%rbp),%rax
  4061dd:	48 8b 40 08          	mov    0x8(%rax),%rax
  4061e1:	48 85 c0             	test   %rax,%rax
  4061e4:	74 1d                	je     406203 <_ZN7LexiconD1Ev+0x41>
  4061e6:	48 8b 45 f8          	mov    -0x8(%rbp),%rax
  4061ea:	48 8b 40 08          	mov    0x8(%rax),%rax
  4061ee:	48 85 c0             	test   %rax,%rax
  4061f1:	74 10                	je     406203 <_ZN7LexiconD1Ev+0x41>
  4061f3:	48 8b 45 f8          	mov    -0x8(%rbp),%rax
  4061f7:	48 8b 40 08          	mov    0x8(%rax),%rax
  4061fb:	48 89 c7             	mov    %rax,%rdi
  4061fe:	e8 7d c5 ff ff       	callq  402780 <_ZdaPv@plt>
  406203:	48 8b 45 f8          	mov    -0x8(%rbp),%rax
  406207:	48 83 c0 20          	add    $0x20,%rax
  40620b:	48 89 c7             	mov    %rax,%rdi
  40620e:	e8 cd 1f 00 00       	callq  4081e0 <_ZN3SetISsED1Ev>
  406213:	b8 00 00 00 00       	mov    $0x0,%eax
  406218:	85 c0                	test   %eax,%eax
  40621a:	74 0c                	je     406228 <_ZN7LexiconD1Ev+0x66>
  40621c:	48 8b 45 f8          	mov    -0x8(%rbp),%rax
  406220:	48 89 c7             	mov    %rax,%rdi
  406223:	e8 38 c2 ff ff       	callq  402460 <_ZdlPv@plt>
  406228:	c9                   	leaveq 
  406229:	c3                   	retq   

000000000040622a <_ZN7LexiconD0Ev>:
  40622a:	55                   	push   %rbp
  40622b:	48 89 e5             	mov    %rsp,%rbp
  40622e:	48 83 ec 10          	sub    $0x10,%rsp
  406232:	48 89 7d f8          	mov    %rdi,-0x8(%rbp)
  406236:	48 8b 45 f8          	mov    -0x8(%rbp),%rax
  40623a:	48 89 c7             	mov    %rax,%rdi
  40623d:	e8 80 ff ff ff       	callq  4061c2 <_ZN7LexiconD1Ev>
  406242:	48 8b 45 f8          	mov    -0x8(%rbp),%rax
  406246:	48 89 c7             	mov    %rax,%rdi
  406249:	e8 12 c2 ff ff       	callq  402460 <_ZdlPv@plt>
  40624e:	c9                   	leaveq 
  40624f:	c3                   	retq   

0000000000406250 <_ZL8my_ntohlj>:
  406250:	55                   	push   %rbp
  406251:	48 89 e5             	mov    %rsp,%rbp
  406254:	89 7d ec             	mov    %edi,-0x14(%rbp)
  406257:	8b 45 ec             	mov    -0x14(%rbp),%eax
  40625a:	c1 e8 18             	shr    $0x18,%eax
  40625d:	89 c2                	mov    %eax,%edx
  40625f:	8b 45 ec             	mov    -0x14(%rbp),%eax
  406262:	25 00 00 ff 00       	and    $0xff0000,%eax
  406267:	c1 e8 08             	shr    $0x8,%eax
  40626a:	09 c2                	or     %eax,%edx
  40626c:	8b 45 ec             	mov    -0x14(%rbp),%eax
  40626f:	25 00 ff 00 00       	and    $0xff00,%eax
  406274:	c1 e0 08             	shl    $0x8,%eax
  406277:	09 c2                	or     %eax,%edx
  406279:	8b 45 ec             	mov    -0x14(%rbp),%eax
  40627c:	c1 e0 18             	shl    $0x18,%eax
  40627f:	09 d0                	or     %edx,%eax
  406281:	89 45 fc             	mov    %eax,-0x4(%rbp)
  406284:	8b 45 fc             	mov    -0x4(%rbp),%eax
  406287:	5d                   	pop    %rbp
  406288:	c3                   	retq   
  406289:	90                   	nop

000000000040628a <_ZN7Lexicon14readBinaryFileESs>:
  40628a:	55                   	push   %rbp
  40628b:	48 89 e5             	mov    %rsp,%rbp
  40628e:	53                   	push   %rbx
  40628f:	48 81 ec 98 02 00 00 	sub    $0x298,%rsp
  406296:	48 89 bd 68 fd ff ff 	mov    %rdi,-0x298(%rbp)
  40629d:	48 89 b5 60 fd ff ff 	mov    %rsi,-0x2a0(%rbp)
  4062a4:	64 48 8b 04 25 28 00 	mov    %fs:0x28,%rax
  4062ab:	00 00 
  4062ad:	48 89 45 e8          	mov    %rax,-0x18(%rbp)
  4062b1:	31 c0                	xor    %eax,%eax
  4062b3:	c7 85 d0 fd ff ff 44 	movl   $0x47574144,-0x230(%rbp)
  4062ba:	41 57 47 
  4062bd:	c6 85 d4 fd ff ff 00 	movb   $0x0,-0x22c(%rbp)
  4062c4:	be 04 00 00 00       	mov    $0x4,%esi
  4062c9:	bf 08 00 00 00       	mov    $0x8,%edi
  4062ce:	e8 29 14 00 00       	callq  4076fc <_ZStorSt13_Ios_OpenmodeS_>
  4062d3:	89 c3                	mov    %eax,%ebx
  4062d5:	48 8b 85 60 fd ff ff 	mov    -0x2a0(%rbp),%rax
  4062dc:	48 89 c7             	mov    %rax,%rdi
  4062df:	e8 5c c1 ff ff       	callq  402440 <_ZNKSs5c_strEv@plt>
  4062e4:	48 89 c1             	mov    %rax,%rcx
  4062e7:	48 8d 85 e0 fd ff ff 	lea    -0x220(%rbp),%rax
  4062ee:	89 da                	mov    %ebx,%edx
  4062f0:	48 89 ce             	mov    %rcx,%rsi
  4062f3:	48 89 c7             	mov    %rax,%rdi
  4062f6:	e8 b5 c4 ff ff       	callq  4027b0 <_ZNSt14basic_ifstreamIcSt11char_traitsIcEEC1EPKcSt13_Ios_Openmode@plt>
  4062fb:	48 8d 85 e0 fd ff ff 	lea    -0x220(%rbp),%rax
  406302:	48 05 00 01 00 00    	add    $0x100,%rax
  406308:	48 89 c7             	mov    %rax,%rdi
  40630b:	e8 a0 c3 ff ff       	callq  4026b0 <_ZNKSt9basic_iosIcSt11char_traitsIcEE4failEv@plt>
  406310:	84 c0                	test   %al,%al
  406312:	74 39                	je     40634d <_ZN7Lexicon14readBinaryFileESs+0xc3>
  406314:	48 8d 85 80 fd ff ff 	lea    -0x280(%rbp),%rax
  40631b:	48 8b 95 60 fd ff ff 	mov    -0x2a0(%rbp),%rdx
  406322:	be c1 c3 40 00       	mov    $0x40c3c1,%esi
  406327:	48 89 c7             	mov    %rax,%rdi
  40632a:	e8 15 1f 00 00       	callq  408244 <_ZStplIcSt11char_traitsIcESaIcEESbIT_T0_T1_EPKS3_RKS6_>
  40632f:	48 8d 85 80 fd ff ff 	lea    -0x280(%rbp),%rax
  406336:	48 89 c7             	mov    %rax,%rdi
  406339:	e8 57 5e 00 00       	callq  40c195 <_Z5errorSs>
  40633e:	48 8d 85 80 fd ff ff 	lea    -0x280(%rbp),%rax
  406345:	48 89 c7             	mov    %rax,%rdi
  406348:	e8 53 c2 ff ff       	callq  4025a0 <_ZNSsD1Ev@plt>
  40634d:	48 8d 8d c0 fd ff ff 	lea    -0x240(%rbp),%rcx
  406354:	48 8d 85 e0 fd ff ff 	lea    -0x220(%rbp),%rax
  40635b:	ba 04 00 00 00       	mov    $0x4,%edx
  406360:	48 89 ce             	mov    %rcx,%rsi
  406363:	48 89 c7             	mov    %rax,%rdi
  406366:	e8 f5 c1 ff ff       	callq  402560 <_ZNSi4readEPcl@plt>
  40636b:	48 8d 85 e0 fd ff ff 	lea    -0x220(%rbp),%rax
  406372:	48 89 c7             	mov    %rax,%rdi
  406375:	e8 e6 c2 ff ff       	callq  402660 <_ZNSi3getEv@plt>
  40637a:	48 8d 95 a8 fd ff ff 	lea    -0x258(%rbp),%rdx
  406381:	48 8d 85 e0 fd ff ff 	lea    -0x220(%rbp),%rax
  406388:	48 89 d6             	mov    %rdx,%rsi
  40638b:	48 89 c7             	mov    %rax,%rdi
  40638e:	e8 4d c4 ff ff       	callq  4027e0 <_ZNSirsERl@plt>
  406393:	48 8d 85 e0 fd ff ff 	lea    -0x220(%rbp),%rax
  40639a:	48 89 c7             	mov    %rax,%rdi
  40639d:	e8 be c2 ff ff       	callq  402660 <_ZNSi3getEv@plt>
  4063a2:	48 8d 95 b0 fd ff ff 	lea    -0x250(%rbp),%rdx
  4063a9:	48 8d 85 e0 fd ff ff 	lea    -0x220(%rbp),%rax
  4063b0:	48 89 d6             	mov    %rdx,%rsi
  4063b3:	48 89 c7             	mov    %rax,%rdi
  4063b6:	e8 25 c4 ff ff       	callq  4027e0 <_ZNSirsERl@plt>
  4063bb:	48 8d 85 e0 fd ff ff 	lea    -0x220(%rbp),%rax
  4063c2:	48 89 c7             	mov    %rax,%rdi
  4063c5:	e8 96 c2 ff ff       	callq  402660 <_ZNSi3getEv@plt>
  4063ca:	48 8d 85 e0 fd ff ff 	lea    -0x220(%rbp),%rax
  4063d1:	48 05 00 01 00 00    	add    $0x100,%rax
  4063d7:	48 89 c7             	mov    %rax,%rdi
  4063da:	e8 d1 c2 ff ff       	callq  4026b0 <_ZNKSt9basic_iosIcSt11char_traitsIcEE4failEv@plt>
  4063df:	84 c0                	test   %al,%al
  4063e1:	75 3a                	jne    40641d <_ZN7Lexicon14readBinaryFileESs+0x193>
  4063e3:	48 8d 8d d0 fd ff ff 	lea    -0x230(%rbp),%rcx
  4063ea:	48 8d 85 c0 fd ff ff 	lea    -0x240(%rbp),%rax
  4063f1:	ba 04 00 00 00       	mov    $0x4,%edx
  4063f6:	48 89 ce             	mov    %rcx,%rsi
  4063f9:	48 89 c7             	mov    %rax,%rdi
  4063fc:	e8 bf c0 ff ff       	callq  4024c0 <strncmp@plt>
  406401:	85 c0                	test   %eax,%eax
  406403:	75 18                	jne    40641d <_ZN7Lexicon14readBinaryFileESs+0x193>
  406405:	48 8b 85 a8 fd ff ff 	mov    -0x258(%rbp),%rax
  40640c:	48 85 c0             	test   %rax,%rax
  40640f:	78 0c                	js     40641d <_ZN7Lexicon14readBinaryFileESs+0x193>
  406411:	48 8b 85 b0 fd ff ff 	mov    -0x250(%rbp),%rax
  406418:	48 85 c0             	test   %rax,%rax
  40641b:	79 07                	jns    406424 <_ZN7Lexicon14readBinaryFileESs+0x19a>
  40641d:	b8 01 00 00 00       	mov    $0x1,%eax
  406422:	eb 05                	jmp    406429 <_ZN7Lexicon14readBinaryFileESs+0x19f>
  406424:	b8 00 00 00 00       	mov    $0x0,%eax
  406429:	84 c0                	test   %al,%al
  40642b:	74 39                	je     406466 <_ZN7Lexicon14readBinaryFileESs+0x1dc>
  40642d:	48 8d 85 90 fd ff ff 	lea    -0x270(%rbp),%rax
  406434:	48 8b 95 60 fd ff ff 	mov    -0x2a0(%rbp),%rdx
  40643b:	be e0 c3 40 00       	mov    $0x40c3e0,%esi
  406440:	48 89 c7             	mov    %rax,%rdi
  406443:	e8 fc 1d 00 00       	callq  408244 <_ZStplIcSt11char_traitsIcESaIcEESbIT_T0_T1_EPKS3_RKS6_>
  406448:	48 8d 85 90 fd ff ff 	lea    -0x270(%rbp),%rax
  40644f:	48 89 c7             	mov    %rax,%rdi
  406452:	e8 3e 5d 00 00       	callq  40c195 <_Z5errorSs>
  406457:	48 8d 85 90 fd ff ff 	lea    -0x270(%rbp),%rax
  40645e:	48 89 c7             	mov    %rax,%rdi
  406461:	e8 3a c1 ff ff       	callq  4025a0 <_ZNSsD1Ev@plt>
  406466:	48 8b 85 b0 fd ff ff 	mov    -0x250(%rbp),%rax
  40646d:	48 c1 e8 02          	shr    $0x2,%rax
  406471:	89 c2                	mov    %eax,%edx
  406473:	48 8b 85 68 fd ff ff 	mov    -0x298(%rbp),%rax
  40647a:	89 50 18             	mov    %edx,0x18(%rax)
  40647d:	48 8b 85 68 fd ff ff 	mov    -0x298(%rbp),%rax
  406484:	8b 40 18             	mov    0x18(%rax),%eax
  406487:	48 98                	cltq   
  406489:	48 ba 00 00 00 00 00 	movabs $0x1fc0000000000000,%rdx
  406490:	00 c0 1f 
  406493:	48 39 d0             	cmp    %rdx,%rax
  406496:	77 06                	ja     40649e <_ZN7Lexicon14readBinaryFileESs+0x214>
  406498:	48 c1 e0 02          	shl    $0x2,%rax
  40649c:	eb 07                	jmp    4064a5 <_ZN7Lexicon14readBinaryFileESs+0x21b>
  40649e:	48 c7 c0 ff ff ff ff 	mov    $0xffffffffffffffff,%rax
  4064a5:	48 89 c7             	mov    %rax,%rdi
  4064a8:	e8 a3 bf ff ff       	callq  402450 <_Znam@plt>
  4064ad:	48 8b 95 68 fd ff ff 	mov    -0x298(%rbp),%rdx
  4064b4:	48 89 42 08          	mov    %rax,0x8(%rdx)
  4064b8:	48 8b 85 68 fd ff ff 	mov    -0x298(%rbp),%rax
  4064bf:	48 8b 40 08          	mov    0x8(%rax),%rax
  4064c3:	48 8b 95 a8 fd ff ff 	mov    -0x258(%rbp),%rdx
  4064ca:	48 c1 e2 02          	shl    $0x2,%rdx
  4064ce:	48 01 c2             	add    %rax,%rdx
  4064d1:	48 8b 85 68 fd ff ff 	mov    -0x298(%rbp),%rax
  4064d8:	48 89 50 10          	mov    %rdx,0x10(%rax)
  4064dc:	48 8b 95 b0 fd ff ff 	mov    -0x250(%rbp),%rdx
  4064e3:	48 8b 85 68 fd ff ff 	mov    -0x298(%rbp),%rax
  4064ea:	48 8b 48 08          	mov    0x8(%rax),%rcx
  4064ee:	48 8d 85 e0 fd ff ff 	lea    -0x220(%rbp),%rax
  4064f5:	48 89 ce             	mov    %rcx,%rsi
  4064f8:	48 89 c7             	mov    %rax,%rdi
  4064fb:	e8 60 c0 ff ff       	callq  402560 <_ZNSi4readEPcl@plt>
  406500:	48 8d 85 e0 fd ff ff 	lea    -0x220(%rbp),%rax
  406507:	48 05 00 01 00 00    	add    $0x100,%rax
  40650d:	48 89 c7             	mov    %rax,%rdi
  406510:	e8 9b c1 ff ff       	callq  4026b0 <_ZNKSt9basic_iosIcSt11char_traitsIcEE4failEv@plt>
  406515:	84 c0                	test   %al,%al
  406517:	74 23                	je     40653c <_ZN7Lexicon14readBinaryFileESs+0x2b2>
  406519:	48 8d 85 e0 fd ff ff 	lea    -0x220(%rbp),%rax
  406520:	48 05 00 01 00 00    	add    $0x100,%rax
  406526:	48 89 c7             	mov    %rax,%rdi
  406529:	e8 42 c1 ff ff       	callq  402670 <_ZNKSt9basic_iosIcSt11char_traitsIcEE3eofEv@plt>
  40652e:	83 f0 01             	xor    $0x1,%eax
  406531:	84 c0                	test   %al,%al
  406533:	74 07                	je     40653c <_ZN7Lexicon14readBinaryFileESs+0x2b2>
  406535:	b8 01 00 00 00       	mov    $0x1,%eax
  40653a:	eb 05                	jmp    406541 <_ZN7Lexicon14readBinaryFileESs+0x2b7>
  40653c:	b8 00 00 00 00       	mov    $0x0,%eax
  406541:	84 c0                	test   %al,%al
  406543:	74 39                	je     40657e <_ZN7Lexicon14readBinaryFileESs+0x2f4>
  406545:	48 8d 85 a0 fd ff ff 	lea    -0x260(%rbp),%rax
  40654c:	48 8b 95 60 fd ff ff 	mov    -0x2a0(%rbp),%rdx
  406553:	be e0 c3 40 00       	mov    $0x40c3e0,%esi
  406558:	48 89 c7             	mov    %rax,%rdi
  40655b:	e8 e4 1c 00 00       	callq  408244 <_ZStplIcSt11char_traitsIcESaIcEESbIT_T0_T1_EPKS3_RKS6_>
  406560:	48 8d 85 a0 fd ff ff 	lea    -0x260(%rbp),%rax
  406567:	48 89 c7             	mov    %rax,%rdi
  40656a:	e8 26 5c 00 00       	callq  40c195 <_Z5errorSs>
  40656f:	48 8d 85 a0 fd ff ff 	lea    -0x260(%rbp),%rax
  406576:	48 89 c7             	mov    %rax,%rdi
  406579:	e8 22 c0 ff ff       	callq  4025a0 <_ZNSsD1Ev@plt>
  40657e:	48 8b 85 68 fd ff ff 	mov    -0x298(%rbp),%rax
  406585:	48 8b 40 08          	mov    0x8(%rax),%rax
  406589:	48 89 85 b8 fd ff ff 	mov    %rax,-0x248(%rbp)
  406590:	c7 85 7c fd ff ff 00 	movl   $0x0,-0x284(%rbp)
  406597:	00 00 00 
  40659a:	eb 28                	jmp    4065c4 <_ZN7Lexicon14readBinaryFileESs+0x33a>
  40659c:	48 8b 85 b8 fd ff ff 	mov    -0x248(%rbp),%rax
  4065a3:	8b 00                	mov    (%rax),%eax
  4065a5:	89 c7                	mov    %eax,%edi
  4065a7:	e8 a4 fc ff ff       	callq  406250 <_ZL8my_ntohlj>
  4065ac:	48 8b 95 b8 fd ff ff 	mov    -0x248(%rbp),%rdx
  4065b3:	89 02                	mov    %eax,(%rdx)
  4065b5:	83 85 7c fd ff ff 01 	addl   $0x1,-0x284(%rbp)
  4065bc:	48 83 85 b8 fd ff ff 	addq   $0x4,-0x248(%rbp)
  4065c3:	04 
  4065c4:	48 8b 85 68 fd ff ff 	mov    -0x298(%rbp),%rax
  4065cb:	8b 40 18             	mov    0x18(%rax),%eax
  4065ce:	3b 85 7c fd ff ff    	cmp    -0x284(%rbp),%eax
  4065d4:	7f c6                	jg     40659c <_ZN7Lexicon14readBinaryFileESs+0x312>
  4065d6:	48 8d 85 e0 fd ff ff 	lea    -0x220(%rbp),%rax
  4065dd:	48 89 c7             	mov    %rax,%rdi
  4065e0:	e8 cb bd ff ff       	callq  4023b0 <_ZNSt14basic_ifstreamIcSt11char_traitsIcEE5closeEv@plt>
  4065e5:	48 8b 85 68 fd ff ff 	mov    -0x298(%rbp),%rax
  4065ec:	48 8b 50 10          	mov    0x10(%rax),%rdx
  4065f0:	48 8b 85 68 fd ff ff 	mov    -0x298(%rbp),%rax
  4065f7:	48 89 d6             	mov    %rdx,%rsi
  4065fa:	48 89 c7             	mov    %rax,%rdi
  4065fd:	e8 92 00 00 00       	callq  406694 <_ZNK7Lexicon14countDawgWordsEPNS_4EdgeE>
  406602:	48 8b 95 68 fd ff ff 	mov    -0x298(%rbp),%rdx
  406609:	89 42 1c             	mov    %eax,0x1c(%rdx)
  40660c:	48 8d 85 e0 fd ff ff 	lea    -0x220(%rbp),%rax
  406613:	48 89 c7             	mov    %rax,%rdi
  406616:	e8 15 c0 ff ff       	callq  402630 <_ZNSt14basic_ifstreamIcSt11char_traitsIcEED1Ev@plt>
  40661b:	48 8b 45 e8          	mov    -0x18(%rbp),%rax
  40661f:	64 48 33 04 25 28 00 	xor    %fs:0x28,%rax
  406626:	00 00 
  406628:	74 60                	je     40668a <_ZN7Lexicon14readBinaryFileESs+0x400>
  40662a:	eb 59                	jmp    406685 <_ZN7Lexicon14readBinaryFileESs+0x3fb>
  40662c:	48 89 c3             	mov    %rax,%rbx
  40662f:	48 8d 85 80 fd ff ff 	lea    -0x280(%rbp),%rax
  406636:	48 89 c7             	mov    %rax,%rdi
  406639:	e8 62 bf ff ff       	callq  4025a0 <_ZNSsD1Ev@plt>
  40663e:	eb 2b                	jmp    40666b <_ZN7Lexicon14readBinaryFileESs+0x3e1>
  406640:	48 89 c3             	mov    %rax,%rbx
  406643:	48 8d 85 90 fd ff ff 	lea    -0x270(%rbp),%rax
  40664a:	48 89 c7             	mov    %rax,%rdi
  40664d:	e8 4e bf ff ff       	callq  4025a0 <_ZNSsD1Ev@plt>
  406652:	eb 17                	jmp    40666b <_ZN7Lexicon14readBinaryFileESs+0x3e1>
  406654:	48 89 c3             	mov    %rax,%rbx
  406657:	48 8d 85 a0 fd ff ff 	lea    -0x260(%rbp),%rax
  40665e:	48 89 c7             	mov    %rax,%rdi
  406661:	e8 3a bf ff ff       	callq  4025a0 <_ZNSsD1Ev@plt>
  406666:	eb 03                	jmp    40666b <_ZN7Lexicon14readBinaryFileESs+0x3e1>
  406668:	48 89 c3             	mov    %rax,%rbx
  40666b:	48 8d 85 e0 fd ff ff 	lea    -0x220(%rbp),%rax
  406672:	48 89 c7             	mov    %rax,%rdi
  406675:	e8 b6 bf ff ff       	callq  402630 <_ZNSt14basic_ifstreamIcSt11char_traitsIcEED1Ev@plt>
  40667a:	48 89 d8             	mov    %rbx,%rax
  40667d:	48 89 c7             	mov    %rax,%rdi
  406680:	e8 4b c2 ff ff       	callq  4028d0 <_Unwind_Resume@plt>
  406685:	e8 56 c0 ff ff       	callq  4026e0 <__stack_chk_fail@plt>
  40668a:	48 81 c4 98 02 00 00 	add    $0x298,%rsp
  406691:	5b                   	pop    %rbx
  406692:	5d                   	pop    %rbp
  406693:	c3                   	retq   

0000000000406694 <_ZNK7Lexicon14countDawgWordsEPNS_4EdgeE>:
  406694:	55                   	push   %rbp
  406695:	48 89 e5             	mov    %rsp,%rbp
  406698:	48 83 ec 20          	sub    $0x20,%rsp
  40669c:	48 89 7d e8          	mov    %rdi,-0x18(%rbp)
  4066a0:	48 89 75 e0          	mov    %rsi,-0x20(%rbp)
  4066a4:	c7 45 fc 00 00 00 00 	movl   $0x0,-0x4(%rbp)
  4066ab:	48 8b 45 e0          	mov    -0x20(%rbp),%rax
  4066af:	0f b6 00             	movzbl (%rax),%eax
  4066b2:	83 e0 40             	and    $0x40,%eax
  4066b5:	84 c0                	test   %al,%al
  4066b7:	74 04                	je     4066bd <_ZNK7Lexicon14countDawgWordsEPNS_4EdgeE+0x29>
  4066b9:	83 45 fc 01          	addl   $0x1,-0x4(%rbp)
  4066bd:	48 8b 45 e0          	mov    -0x20(%rbp),%rax
  4066c1:	0f b6 50 01          	movzbl 0x1(%rax),%edx
  4066c5:	0f b6 48 02          	movzbl 0x2(%rax),%ecx
  4066c9:	48 c1 e1 08          	shl    $0x8,%rcx
  4066cd:	48 09 ca             	or     %rcx,%rdx
  4066d0:	0f b6 40 03          	movzbl 0x3(%rax),%eax
  4066d4:	48 c1 e0 10          	shl    $0x10,%rax
  4066d8:	48 09 d0             	or     %rdx,%rax
  4066db:	85 c0                	test   %eax,%eax
  4066dd:	74 41                	je     406720 <_ZNK7Lexicon14countDawgWordsEPNS_4EdgeE+0x8c>
  4066df:	48 8b 45 e8          	mov    -0x18(%rbp),%rax
  4066e3:	48 8b 50 08          	mov    0x8(%rax),%rdx
  4066e7:	48 8b 45 e0          	mov    -0x20(%rbp),%rax
  4066eb:	0f b6 48 01          	movzbl 0x1(%rax),%ecx
  4066ef:	0f b6 70 02          	movzbl 0x2(%rax),%esi
  4066f3:	48 c1 e6 08          	shl    $0x8,%rsi
  4066f7:	48 09 f1             	or     %rsi,%rcx
  4066fa:	0f b6 40 03          	movzbl 0x3(%rax),%eax
  4066fe:	48 c1 e0 10          	shl    $0x10,%rax
  406702:	48 09 c8             	or     %rcx,%rax
  406705:	89 c0                	mov    %eax,%eax
  406707:	48 c1 e0 02          	shl    $0x2,%rax
  40670b:	48 01 c2             	add    %rax,%rdx
  40670e:	48 8b 45 e8          	mov    -0x18(%rbp),%rax
  406712:	48 89 d6             	mov    %rdx,%rsi
  406715:	48 89 c7             	mov    %rax,%rdi
  406718:	e8 77 ff ff ff       	callq  406694 <_ZNK7Lexicon14countDawgWordsEPNS_4EdgeE>
  40671d:	01 45 fc             	add    %eax,-0x4(%rbp)
  406720:	48 8b 45 e0          	mov    -0x20(%rbp),%rax
  406724:	0f b6 00             	movzbl (%rax),%eax
  406727:	83 e0 20             	and    $0x20,%eax
  40672a:	84 c0                	test   %al,%al
  40672c:	74 02                	je     406730 <_ZNK7Lexicon14countDawgWordsEPNS_4EdgeE+0x9c>
  40672e:	eb 0a                	jmp    40673a <_ZNK7Lexicon14countDawgWordsEPNS_4EdgeE+0xa6>
  406730:	48 83 45 e0 04       	addq   $0x4,-0x20(%rbp)
  406735:	e9 71 ff ff ff       	jmpq   4066ab <_ZNK7Lexicon14countDawgWordsEPNS_4EdgeE+0x17>
  40673a:	8b 45 fc             	mov    -0x4(%rbp),%eax
  40673d:	c9                   	leaveq 
  40673e:	c3                   	retq   
  40673f:	90                   	nop

0000000000406740 <_ZN7Lexicon16addWordsFromFileESs>:
  406740:	55                   	push   %rbp
  406741:	48 89 e5             	mov    %rsp,%rbp
  406744:	53                   	push   %rbx
  406745:	48 81 ec a8 02 00 00 	sub    $0x2a8,%rsp
  40674c:	48 89 bd 58 fd ff ff 	mov    %rdi,-0x2a8(%rbp)
  406753:	48 89 b5 50 fd ff ff 	mov    %rsi,-0x2b0(%rbp)
  40675a:	64 48 8b 04 25 28 00 	mov    %fs:0x28,%rax
  406761:	00 00 
  406763:	48 89 45 e8          	mov    %rax,-0x18(%rbp)
  406767:	31 c0                	xor    %eax,%eax
  406769:	c7 85 c0 fd ff ff 44 	movl   $0x47574144,-0x240(%rbp)
  406770:	41 57 47 
  406773:	c6 85 c4 fd ff ff 00 	movb   $0x0,-0x23c(%rbp)
  40677a:	48 8b 85 50 fd ff ff 	mov    -0x2b0(%rbp),%rax
  406781:	48 89 c7             	mov    %rax,%rdi
  406784:	e8 b7 bc ff ff       	callq  402440 <_ZNKSs5c_strEv@plt>
  406789:	48 89 c1             	mov    %rax,%rcx
  40678c:	48 8d 85 e0 fd ff ff 	lea    -0x220(%rbp),%rax
  406793:	ba 08 00 00 00       	mov    $0x8,%edx
  406798:	48 89 ce             	mov    %rcx,%rsi
  40679b:	48 89 c7             	mov    %rax,%rdi
  40679e:	e8 0d c0 ff ff       	callq  4027b0 <_ZNSt14basic_ifstreamIcSt11char_traitsIcEEC1EPKcSt13_Ios_Openmode@plt>
  4067a3:	48 8d 85 e0 fd ff ff 	lea    -0x220(%rbp),%rax
  4067aa:	48 05 00 01 00 00    	add    $0x100,%rax
  4067b0:	48 89 c7             	mov    %rax,%rdi
  4067b3:	e8 f8 be ff ff       	callq  4026b0 <_ZNKSt9basic_iosIcSt11char_traitsIcEE4failEv@plt>
  4067b8:	84 c0                	test   %al,%al
  4067ba:	74 39                	je     4067f5 <_ZN7Lexicon16addWordsFromFileESs+0xb5>
  4067bc:	48 8d 85 60 fd ff ff 	lea    -0x2a0(%rbp),%rax
  4067c3:	48 8b 95 50 fd ff ff 	mov    -0x2b0(%rbp),%rdx
  4067ca:	be c1 c3 40 00       	mov    $0x40c3c1,%esi
  4067cf:	48 89 c7             	mov    %rax,%rdi
  4067d2:	e8 6d 1a 00 00       	callq  408244 <_ZStplIcSt11char_traitsIcESaIcEESbIT_T0_T1_EPKS3_RKS6_>
  4067d7:	48 8d 85 60 fd ff ff 	lea    -0x2a0(%rbp),%rax
  4067de:	48 89 c7             	mov    %rax,%rdi
  4067e1:	e8 af 59 00 00       	callq  40c195 <_Z5errorSs>
  4067e6:	48 8d 85 60 fd ff ff 	lea    -0x2a0(%rbp),%rax
  4067ed:	48 89 c7             	mov    %rax,%rdi
  4067f0:	e8 ab bd ff ff       	callq  4025a0 <_ZNSsD1Ev@plt>
  4067f5:	48 8d 8d b0 fd ff ff 	lea    -0x250(%rbp),%rcx
  4067fc:	48 8d 85 e0 fd ff ff 	lea    -0x220(%rbp),%rax
  406803:	ba 04 00 00 00       	mov    $0x4,%edx
  406808:	48 89 ce             	mov    %rcx,%rsi
  40680b:	48 89 c7             	mov    %rax,%rdi
  40680e:	e8 4d bd ff ff       	callq  402560 <_ZNSi4readEPcl@plt>
  406813:	48 8d 8d c0 fd ff ff 	lea    -0x240(%rbp),%rcx
  40681a:	48 8d 85 b0 fd ff ff 	lea    -0x250(%rbp),%rax
  406821:	ba 04 00 00 00       	mov    $0x4,%edx
  406826:	48 89 ce             	mov    %rcx,%rsi
  406829:	48 89 c7             	mov    %rax,%rdi
  40682c:	e8 8f bc ff ff       	callq  4024c0 <strncmp@plt>
  406831:	85 c0                	test   %eax,%eax
  406833:	0f 85 be 00 00 00    	jne    4068f7 <_ZN7Lexicon16addWordsFromFileESs+0x1b7>
  406839:	48 8b 85 58 fd ff ff 	mov    -0x2a8(%rbp),%rax
  406840:	48 83 c0 20          	add    $0x20,%rax
  406844:	48 89 c7             	mov    %rax,%rdi
  406847:	e8 9c 1a 00 00       	callq  4082e8 <_ZNK3SetISsE4sizeEv>
  40684c:	85 c0                	test   %eax,%eax
  40684e:	0f 95 c0             	setne  %al
  406851:	84 c0                	test   %al,%al
  406853:	74 57                	je     4068ac <_ZN7Lexicon16addWordsFromFileESs+0x16c>
  406855:	48 8d 85 a0 fd ff ff 	lea    -0x260(%rbp),%rax
  40685c:	48 89 c7             	mov    %rax,%rdi
  40685f:	e8 0c c0 ff ff       	callq  402870 <_ZNSaIcEC1Ev@plt>
  406864:	48 8d 95 a0 fd ff ff 	lea    -0x260(%rbp),%rdx
  40686b:	48 8d 85 70 fd ff ff 	lea    -0x290(%rbp),%rax
  406872:	be 00 c4 40 00       	mov    $0x40c400,%esi
  406877:	48 89 c7             	mov    %rax,%rdi
  40687a:	e8 a1 bd ff ff       	callq  402620 <_ZNSsC1EPKcRKSaIcE@plt>
  40687f:	48 8d 85 70 fd ff ff 	lea    -0x290(%rbp),%rax
  406886:	48 89 c7             	mov    %rax,%rdi
  406889:	e8 07 59 00 00       	callq  40c195 <_Z5errorSs>
  40688e:	48 8d 85 70 fd ff ff 	lea    -0x290(%rbp),%rax
  406895:	48 89 c7             	mov    %rax,%rdi
  406898:	e8 03 bd ff ff       	callq  4025a0 <_ZNSsD1Ev@plt>
  40689d:	48 8d 85 a0 fd ff ff 	lea    -0x260(%rbp),%rax
  4068a4:	48 89 c7             	mov    %rax,%rdi
  4068a7:	e8 84 be ff ff       	callq  402730 <_ZNSaIcED1Ev@plt>
  4068ac:	48 8b 95 50 fd ff ff 	mov    -0x2b0(%rbp),%rdx
  4068b3:	48 8d 85 80 fd ff ff 	lea    -0x280(%rbp),%rax
  4068ba:	48 89 d6             	mov    %rdx,%rsi
  4068bd:	48 89 c7             	mov    %rax,%rdi
  4068c0:	e8 4b bc ff ff       	callq  402510 <_ZNSsC1ERKSs@plt>
  4068c5:	48 8d 95 80 fd ff ff 	lea    -0x280(%rbp),%rdx
  4068cc:	48 8b 85 58 fd ff ff 	mov    -0x2a8(%rbp),%rax
  4068d3:	48 89 d6             	mov    %rdx,%rsi
  4068d6:	48 89 c7             	mov    %rax,%rdi
  4068d9:	e8 ac f9 ff ff       	callq  40628a <_ZN7Lexicon14readBinaryFileESs>
  4068de:	48 8d 85 80 fd ff ff 	lea    -0x280(%rbp),%rax
  4068e5:	48 89 c7             	mov    %rax,%rdi
  4068e8:	e8 b3 bc ff ff       	callq  4025a0 <_ZNSsD1Ev@plt>
  4068ed:	bb 00 00 00 00       	mov    $0x0,%ebx
  4068f2:	e9 e1 00 00 00       	jmpq   4069d8 <_ZN7Lexicon16addWordsFromFileESs+0x298>
  4068f7:	48 8d 85 d0 fd ff ff 	lea    -0x230(%rbp),%rax
  4068fe:	be 00 00 00 00       	mov    $0x0,%esi
  406903:	48 89 c7             	mov    %rax,%rdi
  406906:	e8 fb 19 00 00       	callq  408306 <_ZNSt4fposI11__mbstate_tEC1El>
  40690b:	48 8b 8d d0 fd ff ff 	mov    -0x230(%rbp),%rcx
  406912:	48 8b 95 d8 fd ff ff 	mov    -0x228(%rbp),%rdx
  406919:	48 8d 85 e0 fd ff ff 	lea    -0x220(%rbp),%rax
  406920:	48 89 ce             	mov    %rcx,%rsi
  406923:	48 89 c7             	mov    %rax,%rdi
  406926:	e8 f5 bb ff ff       	callq  402520 <_ZNSi5seekgESt4fposI11__mbstate_tE@plt>
  40692b:	48 8d 85 90 fd ff ff 	lea    -0x270(%rbp),%rax
  406932:	48 89 c7             	mov    %rax,%rdi
  406935:	e8 66 ba ff ff       	callq  4023a0 <_ZNSsC1Ev@plt>
  40693a:	eb 41                	jmp    40697d <_ZN7Lexicon16addWordsFromFileESs+0x23d>
  40693c:	48 8d 95 90 fd ff ff 	lea    -0x270(%rbp),%rdx
  406943:	48 8d 85 a0 fd ff ff 	lea    -0x260(%rbp),%rax
  40694a:	48 89 d6             	mov    %rdx,%rsi
  40694d:	48 89 c7             	mov    %rax,%rdi
  406950:	e8 bb bb ff ff       	callq  402510 <_ZNSsC1ERKSs@plt>
  406955:	48 8d 95 a0 fd ff ff 	lea    -0x260(%rbp),%rdx
  40695c:	48 8b 85 58 fd ff ff 	mov    -0x2a8(%rbp),%rax
  406963:	48 89 d6             	mov    %rdx,%rsi
  406966:	48 89 c7             	mov    %rax,%rdi
  406969:	e8 f6 05 00 00       	callq  406f64 <_ZN7Lexicon3addESs>
  40696e:	48 8d 85 a0 fd ff ff 	lea    -0x260(%rbp),%rax
  406975:	48 89 c7             	mov    %rax,%rdi
  406978:	e8 23 bc ff ff       	callq  4025a0 <_ZNSsD1Ev@plt>
  40697d:	48 8d 95 90 fd ff ff 	lea    -0x270(%rbp),%rdx
  406984:	48 8d 85 e0 fd ff ff 	lea    -0x220(%rbp),%rax
  40698b:	48 89 d6             	mov    %rdx,%rsi
  40698e:	48 89 c7             	mov    %rax,%rdi
  406991:	e8 8a ba ff ff       	callq  402420 <_ZSt7getlineIcSt11char_traitsIcESaIcEERSt13basic_istreamIT_T0_ES7_RSbIS4_S5_T1_E@plt>
  406996:	48 8b 10             	mov    (%rax),%rdx
  406999:	48 83 ea 18          	sub    $0x18,%rdx
  40699d:	48 8b 12             	mov    (%rdx),%rdx
  4069a0:	48 01 d0             	add    %rdx,%rax
  4069a3:	48 89 c7             	mov    %rax,%rdi
  4069a6:	e8 55 ba ff ff       	callq  402400 <_ZNKSt9basic_iosIcSt11char_traitsIcEEcvPvEv@plt>
  4069ab:	48 85 c0             	test   %rax,%rax
  4069ae:	0f 95 c0             	setne  %al
  4069b1:	84 c0                	test   %al,%al
  4069b3:	75 87                	jne    40693c <_ZN7Lexicon16addWordsFromFileESs+0x1fc>
  4069b5:	48 8d 85 e0 fd ff ff 	lea    -0x220(%rbp),%rax
  4069bc:	48 89 c7             	mov    %rax,%rdi
  4069bf:	e8 ec b9 ff ff       	callq  4023b0 <_ZNSt14basic_ifstreamIcSt11char_traitsIcEE5closeEv@plt>
  4069c4:	48 8d 85 90 fd ff ff 	lea    -0x270(%rbp),%rax
  4069cb:	48 89 c7             	mov    %rax,%rdi
  4069ce:	e8 cd bb ff ff       	callq  4025a0 <_ZNSsD1Ev@plt>
  4069d3:	bb 01 00 00 00       	mov    $0x1,%ebx
  4069d8:	48 8d 85 e0 fd ff ff 	lea    -0x220(%rbp),%rax
  4069df:	48 89 c7             	mov    %rax,%rdi
  4069e2:	e8 49 bc ff ff       	callq  402630 <_ZNSt14basic_ifstreamIcSt11char_traitsIcEED1Ev@plt>
  4069e7:	83 fb 01             	cmp    $0x1,%ebx
  4069ea:	74 05                	je     4069f1 <_ZN7Lexicon16addWordsFromFileESs+0x2b1>
  4069ec:	e9 9b 00 00 00       	jmpq   406a8c <_ZN7Lexicon16addWordsFromFileESs+0x34c>
  4069f1:	90                   	nop
  4069f2:	e9 95 00 00 00       	jmpq   406a8c <_ZN7Lexicon16addWordsFromFileESs+0x34c>
  4069f7:	48 89 c3             	mov    %rax,%rbx
  4069fa:	48 8d 85 60 fd ff ff 	lea    -0x2a0(%rbp),%rax
  406a01:	48 89 c7             	mov    %rax,%rdi
  406a04:	e8 97 bb ff ff       	callq  4025a0 <_ZNSsD1Ev@plt>
  406a09:	eb 67                	jmp    406a72 <_ZN7Lexicon16addWordsFromFileESs+0x332>
  406a0b:	48 89 c3             	mov    %rax,%rbx
  406a0e:	48 8d 85 70 fd ff ff 	lea    -0x290(%rbp),%rax
  406a15:	48 89 c7             	mov    %rax,%rdi
  406a18:	e8 83 bb ff ff       	callq  4025a0 <_ZNSsD1Ev@plt>
  406a1d:	eb 03                	jmp    406a22 <_ZN7Lexicon16addWordsFromFileESs+0x2e2>
  406a1f:	48 89 c3             	mov    %rax,%rbx
  406a22:	48 8d 85 a0 fd ff ff 	lea    -0x260(%rbp),%rax
  406a29:	48 89 c7             	mov    %rax,%rdi
  406a2c:	e8 ff bc ff ff       	callq  402730 <_ZNSaIcED1Ev@plt>
  406a31:	eb 3f                	jmp    406a72 <_ZN7Lexicon16addWordsFromFileESs+0x332>
  406a33:	48 89 c3             	mov    %rax,%rbx
  406a36:	48 8d 85 80 fd ff ff 	lea    -0x280(%rbp),%rax
  406a3d:	48 89 c7             	mov    %rax,%rdi
  406a40:	e8 5b bb ff ff       	callq  4025a0 <_ZNSsD1Ev@plt>
  406a45:	eb 2b                	jmp    406a72 <_ZN7Lexicon16addWordsFromFileESs+0x332>
  406a47:	48 89 c3             	mov    %rax,%rbx
  406a4a:	48 8d 85 a0 fd ff ff 	lea    -0x260(%rbp),%rax
  406a51:	48 89 c7             	mov    %rax,%rdi
  406a54:	e8 47 bb ff ff       	callq  4025a0 <_ZNSsD1Ev@plt>
  406a59:	eb 03                	jmp    406a5e <_ZN7Lexicon16addWordsFromFileESs+0x31e>
  406a5b:	48 89 c3             	mov    %rax,%rbx
  406a5e:	48 8d 85 90 fd ff ff 	lea    -0x270(%rbp),%rax
  406a65:	48 89 c7             	mov    %rax,%rdi
  406a68:	e8 33 bb ff ff       	callq  4025a0 <_ZNSsD1Ev@plt>
  406a6d:	eb 03                	jmp    406a72 <_ZN7Lexicon16addWordsFromFileESs+0x332>
  406a6f:	48 89 c3             	mov    %rax,%rbx
  406a72:	48 8d 85 e0 fd ff ff 	lea    -0x220(%rbp),%rax
  406a79:	48 89 c7             	mov    %rax,%rdi
  406a7c:	e8 af bb ff ff       	callq  402630 <_ZNSt14basic_ifstreamIcSt11char_traitsIcEED1Ev@plt>
  406a81:	48 89 d8             	mov    %rbx,%rax
  406a84:	48 89 c7             	mov    %rax,%rdi
  406a87:	e8 44 be ff ff       	callq  4028d0 <_Unwind_Resume@plt>
  406a8c:	48 8b 45 e8          	mov    -0x18(%rbp),%rax
  406a90:	64 48 33 04 25 28 00 	xor    %fs:0x28,%rax
  406a97:	00 00 
  406a99:	74 05                	je     406aa0 <_ZN7Lexicon16addWordsFromFileESs+0x360>
  406a9b:	e8 40 bc ff ff       	callq  4026e0 <__stack_chk_fail@plt>
  406aa0:	48 81 c4 a8 02 00 00 	add    $0x2a8,%rsp
  406aa7:	5b                   	pop    %rbx
  406aa8:	5d                   	pop    %rbp
  406aa9:	c3                   	retq   

0000000000406aaa <_ZNK7Lexicon4sizeEv>:
  406aaa:	55                   	push   %rbp
  406aab:	48 89 e5             	mov    %rsp,%rbp
  406aae:	53                   	push   %rbx
  406aaf:	48 83 ec 18          	sub    $0x18,%rsp
  406ab3:	48 89 7d e8          	mov    %rdi,-0x18(%rbp)
  406ab7:	48 8b 45 e8          	mov    -0x18(%rbp),%rax
  406abb:	8b 58 1c             	mov    0x1c(%rax),%ebx
  406abe:	48 8b 45 e8          	mov    -0x18(%rbp),%rax
  406ac2:	48 83 c0 20          	add    $0x20,%rax
  406ac6:	48 89 c7             	mov    %rax,%rdi
  406ac9:	e8 1a 18 00 00       	callq  4082e8 <_ZNK3SetISsE4sizeEv>
  406ace:	01 d8                	add    %ebx,%eax
  406ad0:	48 83 c4 18          	add    $0x18,%rsp
  406ad4:	5b                   	pop    %rbx
  406ad5:	5d                   	pop    %rbp
  406ad6:	c3                   	retq   
  406ad7:	90                   	nop

0000000000406ad8 <_ZNK7Lexicon7isEmptyEv>:
  406ad8:	55                   	push   %rbp
  406ad9:	48 89 e5             	mov    %rsp,%rbp
  406adc:	48 83 ec 10          	sub    $0x10,%rsp
  406ae0:	48 89 7d f8          	mov    %rdi,-0x8(%rbp)
  406ae4:	48 8b 45 f8          	mov    -0x8(%rbp),%rax
  406ae8:	48 89 c7             	mov    %rax,%rdi
  406aeb:	e8 ba ff ff ff       	callq  406aaa <_ZNK7Lexicon4sizeEv>
  406af0:	85 c0                	test   %eax,%eax
  406af2:	0f 94 c0             	sete   %al
  406af5:	c9                   	leaveq 
  406af6:	c3                   	retq   
  406af7:	90                   	nop

0000000000406af8 <_ZN7Lexicon5clearEv>:
  406af8:	55                   	push   %rbp
  406af9:	48 89 e5             	mov    %rsp,%rbp
  406afc:	48 83 ec 10          	sub    $0x10,%rsp
  406b00:	48 89 7d f8          	mov    %rdi,-0x8(%rbp)
  406b04:	48 8b 45 f8          	mov    -0x8(%rbp),%rax
  406b08:	48 8b 40 08          	mov    0x8(%rax),%rax
  406b0c:	48 85 c0             	test   %rax,%rax
  406b0f:	74 1d                	je     406b2e <_ZN7Lexicon5clearEv+0x36>
  406b11:	48 8b 45 f8          	mov    -0x8(%rbp),%rax
  406b15:	48 8b 40 08          	mov    0x8(%rax),%rax
  406b19:	48 85 c0             	test   %rax,%rax
  406b1c:	74 10                	je     406b2e <_ZN7Lexicon5clearEv+0x36>
  406b1e:	48 8b 45 f8          	mov    -0x8(%rbp),%rax
  406b22:	48 8b 40 08          	mov    0x8(%rax),%rax
  406b26:	48 89 c7             	mov    %rax,%rdi
  406b29:	e8 52 bc ff ff       	callq  402780 <_ZdaPv@plt>
  406b2e:	48 8b 45 f8          	mov    -0x8(%rbp),%rax
  406b32:	48 c7 40 10 00 00 00 	movq   $0x0,0x10(%rax)
  406b39:	00 
  406b3a:	48 8b 45 f8          	mov    -0x8(%rbp),%rax
  406b3e:	48 8b 50 10          	mov    0x10(%rax),%rdx
  406b42:	48 8b 45 f8          	mov    -0x8(%rbp),%rax
  406b46:	48 89 50 08          	mov    %rdx,0x8(%rax)
  406b4a:	48 8b 45 f8          	mov    -0x8(%rbp),%rax
  406b4e:	c7 40 1c 00 00 00 00 	movl   $0x0,0x1c(%rax)
  406b55:	48 8b 45 f8          	mov    -0x8(%rbp),%rax
  406b59:	8b 50 1c             	mov    0x1c(%rax),%edx
  406b5c:	48 8b 45 f8          	mov    -0x8(%rbp),%rax
  406b60:	89 50 18             	mov    %edx,0x18(%rax)
  406b63:	48 8b 45 f8          	mov    -0x8(%rbp),%rax
  406b67:	48 83 c0 20          	add    $0x20,%rax
  406b6b:	48 89 c7             	mov    %rax,%rdi
  406b6e:	e8 c3 17 00 00       	callq  408336 <_ZN3SetISsE5clearEv>
  406b73:	c9                   	leaveq 
  406b74:	c3                   	retq   
  406b75:	90                   	nop

0000000000406b76 <_ZNK7Lexicon15findEdgeForCharEPNS_4EdgeEc>:
  406b76:	55                   	push   %rbp
  406b77:	48 89 e5             	mov    %rsp,%rbp
  406b7a:	53                   	push   %rbx
  406b7b:	48 83 ec 38          	sub    $0x38,%rsp
  406b7f:	48 89 7d d8          	mov    %rdi,-0x28(%rbp)
  406b83:	48 89 75 d0          	mov    %rsi,-0x30(%rbp)
  406b87:	89 d0                	mov    %edx,%eax
  406b89:	88 45 cc             	mov    %al,-0x34(%rbp)
  406b8c:	48 8b 45 d0          	mov    -0x30(%rbp),%rax
  406b90:	48 89 45 e8          	mov    %rax,-0x18(%rbp)
  406b94:	48 8b 45 e8          	mov    -0x18(%rbp),%rax
  406b98:	0f b6 00             	movzbl (%rax),%eax
  406b9b:	83 e0 1f             	and    $0x1f,%eax
  406b9e:	0f b6 d8             	movzbl %al,%ebx
  406ba1:	0f be 55 cc          	movsbl -0x34(%rbp),%edx
  406ba5:	48 8b 45 d8          	mov    -0x28(%rbp),%rax
  406ba9:	89 d6                	mov    %edx,%esi
  406bab:	48 89 c7             	mov    %rax,%rdi
  406bae:	e8 a9 12 00 00       	callq  407e5c <_ZNK7Lexicon9charToOrdEc>
  406bb3:	39 c3                	cmp    %eax,%ebx
  406bb5:	0f 94 c0             	sete   %al
  406bb8:	84 c0                	test   %al,%al
  406bba:	74 06                	je     406bc2 <_ZNK7Lexicon15findEdgeForCharEPNS_4EdgeEc+0x4c>
  406bbc:	48 8b 45 e8          	mov    -0x18(%rbp),%rax
  406bc0:	eb 1c                	jmp    406bde <_ZNK7Lexicon15findEdgeForCharEPNS_4EdgeEc+0x68>
  406bc2:	48 8b 45 e8          	mov    -0x18(%rbp),%rax
  406bc6:	0f b6 00             	movzbl (%rax),%eax
  406bc9:	83 e0 20             	and    $0x20,%eax
  406bcc:	84 c0                	test   %al,%al
  406bce:	74 07                	je     406bd7 <_ZNK7Lexicon15findEdgeForCharEPNS_4EdgeEc+0x61>
  406bd0:	b8 00 00 00 00       	mov    $0x0,%eax
  406bd5:	eb 07                	jmp    406bde <_ZNK7Lexicon15findEdgeForCharEPNS_4EdgeEc+0x68>
  406bd7:	48 83 45 e8 04       	addq   $0x4,-0x18(%rbp)
  406bdc:	eb b6                	jmp    406b94 <_ZNK7Lexicon15findEdgeForCharEPNS_4EdgeEc+0x1e>
  406bde:	48 83 c4 38          	add    $0x38,%rsp
  406be2:	5b                   	pop    %rbx
  406be3:	5d                   	pop    %rbp
  406be4:	c3                   	retq   
  406be5:	90                   	nop

0000000000406be6 <_ZNK7Lexicon15traceToLastEdgeERKSs>:
  406be6:	55                   	push   %rbp
  406be7:	48 89 e5             	mov    %rsp,%rbp
  406bea:	48 83 ec 20          	sub    $0x20,%rsp
  406bee:	48 89 7d e8          	mov    %rdi,-0x18(%rbp)
  406bf2:	48 89 75 e0          	mov    %rsi,-0x20(%rbp)
  406bf6:	48 8b 45 e8          	mov    -0x18(%rbp),%rax
  406bfa:	48 8b 40 10          	mov    0x10(%rax),%rax
  406bfe:	48 85 c0             	test   %rax,%rax
  406c01:	75 0a                	jne    406c0d <_ZNK7Lexicon15traceToLastEdgeERKSs+0x27>
  406c03:	b8 00 00 00 00       	mov    $0x0,%eax
  406c08:	e9 ee 00 00 00       	jmpq   406cfb <_ZNK7Lexicon15traceToLastEdgeERKSs+0x115>
  406c0d:	48 8b 45 e0          	mov    -0x20(%rbp),%rax
  406c11:	be 00 00 00 00       	mov    $0x0,%esi
  406c16:	48 89 c7             	mov    %rax,%rdi
  406c19:	e8 52 bb ff ff       	callq  402770 <_ZNKSsixEm@plt>
  406c1e:	0f b6 00             	movzbl (%rax),%eax
  406c21:	0f be d0             	movsbl %al,%edx
  406c24:	48 8b 45 e8          	mov    -0x18(%rbp),%rax
  406c28:	48 8b 48 10          	mov    0x10(%rax),%rcx
  406c2c:	48 8b 45 e8          	mov    -0x18(%rbp),%rax
  406c30:	48 89 ce             	mov    %rcx,%rsi
  406c33:	48 89 c7             	mov    %rax,%rdi
  406c36:	e8 3b ff ff ff       	callq  406b76 <_ZNK7Lexicon15findEdgeForCharEPNS_4EdgeEc>
  406c3b:	48 89 45 f8          	mov    %rax,-0x8(%rbp)
  406c3f:	48 8b 45 e0          	mov    -0x20(%rbp),%rax
  406c43:	48 89 c7             	mov    %rax,%rdi
  406c46:	e8 25 b9 ff ff       	callq  402570 <_ZNKSs6lengthEv@plt>
  406c4b:	89 45 f4             	mov    %eax,-0xc(%rbp)
  406c4e:	c7 45 f0 01 00 00 00 	movl   $0x1,-0x10(%rbp)
  406c55:	e9 91 00 00 00       	jmpq   406ceb <_ZNK7Lexicon15traceToLastEdgeERKSs+0x105>
  406c5a:	48 83 7d f8 00       	cmpq   $0x0,-0x8(%rbp)
  406c5f:	74 22                	je     406c83 <_ZNK7Lexicon15traceToLastEdgeERKSs+0x9d>
  406c61:	48 8b 45 f8          	mov    -0x8(%rbp),%rax
  406c65:	0f b6 50 01          	movzbl 0x1(%rax),%edx
  406c69:	0f b6 48 02          	movzbl 0x2(%rax),%ecx
  406c6d:	48 c1 e1 08          	shl    $0x8,%rcx
  406c71:	48 09 ca             	or     %rcx,%rdx
  406c74:	0f b6 40 03          	movzbl 0x3(%rax),%eax
  406c78:	48 c1 e0 10          	shl    $0x10,%rax
  406c7c:	48 09 d0             	or     %rdx,%rax
  406c7f:	85 c0                	test   %eax,%eax
  406c81:	75 07                	jne    406c8a <_ZNK7Lexicon15traceToLastEdgeERKSs+0xa4>
  406c83:	b8 00 00 00 00       	mov    $0x0,%eax
  406c88:	eb 71                	jmp    406cfb <_ZNK7Lexicon15traceToLastEdgeERKSs+0x115>
  406c8a:	8b 45 f0             	mov    -0x10(%rbp),%eax
  406c8d:	48 63 d0             	movslq %eax,%rdx
  406c90:	48 8b 45 e0          	mov    -0x20(%rbp),%rax
  406c94:	48 89 d6             	mov    %rdx,%rsi
  406c97:	48 89 c7             	mov    %rax,%rdi
  406c9a:	e8 d1 ba ff ff       	callq  402770 <_ZNKSsixEm@plt>
  406c9f:	0f b6 00             	movzbl (%rax),%eax
  406ca2:	0f be d0             	movsbl %al,%edx
  406ca5:	48 8b 45 e8          	mov    -0x18(%rbp),%rax
  406ca9:	48 8b 48 08          	mov    0x8(%rax),%rcx
  406cad:	48 8b 45 f8          	mov    -0x8(%rbp),%rax
  406cb1:	0f b6 70 01          	movzbl 0x1(%rax),%esi
  406cb5:	0f b6 78 02          	movzbl 0x2(%rax),%edi
  406cb9:	48 c1 e7 08          	shl    $0x8,%rdi
  406cbd:	48 09 fe             	or     %rdi,%rsi
  406cc0:	0f b6 40 03          	movzbl 0x3(%rax),%eax
  406cc4:	48 c1 e0 10          	shl    $0x10,%rax
  406cc8:	48 09 f0             	or     %rsi,%rax
  406ccb:	89 c0                	mov    %eax,%eax
  406ccd:	48 c1 e0 02          	shl    $0x2,%rax
  406cd1:	48 01 c1             	add    %rax,%rcx
  406cd4:	48 8b 45 e8          	mov    -0x18(%rbp),%rax
  406cd8:	48 89 ce             	mov    %rcx,%rsi
  406cdb:	48 89 c7             	mov    %rax,%rdi
  406cde:	e8 93 fe ff ff       	callq  406b76 <_ZNK7Lexicon15findEdgeForCharEPNS_4EdgeEc>
  406ce3:	48 89 45 f8          	mov    %rax,-0x8(%rbp)
  406ce7:	83 45 f0 01          	addl   $0x1,-0x10(%rbp)
  406ceb:	8b 45 f0             	mov    -0x10(%rbp),%eax
  406cee:	3b 45 f4             	cmp    -0xc(%rbp),%eax
  406cf1:	0f 8c 63 ff ff ff    	jl     406c5a <_ZNK7Lexicon15traceToLastEdgeERKSs+0x74>
  406cf7:	48 8b 45 f8          	mov    -0x8(%rbp),%rax
  406cfb:	c9                   	leaveq 
  406cfc:	c3                   	retq   
  406cfd:	90                   	nop

0000000000406cfe <_ZNK7Lexicon14containsPrefixESs>:
  406cfe:	55                   	push   %rbp
  406cff:	48 89 e5             	mov    %rsp,%rbp
  406d02:	41 54                	push   %r12
  406d04:	53                   	push   %rbx
  406d05:	48 83 ec 50          	sub    $0x50,%rsp
  406d09:	48 89 7d a8          	mov    %rdi,-0x58(%rbp)
  406d0d:	48 89 75 a0          	mov    %rsi,-0x60(%rbp)
  406d11:	48 8b 45 a0          	mov    -0x60(%rbp),%rax
  406d15:	48 89 c7             	mov    %rax,%rdi
  406d18:	e8 a3 b8 ff ff       	callq  4025c0 <_ZNKSs5emptyEv@plt>
  406d1d:	84 c0                	test   %al,%al
  406d1f:	74 0a                	je     406d2b <_ZNK7Lexicon14containsPrefixESs+0x2d>
  406d21:	bb 01 00 00 00       	mov    $0x1,%ebx
  406d26:	e9 76 01 00 00       	jmpq   406ea1 <_ZNK7Lexicon14containsPrefixESs+0x1a3>
  406d2b:	48 8b 45 a0          	mov    -0x60(%rbp),%rax
  406d2f:	48 89 c7             	mov    %rax,%rdi
  406d32:	e8 d3 08 00 00       	callq  40760a <_ZL18toLowerCaseInPlaceRSs>
  406d37:	48 8b 55 a0          	mov    -0x60(%rbp),%rdx
  406d3b:	48 8b 45 a8          	mov    -0x58(%rbp),%rax
  406d3f:	48 89 d6             	mov    %rdx,%rsi
  406d42:	48 89 c7             	mov    %rax,%rdi
  406d45:	e8 9c fe ff ff       	callq  406be6 <_ZNK7Lexicon15traceToLastEdgeERKSs>
  406d4a:	48 85 c0             	test   %rax,%rax
  406d4d:	0f 95 c0             	setne  %al
  406d50:	84 c0                	test   %al,%al
  406d52:	74 0a                	je     406d5e <_ZNK7Lexicon14containsPrefixESs+0x60>
  406d54:	bb 01 00 00 00       	mov    $0x1,%ebx
  406d59:	e9 43 01 00 00       	jmpq   406ea1 <_ZNK7Lexicon14containsPrefixESs+0x1a3>
  406d5e:	48 8d 45 e0          	lea    -0x20(%rbp),%rax
  406d62:	48 89 c7             	mov    %rax,%rdi
  406d65:	e8 fa 09 00 00       	callq  407764 <_ZN3_fe5StateC1Ev>
  406d6a:	e9 08 01 00 00       	jmpq   406e77 <_ZNK7Lexicon14containsPrefixESs+0x179>
  406d6f:	8b 45 e0             	mov    -0x20(%rbp),%eax
  406d72:	85 c0                	test   %eax,%eax
  406d74:	75 19                	jne    406d8f <_ZNK7Lexicon14containsPrefixESs+0x91>
  406d76:	48 8b 45 a8          	mov    -0x58(%rbp),%rax
  406d7a:	48 8d 50 20          	lea    0x20(%rax),%rdx
  406d7e:	48 8d 45 e0          	lea    -0x20(%rbp),%rax
  406d82:	48 89 d6             	mov    %rdx,%rsi
  406d85:	48 89 c7             	mov    %rax,%rdi
  406d88:	e8 c7 15 00 00       	callq  408354 <_ZN3_fe4InitI3SetISsEEEPNS_6CRangeIT_EERNS_5StateERKS4_>
  406d8d:	eb 05                	jmp    406d94 <_ZNK7Lexicon14containsPrefixESs+0x96>
  406d8f:	b8 00 00 00 00       	mov    $0x0,%eax
  406d94:	48 8d 4d b0          	lea    -0x50(%rbp),%rcx
  406d98:	48 8d 75 e0          	lea    -0x20(%rbp),%rsi
  406d9c:	48 89 c2             	mov    %rax,%rdx
  406d9f:	48 89 cf             	mov    %rcx,%rdi
  406da2:	e8 0d 16 00 00       	callq  4083b4 <_ZN3_fe4HookI3SetISsEEENSt15iterator_traitsINT_8iteratorEE10value_typeERNS_5StateEPNS_6CRangeIS4_EE>
  406da7:	e9 91 00 00 00       	jmpq   406e3d <_ZNK7Lexicon14containsPrefixESs+0x13f>
  406dac:	48 8b 55 a0          	mov    -0x60(%rbp),%rdx
  406db0:	48 8d 45 d0          	lea    -0x30(%rbp),%rax
  406db4:	48 89 d6             	mov    %rdx,%rsi
  406db7:	48 89 c7             	mov    %rax,%rdi
  406dba:	e8 51 b7 ff ff       	callq  402510 <_ZNSsC1ERKSs@plt>
  406dbf:	48 8d 55 b0          	lea    -0x50(%rbp),%rdx
  406dc3:	48 8d 45 c0          	lea    -0x40(%rbp),%rax
  406dc7:	48 89 d6             	mov    %rdx,%rsi
  406dca:	48 89 c7             	mov    %rax,%rdi
  406dcd:	e8 3e b7 ff ff       	callq  402510 <_ZNSsC1ERKSs@plt>
  406dd2:	48 8d 55 d0          	lea    -0x30(%rbp),%rdx
  406dd6:	48 8d 45 c0          	lea    -0x40(%rbp),%rax
  406dda:	48 89 d6             	mov    %rdx,%rsi
  406ddd:	48 89 c7             	mov    %rax,%rdi
  406de0:	e8 f4 42 00 00       	callq  40b0d9 <_Z10startsWithSsSs>
  406de5:	41 89 c4             	mov    %eax,%r12d
  406de8:	48 8d 45 c0          	lea    -0x40(%rbp),%rax
  406dec:	48 89 c7             	mov    %rax,%rdi
  406def:	e8 ac b7 ff ff       	callq  4025a0 <_ZNSsD1Ev@plt>
  406df4:	48 8d 45 d0          	lea    -0x30(%rbp),%rax
  406df8:	48 89 c7             	mov    %rax,%rdi
  406dfb:	e8 a0 b7 ff ff       	callq  4025a0 <_ZNSsD1Ev@plt>
  406e00:	45 84 e4             	test   %r12b,%r12b
  406e03:	74 0d                	je     406e12 <_ZNK7Lexicon14containsPrefixESs+0x114>
  406e05:	bb 01 00 00 00       	mov    $0x1,%ebx
  406e0a:	41 bc 00 00 00 00    	mov    $0x0,%r12d
  406e10:	eb 48                	jmp    406e5a <_ZNK7Lexicon14containsPrefixESs+0x15c>
  406e12:	48 8d 55 b0          	lea    -0x50(%rbp),%rdx
  406e16:	48 8b 45 a0          	mov    -0x60(%rbp),%rax
  406e1a:	48 89 d6             	mov    %rdx,%rsi
  406e1d:	48 89 c7             	mov    %rax,%rdi
  406e20:	e8 03 13 00 00       	callq  408128 <_ZStltIcSt11char_traitsIcESaIcEEbRKSbIT_T0_T1_ES8_>
  406e25:	84 c0                	test   %al,%al
  406e27:	74 0d                	je     406e36 <_ZNK7Lexicon14containsPrefixESs+0x138>
  406e29:	bb 00 00 00 00       	mov    $0x0,%ebx
  406e2e:	41 bc 00 00 00 00    	mov    $0x0,%r12d
  406e34:	eb 24                	jmp    406e5a <_ZNK7Lexicon14containsPrefixESs+0x15c>
  406e36:	c7 45 e0 00 00 00 00 	movl   $0x0,-0x20(%rbp)
  406e3d:	8b 45 e0             	mov    -0x20(%rbp),%eax
  406e40:	8d 50 01             	lea    0x1(%rax),%edx
  406e43:	89 55 e0             	mov    %edx,-0x20(%rbp)
  406e46:	83 f8 01             	cmp    $0x1,%eax
  406e49:	0f 94 c0             	sete   %al
  406e4c:	84 c0                	test   %al,%al
  406e4e:	0f 85 58 ff ff ff    	jne    406dac <_ZNK7Lexicon14containsPrefixESs+0xae>
  406e54:	41 bc 01 00 00 00    	mov    $0x1,%r12d
  406e5a:	48 8d 45 b0          	lea    -0x50(%rbp),%rax
  406e5e:	48 89 c7             	mov    %rax,%rdi
  406e61:	e8 3a b7 ff ff       	callq  4025a0 <_ZNSsD1Ev@plt>
  406e66:	41 83 fc 01          	cmp    $0x1,%r12d
  406e6a:	75 03                	jne    406e6f <_ZNK7Lexicon14containsPrefixESs+0x171>
  406e6c:	90                   	nop
  406e6d:	eb 08                	jmp    406e77 <_ZNK7Lexicon14containsPrefixESs+0x179>
  406e6f:	41 bc 00 00 00 00    	mov    $0x0,%r12d
  406e75:	eb 12                	jmp    406e89 <_ZNK7Lexicon14containsPrefixESs+0x18b>
  406e77:	8b 45 e0             	mov    -0x20(%rbp),%eax
  406e7a:	83 f8 01             	cmp    $0x1,%eax
  406e7d:	0f 8e ec fe ff ff    	jle    406d6f <_ZNK7Lexicon14containsPrefixESs+0x71>
  406e83:	41 bc 01 00 00 00    	mov    $0x1,%r12d
  406e89:	48 8d 45 e0          	lea    -0x20(%rbp),%rax
  406e8d:	48 89 c7             	mov    %rax,%rdi
  406e90:	e8 ef 08 00 00       	callq  407784 <_ZN3_fe5StateD1Ev>
  406e95:	41 83 fc 01          	cmp    $0x1,%r12d
  406e99:	75 06                	jne    406ea1 <_ZNK7Lexicon14containsPrefixESs+0x1a3>
  406e9b:	90                   	nop
  406e9c:	bb 00 00 00 00       	mov    $0x0,%ebx
  406ea1:	89 d8                	mov    %ebx,%eax
  406ea3:	eb 4d                	jmp    406ef2 <_ZNK7Lexicon14containsPrefixESs+0x1f4>
  406ea5:	48 89 c3             	mov    %rax,%rbx
  406ea8:	48 8d 45 c0          	lea    -0x40(%rbp),%rax
  406eac:	48 89 c7             	mov    %rax,%rdi
  406eaf:	e8 ec b6 ff ff       	callq  4025a0 <_ZNSsD1Ev@plt>
  406eb4:	eb 03                	jmp    406eb9 <_ZNK7Lexicon14containsPrefixESs+0x1bb>
  406eb6:	48 89 c3             	mov    %rax,%rbx
  406eb9:	48 8d 45 d0          	lea    -0x30(%rbp),%rax
  406ebd:	48 89 c7             	mov    %rax,%rdi
  406ec0:	e8 db b6 ff ff       	callq  4025a0 <_ZNSsD1Ev@plt>
  406ec5:	eb 03                	jmp    406eca <_ZNK7Lexicon14containsPrefixESs+0x1cc>
  406ec7:	48 89 c3             	mov    %rax,%rbx
  406eca:	48 8d 45 b0          	lea    -0x50(%rbp),%rax
  406ece:	48 89 c7             	mov    %rax,%rdi
  406ed1:	e8 ca b6 ff ff       	callq  4025a0 <_ZNSsD1Ev@plt>
  406ed6:	eb 03                	jmp    406edb <_ZNK7Lexicon14containsPrefixESs+0x1dd>
  406ed8:	48 89 c3             	mov    %rax,%rbx
  406edb:	48 8d 45 e0          	lea    -0x20(%rbp),%rax
  406edf:	48 89 c7             	mov    %rax,%rdi
  406ee2:	e8 9d 08 00 00       	callq  407784 <_ZN3_fe5StateD1Ev>
  406ee7:	48 89 d8             	mov    %rbx,%rax
  406eea:	48 89 c7             	mov    %rax,%rdi
  406eed:	e8 de b9 ff ff       	callq  4028d0 <_Unwind_Resume@plt>
  406ef2:	48 83 c4 50          	add    $0x50,%rsp
  406ef6:	5b                   	pop    %rbx
  406ef7:	41 5c                	pop    %r12
  406ef9:	5d                   	pop    %rbp
  406efa:	c3                   	retq   
  406efb:	90                   	nop

0000000000406efc <_ZNK7Lexicon8containsESs>:
  406efc:	55                   	push   %rbp
  406efd:	48 89 e5             	mov    %rsp,%rbp
  406f00:	48 83 ec 20          	sub    $0x20,%rsp
  406f04:	48 89 7d e8          	mov    %rdi,-0x18(%rbp)
  406f08:	48 89 75 e0          	mov    %rsi,-0x20(%rbp)
  406f0c:	48 8b 45 e0          	mov    -0x20(%rbp),%rax
  406f10:	48 89 c7             	mov    %rax,%rdi
  406f13:	e8 f2 06 00 00       	callq  40760a <_ZL18toLowerCaseInPlaceRSs>
  406f18:	48 8b 55 e0          	mov    -0x20(%rbp),%rdx
  406f1c:	48 8b 45 e8          	mov    -0x18(%rbp),%rax
  406f20:	48 89 d6             	mov    %rdx,%rsi
  406f23:	48 89 c7             	mov    %rax,%rdi
  406f26:	e8 bb fc ff ff       	callq  406be6 <_ZNK7Lexicon15traceToLastEdgeERKSs>
  406f2b:	48 89 45 f8          	mov    %rax,-0x8(%rbp)
  406f2f:	48 83 7d f8 00       	cmpq   $0x0,-0x8(%rbp)
  406f34:	74 15                	je     406f4b <_ZNK7Lexicon8containsESs+0x4f>
  406f36:	48 8b 45 f8          	mov    -0x8(%rbp),%rax
  406f3a:	0f b6 00             	movzbl (%rax),%eax
  406f3d:	83 e0 40             	and    $0x40,%eax
  406f40:	84 c0                	test   %al,%al
  406f42:	74 07                	je     406f4b <_ZNK7Lexicon8containsESs+0x4f>
  406f44:	b8 01 00 00 00       	mov    $0x1,%eax
  406f49:	eb 17                	jmp    406f62 <_ZNK7Lexicon8containsESs+0x66>
  406f4b:	48 8b 45 e8          	mov    -0x18(%rbp),%rax
  406f4f:	48 8d 50 20          	lea    0x20(%rax),%rdx
  406f53:	48 8b 45 e0          	mov    -0x20(%rbp),%rax
  406f57:	48 89 c6             	mov    %rax,%rsi
  406f5a:	48 89 d7             	mov    %rdx,%rdi
  406f5d:	e8 80 14 00 00       	callq  4083e2 <_ZNK3SetISsE8containsERKSs>
  406f62:	c9                   	leaveq 
  406f63:	c3                   	retq   

0000000000406f64 <_ZN7Lexicon3addESs>:
  406f64:	55                   	push   %rbp
  406f65:	48 89 e5             	mov    %rsp,%rbp
  406f68:	53                   	push   %rbx
  406f69:	48 83 ec 28          	sub    $0x28,%rsp
  406f6d:	48 89 7d d8          	mov    %rdi,-0x28(%rbp)
  406f71:	48 89 75 d0          	mov    %rsi,-0x30(%rbp)
  406f75:	48 8b 45 d0          	mov    -0x30(%rbp),%rax
  406f79:	48 89 c7             	mov    %rax,%rdi
  406f7c:	e8 89 06 00 00       	callq  40760a <_ZL18toLowerCaseInPlaceRSs>
  406f81:	48 8b 55 d0          	mov    -0x30(%rbp),%rdx
  406f85:	48 8d 45 e0          	lea    -0x20(%rbp),%rax
  406f89:	48 89 d6             	mov    %rdx,%rsi
  406f8c:	48 89 c7             	mov    %rax,%rdi
  406f8f:	e8 7c b5 ff ff       	callq  402510 <_ZNSsC1ERKSs@plt>
  406f94:	48 8d 55 e0          	lea    -0x20(%rbp),%rdx
  406f98:	48 8b 45 d8          	mov    -0x28(%rbp),%rax
  406f9c:	48 89 d6             	mov    %rdx,%rsi
  406f9f:	48 89 c7             	mov    %rax,%rdi
  406fa2:	e8 55 ff ff ff       	callq  406efc <_ZNK7Lexicon8containsESs>
  406fa7:	83 f0 01             	xor    $0x1,%eax
  406faa:	89 c3                	mov    %eax,%ebx
  406fac:	48 8d 45 e0          	lea    -0x20(%rbp),%rax
  406fb0:	48 89 c7             	mov    %rax,%rdi
  406fb3:	e8 e8 b5 ff ff       	callq  4025a0 <_ZNSsD1Ev@plt>
  406fb8:	84 db                	test   %bl,%bl
  406fba:	74 33                	je     406fef <_ZN7Lexicon3addESs+0x8b>
  406fbc:	48 8b 45 d8          	mov    -0x28(%rbp),%rax
  406fc0:	48 8d 50 20          	lea    0x20(%rax),%rdx
  406fc4:	48 8b 45 d0          	mov    -0x30(%rbp),%rax
  406fc8:	48 89 c6             	mov    %rax,%rsi
  406fcb:	48 89 d7             	mov    %rdx,%rdi
  406fce:	e8 39 14 00 00       	callq  40840c <_ZN3SetISsE3addERKSs>
  406fd3:	eb 1a                	jmp    406fef <_ZN7Lexicon3addESs+0x8b>
  406fd5:	48 89 c3             	mov    %rax,%rbx
  406fd8:	48 8d 45 e0          	lea    -0x20(%rbp),%rax
  406fdc:	48 89 c7             	mov    %rax,%rdi
  406fdf:	e8 bc b5 ff ff       	callq  4025a0 <_ZNSsD1Ev@plt>
  406fe4:	48 89 d8             	mov    %rbx,%rax
  406fe7:	48 89 c7             	mov    %rax,%rdi
  406fea:	e8 e1 b8 ff ff       	callq  4028d0 <_Unwind_Resume@plt>
  406fef:	48 83 c4 28          	add    $0x28,%rsp
  406ff3:	5b                   	pop    %rbx
  406ff4:	5d                   	pop    %rbp
  406ff5:	c3                   	retq   

0000000000406ff6 <_ZN7LexiconC1ERKS_>:
  406ff6:	55                   	push   %rbp
  406ff7:	48 89 e5             	mov    %rsp,%rbp
  406ffa:	53                   	push   %rbx
  406ffb:	48 83 ec 18          	sub    $0x18,%rsp
  406fff:	48 89 7d e8          	mov    %rdi,-0x18(%rbp)
  407003:	48 89 75 e0          	mov    %rsi,-0x20(%rbp)
  407007:	48 8b 45 e8          	mov    -0x18(%rbp),%rax
  40700b:	48 c7 00 d0 c5 40 00 	movq   $0x40c5d0,(%rax)
  407012:	48 8b 45 e8          	mov    -0x18(%rbp),%rax
  407016:	48 83 c0 20          	add    $0x20,%rax
  40701a:	48 89 c7             	mov    %rax,%rdi
  40701d:	e8 94 11 00 00       	callq  4081b6 <_ZN3SetISsEC1Ev>
  407022:	48 8b 55 e0          	mov    -0x20(%rbp),%rdx
  407026:	48 8b 45 e8          	mov    -0x18(%rbp),%rax
  40702a:	48 89 d6             	mov    %rdx,%rsi
  40702d:	48 89 c7             	mov    %rax,%rdi
  407030:	e8 85 00 00 00       	callq  4070ba <_ZN7Lexicon8deepCopyERKS_>
  407035:	eb 1e                	jmp    407055 <_ZN7LexiconC1ERKS_+0x5f>
  407037:	48 89 c3             	mov    %rax,%rbx
  40703a:	48 8b 45 e8          	mov    -0x18(%rbp),%rax
  40703e:	48 83 c0 20          	add    $0x20,%rax
  407042:	48 89 c7             	mov    %rax,%rdi
  407045:	e8 96 11 00 00       	callq  4081e0 <_ZN3SetISsED1Ev>
  40704a:	48 89 d8             	mov    %rbx,%rax
  40704d:	48 89 c7             	mov    %rax,%rdi
  407050:	e8 7b b8 ff ff       	callq  4028d0 <_Unwind_Resume@plt>
  407055:	48 83 c4 18          	add    $0x18,%rsp
  407059:	5b                   	pop    %rbx
  40705a:	5d                   	pop    %rbp
  40705b:	c3                   	retq   

000000000040705c <_ZN7LexiconaSERKS_>:
  40705c:	55                   	push   %rbp
  40705d:	48 89 e5             	mov    %rsp,%rbp
  407060:	48 83 ec 10          	sub    $0x10,%rsp
  407064:	48 89 7d f8          	mov    %rdi,-0x8(%rbp)
  407068:	48 89 75 f0          	mov    %rsi,-0x10(%rbp)
  40706c:	48 8b 45 f8          	mov    -0x8(%rbp),%rax
  407070:	48 3b 45 f0          	cmp    -0x10(%rbp),%rax
  407074:	74 3d                	je     4070b3 <_ZN7LexiconaSERKS_+0x57>
  407076:	48 8b 45 f8          	mov    -0x8(%rbp),%rax
  40707a:	48 8b 40 08          	mov    0x8(%rax),%rax
  40707e:	48 85 c0             	test   %rax,%rax
  407081:	74 1d                	je     4070a0 <_ZN7LexiconaSERKS_+0x44>
  407083:	48 8b 45 f8          	mov    -0x8(%rbp),%rax
  407087:	48 8b 40 08          	mov    0x8(%rax),%rax
  40708b:	48 85 c0             	test   %rax,%rax
  40708e:	74 10                	je     4070a0 <_ZN7LexiconaSERKS_+0x44>
  407090:	48 8b 45 f8          	mov    -0x8(%rbp),%rax
  407094:	48 8b 40 08          	mov    0x8(%rax),%rax
  407098:	48 89 c7             	mov    %rax,%rdi
  40709b:	e8 e0 b6 ff ff       	callq  402780 <_ZdaPv@plt>
  4070a0:	48 8b 55 f0          	mov    -0x10(%rbp),%rdx
  4070a4:	48 8b 45 f8          	mov    -0x8(%rbp),%rax
  4070a8:	48 89 d6             	mov    %rdx,%rsi
  4070ab:	48 89 c7             	mov    %rax,%rdi
  4070ae:	e8 07 00 00 00       	callq  4070ba <_ZN7Lexicon8deepCopyERKS_>
  4070b3:	48 8b 45 f8          	mov    -0x8(%rbp),%rax
  4070b7:	c9                   	leaveq 
  4070b8:	c3                   	retq   
  4070b9:	90                   	nop

00000000004070ba <_ZN7Lexicon8deepCopyERKS_>:
  4070ba:	55                   	push   %rbp
  4070bb:	48 89 e5             	mov    %rsp,%rbp
  4070be:	48 83 ec 10          	sub    $0x10,%rsp
  4070c2:	48 89 7d f8          	mov    %rdi,-0x8(%rbp)
  4070c6:	48 89 75 f0          	mov    %rsi,-0x10(%rbp)
  4070ca:	48 8b 45 f0          	mov    -0x10(%rbp),%rax
  4070ce:	48 8b 40 08          	mov    0x8(%rax),%rax
  4070d2:	48 85 c0             	test   %rax,%rax
  4070d5:	75 1d                	jne    4070f4 <_ZN7Lexicon8deepCopyERKS_+0x3a>
  4070d7:	48 8b 45 f8          	mov    -0x8(%rbp),%rax
  4070db:	48 c7 40 08 00 00 00 	movq   $0x0,0x8(%rax)
  4070e2:	00 
  4070e3:	48 8b 45 f8          	mov    -0x8(%rbp),%rax
  4070e7:	48 c7 40 10 00 00 00 	movq   $0x0,0x10(%rax)
  4070ee:	00 
  4070ef:	e9 a5 00 00 00       	jmpq   407199 <_ZN7Lexicon8deepCopyERKS_+0xdf>
  4070f4:	48 8b 45 f0          	mov    -0x10(%rbp),%rax
  4070f8:	8b 50 18             	mov    0x18(%rax),%edx
  4070fb:	48 8b 45 f8          	mov    -0x8(%rbp),%rax
  4070ff:	89 50 18             	mov    %edx,0x18(%rax)
  407102:	48 8b 45 f0          	mov    -0x10(%rbp),%rax
  407106:	8b 40 18             	mov    0x18(%rax),%eax
  407109:	48 63 d0             	movslq %eax,%rdx
  40710c:	48 b8 00 00 00 00 00 	movabs $0x1fc0000000000000,%rax
  407113:	00 c0 1f 
  407116:	48 39 c2             	cmp    %rax,%rdx
  407119:	77 0f                	ja     40712a <_ZN7Lexicon8deepCopyERKS_+0x70>
  40711b:	48 8b 45 f0          	mov    -0x10(%rbp),%rax
  40711f:	8b 40 18             	mov    0x18(%rax),%eax
  407122:	48 98                	cltq   
  407124:	48 c1 e0 02          	shl    $0x2,%rax
  407128:	eb 07                	jmp    407131 <_ZN7Lexicon8deepCopyERKS_+0x77>
  40712a:	48 c7 c0 ff ff ff ff 	mov    $0xffffffffffffffff,%rax
  407131:	48 89 c7             	mov    %rax,%rdi
  407134:	e8 17 b3 ff ff       	callq  402450 <_Znam@plt>
  407139:	48 8b 55 f8          	mov    -0x8(%rbp),%rdx
  40713d:	48 89 42 08          	mov    %rax,0x8(%rdx)
  407141:	48 8b 45 f0          	mov    -0x10(%rbp),%rax
  407145:	8b 40 18             	mov    0x18(%rax),%eax
  407148:	48 98                	cltq   
  40714a:	48 8d 14 85 00 00 00 	lea    0x0(,%rax,4),%rdx
  407151:	00 
  407152:	48 8b 45 f0          	mov    -0x10(%rbp),%rax
  407156:	48 8b 48 08          	mov    0x8(%rax),%rcx
  40715a:	48 8b 45 f8          	mov    -0x8(%rbp),%rax
  40715e:	48 8b 40 08          	mov    0x8(%rax),%rax
  407162:	48 89 ce             	mov    %rcx,%rsi
  407165:	48 89 c7             	mov    %rax,%rdi
  407168:	e8 83 b7 ff ff       	callq  4028f0 <memcpy@plt>
  40716d:	48 8b 45 f8          	mov    -0x8(%rbp),%rax
  407171:	48 8b 50 08          	mov    0x8(%rax),%rdx
  407175:	48 8b 45 f0          	mov    -0x10(%rbp),%rax
  407179:	48 8b 40 10          	mov    0x10(%rax),%rax
  40717d:	48 89 c1             	mov    %rax,%rcx
  407180:	48 8b 45 f0          	mov    -0x10(%rbp),%rax
  407184:	48 8b 40 08          	mov    0x8(%rax),%rax
  407188:	48 29 c1             	sub    %rax,%rcx
  40718b:	48 89 c8             	mov    %rcx,%rax
  40718e:	48 01 c2             	add    %rax,%rdx
  407191:	48 8b 45 f8          	mov    -0x8(%rbp),%rax
  407195:	48 89 50 10          	mov    %rdx,0x10(%rax)
  407199:	48 8b 45 f0          	mov    -0x10(%rbp),%rax
  40719d:	8b 50 1c             	mov    0x1c(%rax),%edx
  4071a0:	48 8b 45 f8          	mov    -0x8(%rbp),%rax
  4071a4:	89 50 1c             	mov    %edx,0x1c(%rax)
  4071a7:	48 8b 45 f0          	mov    -0x10(%rbp),%rax
  4071ab:	48 8d 50 20          	lea    0x20(%rax),%rdx
  4071af:	48 8b 45 f8          	mov    -0x8(%rbp),%rax
  4071b3:	48 83 c0 20          	add    $0x20,%rax
  4071b7:	48 89 d6             	mov    %rdx,%rsi
  4071ba:	48 89 c7             	mov    %rax,%rdi
  4071bd:	e8 d0 0c 00 00       	callq  407e92 <_ZN3SetISsEaSERKS0_>
  4071c2:	c9                   	leaveq 
  4071c3:	c3                   	retq   

00000000004071c4 <_ZNK7Lexicon6mapAllEPFvSsE>:
  4071c4:	55                   	push   %rbp
  4071c5:	48 89 e5             	mov    %rsp,%rbp
  4071c8:	53                   	push   %rbx
  4071c9:	48 83 ec 48          	sub    $0x48,%rsp
  4071cd:	48 89 7d b8          	mov    %rdi,-0x48(%rbp)
  4071d1:	48 89 75 b0          	mov    %rsi,-0x50(%rbp)
  4071d5:	48 8d 45 e0          	lea    -0x20(%rbp),%rax
  4071d9:	48 89 c7             	mov    %rax,%rdi
  4071dc:	e8 83 05 00 00       	callq  407764 <_ZN3_fe5StateC1Ev>
  4071e1:	e9 88 00 00 00       	jmpq   40726e <_ZNK7Lexicon6mapAllEPFvSsE+0xaa>
  4071e6:	8b 45 e0             	mov    -0x20(%rbp),%eax
  4071e9:	85 c0                	test   %eax,%eax
  4071eb:	75 15                	jne    407202 <_ZNK7Lexicon6mapAllEPFvSsE+0x3e>
  4071ed:	48 8b 55 b8          	mov    -0x48(%rbp),%rdx
  4071f1:	48 8d 45 e0          	lea    -0x20(%rbp),%rax
  4071f5:	48 89 d6             	mov    %rdx,%rsi
  4071f8:	48 89 c7             	mov    %rax,%rdi
  4071fb:	e8 7d 12 00 00       	callq  40847d <_ZN3_fe4InitI7LexiconEEPNS_6CRangeIT_EERNS_5StateERKS3_>
  407200:	eb 05                	jmp    407207 <_ZNK7Lexicon6mapAllEPFvSsE+0x43>
  407202:	b8 00 00 00 00       	mov    $0x0,%eax
  407207:	48 8d 4d c0          	lea    -0x40(%rbp),%rcx
  40720b:	48 8d 75 e0          	lea    -0x20(%rbp),%rsi
  40720f:	48 89 c2             	mov    %rax,%rdx
  407212:	48 89 cf             	mov    %rcx,%rdi
  407215:	e8 c3 12 00 00       	callq  4084dd <_ZN3_fe4HookI7LexiconEENSt15iterator_traitsINT_8iteratorEE10value_typeERNS_5StateEPNS_6CRangeIS3_EE>
  40721a:	eb 33                	jmp    40724f <_ZNK7Lexicon6mapAllEPFvSsE+0x8b>
  40721c:	48 8d 55 c0          	lea    -0x40(%rbp),%rdx
  407220:	48 8d 45 d0          	lea    -0x30(%rbp),%rax
  407224:	48 89 d6             	mov    %rdx,%rsi
  407227:	48 89 c7             	mov    %rax,%rdi
  40722a:	e8 e1 b2 ff ff       	callq  402510 <_ZNSsC1ERKSs@plt>
  40722f:	48 8d 55 d0          	lea    -0x30(%rbp),%rdx
  407233:	48 8b 45 b0          	mov    -0x50(%rbp),%rax
  407237:	48 89 d7             	mov    %rdx,%rdi
  40723a:	ff d0                	callq  *%rax
  40723c:	48 8d 45 d0          	lea    -0x30(%rbp),%rax
  407240:	48 89 c7             	mov    %rax,%rdi
  407243:	e8 58 b3 ff ff       	callq  4025a0 <_ZNSsD1Ev@plt>
  407248:	c7 45 e0 00 00 00 00 	movl   $0x0,-0x20(%rbp)
  40724f:	8b 45 e0             	mov    -0x20(%rbp),%eax
  407252:	8d 50 01             	lea    0x1(%rax),%edx
  407255:	89 55 e0             	mov    %edx,-0x20(%rbp)
  407258:	83 f8 01             	cmp    $0x1,%eax
  40725b:	0f 94 c0             	sete   %al
  40725e:	84 c0                	test   %al,%al
  407260:	75 ba                	jne    40721c <_ZNK7Lexicon6mapAllEPFvSsE+0x58>
  407262:	48 8d 45 c0          	lea    -0x40(%rbp),%rax
  407266:	48 89 c7             	mov    %rax,%rdi
  407269:	e8 32 b3 ff ff       	callq  4025a0 <_ZNSsD1Ev@plt>
  40726e:	8b 45 e0             	mov    -0x20(%rbp),%eax
  407271:	83 f8 01             	cmp    $0x1,%eax
  407274:	0f 8e 6c ff ff ff    	jle    4071e6 <_ZNK7Lexicon6mapAllEPFvSsE+0x22>
  40727a:	48 8d 45 e0          	lea    -0x20(%rbp),%rax
  40727e:	48 89 c7             	mov    %rax,%rdi
  407281:	e8 fe 04 00 00       	callq  407784 <_ZN3_fe5StateD1Ev>
  407286:	eb 3c                	jmp    4072c4 <_ZNK7Lexicon6mapAllEPFvSsE+0x100>
  407288:	48 89 c3             	mov    %rax,%rbx
  40728b:	48 8d 45 d0          	lea    -0x30(%rbp),%rax
  40728f:	48 89 c7             	mov    %rax,%rdi
  407292:	e8 09 b3 ff ff       	callq  4025a0 <_ZNSsD1Ev@plt>
  407297:	eb 03                	jmp    40729c <_ZNK7Lexicon6mapAllEPFvSsE+0xd8>
  407299:	48 89 c3             	mov    %rax,%rbx
  40729c:	48 8d 45 c0          	lea    -0x40(%rbp),%rax
  4072a0:	48 89 c7             	mov    %rax,%rdi
  4072a3:	e8 f8 b2 ff ff       	callq  4025a0 <_ZNSsD1Ev@plt>
  4072a8:	eb 03                	jmp    4072ad <_ZNK7Lexicon6mapAllEPFvSsE+0xe9>
  4072aa:	48 89 c3             	mov    %rax,%rbx
  4072ad:	48 8d 45 e0          	lea    -0x20(%rbp),%rax
  4072b1:	48 89 c7             	mov    %rax,%rdi
  4072b4:	e8 cb 04 00 00       	callq  407784 <_ZN3_fe5StateD1Ev>
  4072b9:	48 89 d8             	mov    %rbx,%rax
  4072bc:	48 89 c7             	mov    %rax,%rdi
  4072bf:	e8 0c b6 ff ff       	callq  4028d0 <_Unwind_Resume@plt>
  4072c4:	48 83 c4 48          	add    $0x48,%rsp
  4072c8:	5b                   	pop    %rbx
  4072c9:	5d                   	pop    %rbp
  4072ca:	c3                   	retq   
  4072cb:	90                   	nop

00000000004072cc <_ZNK7Lexicon6mapAllEPFvRKSsE>:
  4072cc:	55                   	push   %rbp
  4072cd:	48 89 e5             	mov    %rsp,%rbp
  4072d0:	53                   	push   %rbx
  4072d1:	48 83 ec 38          	sub    $0x38,%rsp
  4072d5:	48 89 7d c8          	mov    %rdi,-0x38(%rbp)
  4072d9:	48 89 75 c0          	mov    %rsi,-0x40(%rbp)
  4072dd:	48 8d 45 e0          	lea    -0x20(%rbp),%rax
  4072e1:	48 89 c7             	mov    %rax,%rdi
  4072e4:	e8 7b 04 00 00       	callq  407764 <_ZN3_fe5StateC1Ev>
  4072e9:	eb 69                	jmp    407354 <_ZNK7Lexicon6mapAllEPFvRKSsE+0x88>
  4072eb:	8b 45 e0             	mov    -0x20(%rbp),%eax
  4072ee:	85 c0                	test   %eax,%eax
  4072f0:	75 15                	jne    407307 <_ZNK7Lexicon6mapAllEPFvRKSsE+0x3b>
  4072f2:	48 8b 55 c8          	mov    -0x38(%rbp),%rdx
  4072f6:	48 8d 45 e0          	lea    -0x20(%rbp),%rax
  4072fa:	48 89 d6             	mov    %rdx,%rsi
  4072fd:	48 89 c7             	mov    %rax,%rdi
  407300:	e8 78 11 00 00       	callq  40847d <_ZN3_fe4InitI7LexiconEEPNS_6CRangeIT_EERNS_5StateERKS3_>
  407305:	eb 05                	jmp    40730c <_ZNK7Lexicon6mapAllEPFvRKSsE+0x40>
  407307:	b8 00 00 00 00       	mov    $0x0,%eax
  40730c:	48 8d 4d d0          	lea    -0x30(%rbp),%rcx
  407310:	48 8d 75 e0          	lea    -0x20(%rbp),%rsi
  407314:	48 89 c2             	mov    %rax,%rdx
  407317:	48 89 cf             	mov    %rcx,%rdi
  40731a:	e8 be 11 00 00       	callq  4084dd <_ZN3_fe4HookI7LexiconEENSt15iterator_traitsINT_8iteratorEE10value_typeERNS_5StateEPNS_6CRangeIS3_EE>
  40731f:	eb 14                	jmp    407335 <_ZNK7Lexicon6mapAllEPFvRKSsE+0x69>
  407321:	48 8d 55 d0          	lea    -0x30(%rbp),%rdx
  407325:	48 8b 45 c0          	mov    -0x40(%rbp),%rax
  407329:	48 89 d7             	mov    %rdx,%rdi
  40732c:	ff d0                	callq  *%rax
  40732e:	c7 45 e0 00 00 00 00 	movl   $0x0,-0x20(%rbp)
  407335:	8b 45 e0             	mov    -0x20(%rbp),%eax
  407338:	8d 50 01             	lea    0x1(%rax),%edx
  40733b:	89 55 e0             	mov    %edx,-0x20(%rbp)
  40733e:	83 f8 01             	cmp    $0x1,%eax
  407341:	0f 94 c0             	sete   %al
  407344:	84 c0                	test   %al,%al
  407346:	75 d9                	jne    407321 <_ZNK7Lexicon6mapAllEPFvRKSsE+0x55>
  407348:	48 8d 45 d0          	lea    -0x30(%rbp),%rax
  40734c:	48 89 c7             	mov    %rax,%rdi
  40734f:	e8 4c b2 ff ff       	callq  4025a0 <_ZNSsD1Ev@plt>
  407354:	8b 45 e0             	mov    -0x20(%rbp),%eax
  407357:	83 f8 01             	cmp    $0x1,%eax
  40735a:	7e 8f                	jle    4072eb <_ZNK7Lexicon6mapAllEPFvRKSsE+0x1f>
  40735c:	48 8d 45 e0          	lea    -0x20(%rbp),%rax
  407360:	48 89 c7             	mov    %rax,%rdi
  407363:	e8 1c 04 00 00       	callq  407784 <_ZN3_fe5StateD1Ev>
  407368:	eb 2b                	jmp    407395 <_ZNK7Lexicon6mapAllEPFvRKSsE+0xc9>
  40736a:	48 89 c3             	mov    %rax,%rbx
  40736d:	48 8d 45 d0          	lea    -0x30(%rbp),%rax
  407371:	48 89 c7             	mov    %rax,%rdi
  407374:	e8 27 b2 ff ff       	callq  4025a0 <_ZNSsD1Ev@plt>
  407379:	eb 03                	jmp    40737e <_ZNK7Lexicon6mapAllEPFvRKSsE+0xb2>
  40737b:	48 89 c3             	mov    %rax,%rbx
  40737e:	48 8d 45 e0          	lea    -0x20(%rbp),%rax
  407382:	48 89 c7             	mov    %rax,%rdi
  407385:	e8 fa 03 00 00       	callq  407784 <_ZN3_fe5StateD1Ev>
  40738a:	48 89 d8             	mov    %rbx,%rax
  40738d:	48 89 c7             	mov    %rax,%rdi
  407390:	e8 3b b5 ff ff       	callq  4028d0 <_Unwind_Resume@plt>
  407395:	48 83 c4 38          	add    $0x38,%rsp
  407399:	5b                   	pop    %rbx
  40739a:	5d                   	pop    %rbp
  40739b:	c3                   	retq   

000000000040739c <_ZN7Lexicon8iterator22advanceToNextWordInSetEv>:
  40739c:	55                   	push   %rbp
  40739d:	48 89 e5             	mov    %rsp,%rbp
  4073a0:	53                   	push   %rbx
  4073a1:	48 83 ec 28          	sub    $0x28,%rsp
  4073a5:	48 89 7d d8          	mov    %rdi,-0x28(%rbp)
  4073a9:	48 8b 45 d8          	mov    -0x28(%rbp),%rax
  4073ad:	48 8d 90 88 00 00 00 	lea    0x88(%rax),%rdx
  4073b4:	48 8b 45 d8          	mov    -0x28(%rbp),%rax
  4073b8:	48 83 c0 50          	add    $0x50,%rax
  4073bc:	48 89 d6             	mov    %rdx,%rsi
  4073bf:	48 89 c7             	mov    %rax,%rdi
  4073c2:	e8 43 11 00 00       	callq  40850a <_ZN3SetISsE8iteratoreqERKS1_>
  4073c7:	84 c0                	test   %al,%al
  4073c9:	74 17                	je     4073e2 <_ZN7Lexicon8iterator22advanceToNextWordInSetEv+0x46>
  4073cb:	48 8b 45 d8          	mov    -0x28(%rbp),%rax
  4073cf:	48 83 c0 18          	add    $0x18,%rax
  4073d3:	be c0 c3 40 00       	mov    $0x40c3c0,%esi
  4073d8:	48 89 c7             	mov    %rax,%rdi
  4073db:	e8 b0 af ff ff       	callq  402390 <_ZNSsaSEPKc@plt>
  4073e0:	eb 66                	jmp    407448 <_ZN7Lexicon8iterator22advanceToNextWordInSetEv+0xac>
  4073e2:	48 8b 45 d8          	mov    -0x28(%rbp),%rax
  4073e6:	48 8d 50 50          	lea    0x50(%rax),%rdx
  4073ea:	48 8d 45 e0          	lea    -0x20(%rbp),%rax
  4073ee:	48 89 d6             	mov    %rdx,%rsi
  4073f1:	48 89 c7             	mov    %rax,%rdi
  4073f4:	e8 3f 11 00 00       	callq  408538 <_ZN3SetISsE8iteratordeEv>
  4073f9:	48 8b 45 d8          	mov    -0x28(%rbp),%rax
  4073fd:	48 8d 50 18          	lea    0x18(%rax),%rdx
  407401:	48 8d 45 e0          	lea    -0x20(%rbp),%rax
  407405:	48 89 c6             	mov    %rax,%rsi
  407408:	48 89 d7             	mov    %rdx,%rdi
  40740b:	e8 d0 b4 ff ff       	callq  4028e0 <_ZNSsaSERKSs@plt>
  407410:	48 8d 45 e0          	lea    -0x20(%rbp),%rax
  407414:	48 89 c7             	mov    %rax,%rdi
  407417:	e8 84 b1 ff ff       	callq  4025a0 <_ZNSsD1Ev@plt>
  40741c:	48 8b 45 d8          	mov    -0x28(%rbp),%rax
  407420:	48 83 c0 50          	add    $0x50,%rax
  407424:	48 89 c7             	mov    %rax,%rdi
  407427:	e8 3a 11 00 00       	callq  408566 <_ZN3SetISsE8iteratorppEv>
  40742c:	eb 1a                	jmp    407448 <_ZN7Lexicon8iterator22advanceToNextWordInSetEv+0xac>
  40742e:	48 89 c3             	mov    %rax,%rbx
  407431:	48 8d 45 e0          	lea    -0x20(%rbp),%rax
  407435:	48 89 c7             	mov    %rax,%rdi
  407438:	e8 63 b1 ff ff       	callq  4025a0 <_ZNSsD1Ev@plt>
  40743d:	48 89 d8             	mov    %rbx,%rax
  407440:	48 89 c7             	mov    %rax,%rdi
  407443:	e8 88 b4 ff ff       	callq  4028d0 <_Unwind_Resume@plt>
  407448:	48 83 c4 28          	add    $0x28,%rsp
  40744c:	5b                   	pop    %rbx
  40744d:	5d                   	pop    %rbp
  40744e:	c3                   	retq   
  40744f:	90                   	nop

0000000000407450 <_ZN7Lexicon8iterator23advanceToNextWordInDawgEv>:
  407450:	55                   	push   %rbp
  407451:	48 89 e5             	mov    %rsp,%rbp
  407454:	48 83 ec 10          	sub    $0x10,%rsp
  407458:	48 89 7d f8          	mov    %rdi,-0x8(%rbp)
  40745c:	48 8b 45 f8          	mov    -0x8(%rbp),%rax
  407460:	48 8b 40 28          	mov    0x28(%rax),%rax
  407464:	48 85 c0             	test   %rax,%rax
  407467:	75 15                	jne    40747e <_ZN7Lexicon8iterator23advanceToNextWordInDawgEv+0x2e>
  407469:	48 8b 45 f8          	mov    -0x8(%rbp),%rax
  40746d:	48 8b 00             	mov    (%rax),%rax
  407470:	48 8b 50 10          	mov    0x10(%rax),%rdx
  407474:	48 8b 45 f8          	mov    -0x8(%rbp),%rax
  407478:	48 89 50 28          	mov    %rdx,0x28(%rax)
  40747c:	eb 1a                	jmp    407498 <_ZN7Lexicon8iterator23advanceToNextWordInDawgEv+0x48>
  40747e:	48 8b 45 f8          	mov    -0x8(%rbp),%rax
  407482:	48 89 c7             	mov    %rax,%rdi
  407485:	e8 30 00 00 00       	callq  4074ba <_ZN7Lexicon8iterator17advanceToNextEdgeEv>
  40748a:	eb 0c                	jmp    407498 <_ZN7Lexicon8iterator23advanceToNextWordInDawgEv+0x48>
  40748c:	48 8b 45 f8          	mov    -0x8(%rbp),%rax
  407490:	48 89 c7             	mov    %rax,%rdi
  407493:	e8 22 00 00 00       	callq  4074ba <_ZN7Lexicon8iterator17advanceToNextEdgeEv>
  407498:	48 8b 45 f8          	mov    -0x8(%rbp),%rax
  40749c:	48 8b 40 28          	mov    0x28(%rax),%rax
  4074a0:	48 85 c0             	test   %rax,%rax
  4074a3:	74 12                	je     4074b7 <_ZN7Lexicon8iterator23advanceToNextWordInDawgEv+0x67>
  4074a5:	48 8b 45 f8          	mov    -0x8(%rbp),%rax
  4074a9:	48 8b 40 28          	mov    0x28(%rax),%rax
  4074ad:	0f b6 00             	movzbl (%rax),%eax
  4074b0:	83 e0 40             	and    $0x40,%eax
  4074b3:	84 c0                	test   %al,%al
  4074b5:	74 d5                	je     40748c <_ZN7Lexicon8iterator23advanceToNextWordInDawgEv+0x3c>
  4074b7:	c9                   	leaveq 
  4074b8:	c3                   	retq   
  4074b9:	90                   	nop

00000000004074ba <_ZN7Lexicon8iterator17advanceToNextEdgeEv>:
  4074ba:	55                   	push   %rbp
  4074bb:	48 89 e5             	mov    %rsp,%rbp
  4074be:	48 83 ec 20          	sub    $0x20,%rsp
  4074c2:	48 89 7d e8          	mov    %rdi,-0x18(%rbp)
  4074c6:	48 8b 45 e8          	mov    -0x18(%rbp),%rax
  4074ca:	48 8b 40 28          	mov    0x28(%rax),%rax
  4074ce:	48 89 45 f8          	mov    %rax,-0x8(%rbp)
  4074d2:	48 8b 45 f8          	mov    -0x8(%rbp),%rax
  4074d6:	0f b6 50 01          	movzbl 0x1(%rax),%edx
  4074da:	0f b6 48 02          	movzbl 0x2(%rax),%ecx
  4074de:	48 c1 e1 08          	shl    $0x8,%rcx
  4074e2:	48 09 ca             	or     %rcx,%rdx
  4074e5:	0f b6 40 03          	movzbl 0x3(%rax),%eax
  4074e9:	48 c1 e0 10          	shl    $0x10,%rax
  4074ed:	48 09 d0             	or     %rdx,%rax
  4074f0:	85 c0                	test   %eax,%eax
  4074f2:	0f 85 8c 00 00 00    	jne    407584 <_ZN7Lexicon8iterator17advanceToNextEdgeEv+0xca>
  4074f8:	eb 60                	jmp    40755a <_ZN7Lexicon8iterator17advanceToNextEdgeEv+0xa0>
  4074fa:	48 8b 45 e8          	mov    -0x18(%rbp),%rax
  4074fe:	48 83 c0 30          	add    $0x30,%rax
  407502:	48 89 c7             	mov    %rax,%rdi
  407505:	e8 7e 10 00 00       	callq  408588 <_ZNK5StackIPN7Lexicon4EdgeEE7isEmptyEv>
  40750a:	84 c0                	test   %al,%al
  40750c:	74 11                	je     40751f <_ZN7Lexicon8iterator17advanceToNextEdgeEv+0x65>
  40750e:	48 8b 45 e8          	mov    -0x18(%rbp),%rax
  407512:	48 c7 40 28 00 00 00 	movq   $0x0,0x28(%rax)
  407519:	00 
  40751a:	e9 e9 00 00 00       	jmpq   407608 <_ZN7Lexicon8iterator17advanceToNextEdgeEv+0x14e>
  40751f:	48 8b 45 e8          	mov    -0x18(%rbp),%rax
  407523:	48 83 c0 30          	add    $0x30,%rax
  407527:	48 89 c7             	mov    %rax,%rdi
  40752a:	e8 79 10 00 00       	callq  4085a8 <_ZN5StackIPN7Lexicon4EdgeEE3popEv>
  40752f:	48 89 45 f8          	mov    %rax,-0x8(%rbp)
  407533:	48 8b 45 e8          	mov    -0x18(%rbp),%rax
  407537:	48 83 c0 10          	add    $0x10,%rax
  40753b:	48 89 c7             	mov    %rax,%rdi
  40753e:	e8 2d b0 ff ff       	callq  402570 <_ZNKSs6lengthEv@plt>
  407543:	48 8d 50 ff          	lea    -0x1(%rax),%rdx
  407547:	48 8b 45 e8          	mov    -0x18(%rbp),%rax
  40754b:	48 83 c0 10          	add    $0x10,%rax
  40754f:	48 89 d6             	mov    %rdx,%rsi
  407552:	48 89 c7             	mov    %rax,%rdi
  407555:	e8 56 b3 ff ff       	callq  4028b0 <_ZNSs6resizeEm@plt>
  40755a:	48 83 7d f8 00       	cmpq   $0x0,-0x8(%rbp)
  40755f:	74 0e                	je     40756f <_ZN7Lexicon8iterator17advanceToNextEdgeEv+0xb5>
  407561:	48 8b 45 f8          	mov    -0x8(%rbp),%rax
  407565:	0f b6 00             	movzbl (%rax),%eax
  407568:	83 e0 20             	and    $0x20,%eax
  40756b:	84 c0                	test   %al,%al
  40756d:	75 8b                	jne    4074fa <_ZN7Lexicon8iterator17advanceToNextEdgeEv+0x40>
  40756f:	48 8b 45 f8          	mov    -0x8(%rbp),%rax
  407573:	48 8d 50 04          	lea    0x4(%rax),%rdx
  407577:	48 8b 45 e8          	mov    -0x18(%rbp),%rax
  40757b:	48 89 50 28          	mov    %rdx,0x28(%rax)
  40757f:	e9 84 00 00 00       	jmpq   407608 <_ZN7Lexicon8iterator17advanceToNextEdgeEv+0x14e>
  407584:	48 8b 45 e8          	mov    -0x18(%rbp),%rax
  407588:	48 8d 50 30          	lea    0x30(%rax),%rdx
  40758c:	48 8b 45 f8          	mov    -0x8(%rbp),%rax
  407590:	48 89 c6             	mov    %rax,%rsi
  407593:	48 89 d7             	mov    %rdx,%rdi
  407596:	e8 f9 10 00 00       	callq  408694 <_ZN5StackIPN7Lexicon4EdgeEE4pushES2_>
  40759b:	48 8b 45 f8          	mov    -0x8(%rbp),%rax
  40759f:	0f b6 00             	movzbl (%rax),%eax
  4075a2:	83 e0 1f             	and    $0x1f,%eax
  4075a5:	0f b6 d0             	movzbl %al,%edx
  4075a8:	48 8b 45 e8          	mov    -0x18(%rbp),%rax
  4075ac:	48 8b 00             	mov    (%rax),%rax
  4075af:	89 d6                	mov    %edx,%esi
  4075b1:	48 89 c7             	mov    %rax,%rdi
  4075b4:	e8 c5 08 00 00       	callq  407e7e <_ZNK7Lexicon9ordToCharEj>
  4075b9:	0f be c0             	movsbl %al,%eax
  4075bc:	48 8b 55 e8          	mov    -0x18(%rbp),%rdx
  4075c0:	48 83 c2 10          	add    $0x10,%rdx
  4075c4:	89 c6                	mov    %eax,%esi
  4075c6:	48 89 d7             	mov    %rdx,%rdi
  4075c9:	e8 92 b2 ff ff       	callq  402860 <_ZNSs9push_backEc@plt>
  4075ce:	48 8b 45 e8          	mov    -0x18(%rbp),%rax
  4075d2:	48 8b 00             	mov    (%rax),%rax
  4075d5:	48 8b 50 08          	mov    0x8(%rax),%rdx
  4075d9:	48 8b 45 f8          	mov    -0x8(%rbp),%rax
  4075dd:	0f b6 48 01          	movzbl 0x1(%rax),%ecx
  4075e1:	0f b6 70 02          	movzbl 0x2(%rax),%esi
  4075e5:	48 c1 e6 08          	shl    $0x8,%rsi
  4075e9:	48 09 f1             	or     %rsi,%rcx
  4075ec:	0f b6 40 03          	movzbl 0x3(%rax),%eax
  4075f0:	48 c1 e0 10          	shl    $0x10,%rax
  4075f4:	48 09 c8             	or     %rcx,%rax
  4075f7:	89 c0                	mov    %eax,%eax
  4075f9:	48 c1 e0 02          	shl    $0x2,%rax
  4075fd:	48 01 c2             	add    %rax,%rdx
  407600:	48 8b 45 e8          	mov    -0x18(%rbp),%rax
  407604:	48 89 50 28          	mov    %rdx,0x28(%rax)
  407608:	c9                   	leaveq 
  407609:	c3                   	retq   

000000000040760a <_ZL18toLowerCaseInPlaceRSs>:
  40760a:	55                   	push   %rbp
  40760b:	48 89 e5             	mov    %rsp,%rbp
  40760e:	53                   	push   %rbx
  40760f:	48 83 ec 28          	sub    $0x28,%rsp
  407613:	48 89 7d d8          	mov    %rdi,-0x28(%rbp)
  407617:	48 8b 45 d8          	mov    -0x28(%rbp),%rax
  40761b:	48 89 c7             	mov    %rax,%rdi
  40761e:	e8 4d af ff ff       	callq  402570 <_ZNKSs6lengthEv@plt>
  407623:	89 45 ec             	mov    %eax,-0x14(%rbp)
  407626:	c7 45 e8 00 00 00 00 	movl   $0x0,-0x18(%rbp)
  40762d:	eb 40                	jmp    40766f <_ZL18toLowerCaseInPlaceRSs+0x65>
  40762f:	8b 45 e8             	mov    -0x18(%rbp),%eax
  407632:	48 63 d0             	movslq %eax,%rdx
  407635:	48 8b 45 d8          	mov    -0x28(%rbp),%rax
  407639:	48 89 d6             	mov    %rdx,%rsi
  40763c:	48 89 c7             	mov    %rax,%rdi
  40763f:	e8 0c b0 ff ff       	callq  402650 <_ZNSsixEm@plt>
  407644:	48 89 c3             	mov    %rax,%rbx
  407647:	8b 45 e8             	mov    -0x18(%rbp),%eax
  40764a:	48 63 d0             	movslq %eax,%rdx
  40764d:	48 8b 45 d8          	mov    -0x28(%rbp),%rax
  407651:	48 89 d6             	mov    %rdx,%rsi
  407654:	48 89 c7             	mov    %rax,%rdi
  407657:	e8 f4 af ff ff       	callq  402650 <_ZNSsixEm@plt>
  40765c:	0f b6 00             	movzbl (%rax),%eax
  40765f:	0f be c0             	movsbl %al,%eax
  407662:	89 c7                	mov    %eax,%edi
  407664:	e8 97 b0 ff ff       	callq  402700 <tolower@plt>
  407669:	88 03                	mov    %al,(%rbx)
  40766b:	83 45 e8 01          	addl   $0x1,-0x18(%rbp)
  40766f:	8b 45 e8             	mov    -0x18(%rbp),%eax
  407672:	3b 45 ec             	cmp    -0x14(%rbp),%eax
  407675:	7c b8                	jl     40762f <_ZL18toLowerCaseInPlaceRSs+0x25>
  407677:	48 83 c4 28          	add    $0x28,%rsp
  40767b:	5b                   	pop    %rbx
  40767c:	5d                   	pop    %rbp
  40767d:	c3                   	retq   

000000000040767e <_Z41__static_initialization_and_destruction_0ii>:
  40767e:	55                   	push   %rbp
  40767f:	48 89 e5             	mov    %rsp,%rbp
  407682:	48 83 ec 10          	sub    $0x10,%rsp
  407686:	89 7d fc             	mov    %edi,-0x4(%rbp)
  407689:	89 75 f8             	mov    %esi,-0x8(%rbp)
  40768c:	83 7d fc 01          	cmpl   $0x1,-0x4(%rbp)
  407690:	75 27                	jne    4076b9 <_Z41__static_initialization_and_destruction_0ii+0x3b>
  407692:	81 7d f8 ff ff 00 00 	cmpl   $0xffff,-0x8(%rbp)
  407699:	75 1e                	jne    4076b9 <_Z41__static_initialization_and_destruction_0ii+0x3b>
  40769b:	bf e1 26 61 00       	mov    $0x6126e1,%edi
  4076a0:	e8 0b ae ff ff       	callq  4024b0 <_ZNSt8ios_base4InitC1Ev@plt>
  4076a5:	ba 30 23 61 00       	mov    $0x612330,%edx
  4076aa:	be e1 26 61 00       	mov    $0x6126e1,%esi
  4076af:	bf 80 25 40 00       	mov    $0x402580,%edi
  4076b4:	e8 77 ae ff ff       	callq  402530 <__cxa_atexit@plt>
  4076b9:	c9                   	leaveq 
  4076ba:	c3                   	retq   

00000000004076bb <_GLOBAL__sub_I__ZN7LexiconC2Ev>:
  4076bb:	55                   	push   %rbp
  4076bc:	48 89 e5             	mov    %rsp,%rbp
  4076bf:	be ff ff 00 00       	mov    $0xffff,%esi
  4076c4:	bf 01 00 00 00       	mov    $0x1,%edi
  4076c9:	e8 b0 ff ff ff       	callq  40767e <_Z41__static_initialization_and_destruction_0ii>
  4076ce:	5d                   	pop    %rbp
  4076cf:	c3                   	retq   

00000000004076d0 <_ZNSt11char_traitsIcE6lengthEPKc>:
  4076d0:	55                   	push   %rbp
  4076d1:	48 89 e5             	mov    %rsp,%rbp
  4076d4:	48 89 7d f8          	mov    %rdi,-0x8(%rbp)
  4076d8:	48 8b 45 f8          	mov    -0x8(%rbp),%rax
  4076dc:	48 c7 c1 ff ff ff ff 	mov    $0xffffffffffffffff,%rcx
  4076e3:	48 89 c2             	mov    %rax,%rdx
  4076e6:	b8 00 00 00 00       	mov    $0x0,%eax
  4076eb:	48 89 d7             	mov    %rdx,%rdi
  4076ee:	f2 ae                	repnz scas %es:(%rdi),%al
  4076f0:	48 89 c8             	mov    %rcx,%rax
  4076f3:	48 f7 d0             	not    %rax
  4076f6:	48 83 e8 01          	sub    $0x1,%rax
  4076fa:	5d                   	pop    %rbp
  4076fb:	c3                   	retq   

00000000004076fc <_ZStorSt13_Ios_OpenmodeS_>:
  4076fc:	55                   	push   %rbp
  4076fd:	48 89 e5             	mov    %rsp,%rbp
  407700:	89 7d fc             	mov    %edi,-0x4(%rbp)
  407703:	89 75 f8             	mov    %esi,-0x8(%rbp)
  407706:	8b 55 fc             	mov    -0x4(%rbp),%edx
  407709:	8b 45 f8             	mov    -0x8(%rbp),%eax
  40770c:	09 d0                	or     %edx,%eax
  40770e:	5d                   	pop    %rbp
  40770f:	c3                   	retq   

0000000000407710 <_ZN3_fe5RangeD1Ev>:
  407710:	55                   	push   %rbp
  407711:	48 89 e5             	mov    %rsp,%rbp
  407714:	48 83 ec 10          	sub    $0x10,%rsp
  407718:	48 89 7d f8          	mov    %rdi,-0x8(%rbp)
  40771c:	48 8b 45 f8          	mov    -0x8(%rbp),%rax
  407720:	48 c7 00 d0 c6 40 00 	movq   $0x40c6d0,(%rax)
  407727:	b8 00 00 00 00       	mov    $0x0,%eax
  40772c:	85 c0                	test   %eax,%eax
  40772e:	74 0c                	je     40773c <_ZN3_fe5RangeD1Ev+0x2c>
  407730:	48 8b 45 f8          	mov    -0x8(%rbp),%rax
  407734:	48 89 c7             	mov    %rax,%rdi
  407737:	e8 24 ad ff ff       	callq  402460 <_ZdlPv@plt>
  40773c:	c9                   	leaveq 
  40773d:	c3                   	retq   

000000000040773e <_ZN3_fe5RangeD0Ev>:
  40773e:	55                   	push   %rbp
  40773f:	48 89 e5             	mov    %rsp,%rbp
  407742:	48 83 ec 10          	sub    $0x10,%rsp
  407746:	48 89 7d f8          	mov    %rdi,-0x8(%rbp)
  40774a:	48 8b 45 f8          	mov    -0x8(%rbp),%rax
  40774e:	48 89 c7             	mov    %rax,%rdi
  407751:	e8 ba ff ff ff       	callq  407710 <_ZN3_fe5RangeD1Ev>
  407756:	48 8b 45 f8          	mov    -0x8(%rbp),%rax
  40775a:	48 89 c7             	mov    %rax,%rdi
  40775d:	e8 fe ac ff ff       	callq  402460 <_ZdlPv@plt>
  407762:	c9                   	leaveq 
  407763:	c3                   	retq   

0000000000407764 <_ZN3_fe5StateC1Ev>:
  407764:	55                   	push   %rbp
  407765:	48 89 e5             	mov    %rsp,%rbp
  407768:	48 89 7d f8          	mov    %rdi,-0x8(%rbp)
  40776c:	48 8b 45 f8          	mov    -0x8(%rbp),%rax
  407770:	c7 00 00 00 00 00    	movl   $0x0,(%rax)
  407776:	48 8b 45 f8          	mov    -0x8(%rbp),%rax
  40777a:	48 c7 40 08 00 00 00 	movq   $0x0,0x8(%rax)
  407781:	00 
  407782:	5d                   	pop    %rbp
  407783:	c3                   	retq   

0000000000407784 <_ZN3_fe5StateD1Ev>:
  407784:	55                   	push   %rbp
  407785:	48 89 e5             	mov    %rsp,%rbp
  407788:	48 83 ec 10          	sub    $0x10,%rsp
  40778c:	48 89 7d f8          	mov    %rdi,-0x8(%rbp)
  407790:	48 8b 45 f8          	mov    -0x8(%rbp),%rax
  407794:	48 8b 40 08          	mov    0x8(%rax),%rax
  407798:	48 85 c0             	test   %rax,%rax
  40779b:	74 1f                	je     4077bc <_ZN3_fe5StateD1Ev+0x38>
  40779d:	48 8b 45 f8          	mov    -0x8(%rbp),%rax
  4077a1:	48 8b 40 08          	mov    0x8(%rax),%rax
  4077a5:	48 8b 00             	mov    (%rax),%rax
  4077a8:	48 83 c0 08          	add    $0x8,%rax
  4077ac:	48 8b 00             	mov    (%rax),%rax
  4077af:	48 8b 55 f8          	mov    -0x8(%rbp),%rdx
  4077b3:	48 8b 52 08          	mov    0x8(%rdx),%rdx
  4077b7:	48 89 d7             	mov    %rdx,%rdi
  4077ba:	ff d0                	callq  *%rax
  4077bc:	c9                   	leaveq 
  4077bd:	c3                   	retq   

00000000004077be <_ZNSt8iteratorISt18input_iterator_tagSslPSsRSsEC1Ev>:
  4077be:	55                   	push   %rbp
  4077bf:	48 89 e5             	mov    %rsp,%rbp
  4077c2:	48 89 7d f8          	mov    %rdi,-0x8(%rbp)
  4077c6:	5d                   	pop    %rbp
  4077c7:	c3                   	retq   

00000000004077c8 <_ZN3MapISsbE8iteratorD1Ev>:
  4077c8:	55                   	push   %rbp
  4077c9:	48 89 e5             	mov    %rsp,%rbp
  4077cc:	48 83 ec 10          	sub    $0x10,%rsp
  4077d0:	48 89 7d f8          	mov    %rdi,-0x8(%rbp)
  4077d4:	48 8b 45 f8          	mov    -0x8(%rbp),%rax
  4077d8:	48 83 c0 10          	add    $0x10,%rax
  4077dc:	48 89 c7             	mov    %rax,%rdi
  4077df:	e8 a6 07 00 00       	callq  407f8a <_ZN5StackIN3MapISsbE8iterator10NodeMarkerEED1Ev>
  4077e4:	c9                   	leaveq 
  4077e5:	c3                   	retq   

00000000004077e6 <_ZN3SetISsE8iteratorD1Ev>:
  4077e6:	55                   	push   %rbp
  4077e7:	48 89 e5             	mov    %rsp,%rbp
  4077ea:	48 83 ec 10          	sub    $0x10,%rsp
  4077ee:	48 89 7d f8          	mov    %rdi,-0x8(%rbp)
  4077f2:	48 8b 45 f8          	mov    -0x8(%rbp),%rax
  4077f6:	48 83 c0 08          	add    $0x8,%rax
  4077fa:	48 89 c7             	mov    %rax,%rdi
  4077fd:	e8 c6 ff ff ff       	callq  4077c8 <_ZN3MapISsbE8iteratorD1Ev>
  407802:	c9                   	leaveq 
  407803:	c3                   	retq   

0000000000407804 <_ZN5StackIN3MapISsbE8iterator10NodeMarkerEEaSERKS4_>:
  407804:	55                   	push   %rbp
  407805:	48 89 e5             	mov    %rsp,%rbp
  407808:	48 83 ec 10          	sub    $0x10,%rsp
  40780c:	48 89 7d f8          	mov    %rdi,-0x8(%rbp)
  407810:	48 89 75 f0          	mov    %rsi,-0x10(%rbp)
  407814:	48 8b 45 f0          	mov    -0x10(%rbp),%rax
  407818:	48 8d 50 08          	lea    0x8(%rax),%rdx
  40781c:	48 8b 45 f8          	mov    -0x8(%rbp),%rax
  407820:	48 83 c0 08          	add    $0x8,%rax
  407824:	48 89 d6             	mov    %rdx,%rsi
  407827:	48 89 c7             	mov    %rax,%rdi
  40782a:	e8 2d 08 00 00       	callq  40805c <_ZN6VectorIN3MapISsbE8iterator10NodeMarkerEEaSERKS4_>
  40782f:	48 8b 45 f8          	mov    -0x8(%rbp),%rax
  407833:	c9                   	leaveq 
  407834:	c3                   	retq   
  407835:	90                   	nop

0000000000407836 <_ZN3MapISsbE8iteratoraSERKS1_>:
  407836:	55                   	push   %rbp
  407837:	48 89 e5             	mov    %rsp,%rbp
  40783a:	48 83 ec 10          	sub    $0x10,%rsp
  40783e:	48 89 7d f8          	mov    %rdi,-0x8(%rbp)
  407842:	48 89 75 f0          	mov    %rsi,-0x10(%rbp)
  407846:	48 8b 45 f0          	mov    -0x10(%rbp),%rax
  40784a:	48 8b 10             	mov    (%rax),%rdx
  40784d:	48 8b 45 f8          	mov    -0x8(%rbp),%rax
  407851:	48 89 10             	mov    %rdx,(%rax)
  407854:	48 8b 45 f0          	mov    -0x10(%rbp),%rax
  407858:	8b 50 08             	mov    0x8(%rax),%edx
  40785b:	48 8b 45 f8          	mov    -0x8(%rbp),%rax
  40785f:	89 50 08             	mov    %edx,0x8(%rax)
  407862:	48 8b 45 f0          	mov    -0x10(%rbp),%rax
  407866:	48 8d 50 10          	lea    0x10(%rax),%rdx
  40786a:	48 8b 45 f8          	mov    -0x8(%rbp),%rax
  40786e:	48 83 c0 10          	add    $0x10,%rax
  407872:	48 89 d6             	mov    %rdx,%rsi
  407875:	48 89 c7             	mov    %rax,%rdi
  407878:	e8 87 ff ff ff       	callq  407804 <_ZN5StackIN3MapISsbE8iterator10NodeMarkerEEaSERKS4_>
  40787d:	48 8b 45 f8          	mov    -0x8(%rbp),%rax
  407881:	c9                   	leaveq 
  407882:	c3                   	retq   
  407883:	90                   	nop

0000000000407884 <_ZN3SetISsE8iteratoraSERKS1_>:
  407884:	55                   	push   %rbp
  407885:	48 89 e5             	mov    %rsp,%rbp
  407888:	48 83 ec 10          	sub    $0x10,%rsp
  40788c:	48 89 7d f8          	mov    %rdi,-0x8(%rbp)
  407890:	48 89 75 f0          	mov    %rsi,-0x10(%rbp)
  407894:	48 8b 45 f0          	mov    -0x10(%rbp),%rax
  407898:	48 8d 50 08          	lea    0x8(%rax),%rdx
  40789c:	48 8b 45 f8          	mov    -0x8(%rbp),%rax
  4078a0:	48 83 c0 08          	add    $0x8,%rax
  4078a4:	48 89 d6             	mov    %rdx,%rsi
  4078a7:	48 89 c7             	mov    %rax,%rdi
  4078aa:	e8 87 ff ff ff       	callq  407836 <_ZN3MapISsbE8iteratoraSERKS1_>
  4078af:	48 8b 45 f8          	mov    -0x8(%rbp),%rax
  4078b3:	c9                   	leaveq 
  4078b4:	c3                   	retq   
  4078b5:	90                   	nop

00000000004078b6 <_ZN7Lexicon8iteratorC1EPKS_b>:
  4078b6:	55                   	push   %rbp
  4078b7:	48 89 e5             	mov    %rsp,%rbp
  4078ba:	53                   	push   %rbx
  4078bb:	48 81 ec a8 00 00 00 	sub    $0xa8,%rsp
  4078c2:	48 89 bd 68 ff ff ff 	mov    %rdi,-0x98(%rbp)
  4078c9:	48 89 b5 60 ff ff ff 	mov    %rsi,-0xa0(%rbp)
  4078d0:	89 d0                	mov    %edx,%eax
  4078d2:	88 85 5c ff ff ff    	mov    %al,-0xa4(%rbp)
  4078d8:	48 8b 85 68 ff ff ff 	mov    -0x98(%rbp),%rax
  4078df:	48 89 c7             	mov    %rax,%rdi
  4078e2:	e8 d7 fe ff ff       	callq  4077be <_ZNSt8iteratorISt18input_iterator_tagSslPSsRSsEC1Ev>
  4078e7:	48 8b 85 68 ff ff ff 	mov    -0x98(%rbp),%rax
  4078ee:	48 83 c0 10          	add    $0x10,%rax
  4078f2:	48 89 c7             	mov    %rax,%rdi
  4078f5:	e8 a6 aa ff ff       	callq  4023a0 <_ZNSsC1Ev@plt>
  4078fa:	48 8b 85 68 ff ff ff 	mov    -0x98(%rbp),%rax
  407901:	48 83 c0 18          	add    $0x18,%rax
  407905:	48 89 c7             	mov    %rax,%rdi
  407908:	e8 93 aa ff ff       	callq  4023a0 <_ZNSsC1Ev@plt>
  40790d:	48 8b 85 68 ff ff ff 	mov    -0x98(%rbp),%rax
  407914:	48 83 c0 20          	add    $0x20,%rax
  407918:	48 89 c7             	mov    %rax,%rdi
  40791b:	e8 80 aa ff ff       	callq  4023a0 <_ZNSsC1Ev@plt>
  407920:	48 8b 85 68 ff ff ff 	mov    -0x98(%rbp),%rax
  407927:	48 83 c0 30          	add    $0x30,%rax
  40792b:	48 89 c7             	mov    %rax,%rdi
  40792e:	e8 9f 05 00 00       	callq  407ed2 <_ZN5StackIPN7Lexicon4EdgeEEC1Ev>
  407933:	48 8b 85 68 ff ff ff 	mov    -0x98(%rbp),%rax
  40793a:	48 83 c0 50          	add    $0x50,%rax
  40793e:	48 89 c7             	mov    %rax,%rdi
  407941:	e8 1a 06 00 00       	callq  407f60 <_ZN3SetISsE8iteratorC1Ev>
  407946:	48 8b 85 68 ff ff ff 	mov    -0x98(%rbp),%rax
  40794d:	48 05 88 00 00 00    	add    $0x88,%rax
  407953:	48 89 c7             	mov    %rax,%rdi
  407956:	e8 05 06 00 00       	callq  407f60 <_ZN3SetISsE8iteratorC1Ev>
  40795b:	48 8b 85 68 ff ff ff 	mov    -0x98(%rbp),%rax
  407962:	48 8b 95 60 ff ff ff 	mov    -0xa0(%rbp),%rdx
  407969:	48 89 10             	mov    %rdx,(%rax)
  40796c:	80 bd 5c ff ff ff 00 	cmpb   $0x0,-0xa4(%rbp)
  407973:	74 1e                	je     407993 <_ZN7Lexicon8iteratorC1EPKS_b+0xdd>
  407975:	48 8b 85 60 ff ff ff 	mov    -0xa0(%rbp),%rax
  40797c:	48 89 c7             	mov    %rax,%rdi
  40797f:	e8 26 f1 ff ff       	callq  406aaa <_ZNK7Lexicon4sizeEv>
  407984:	48 8b 95 68 ff ff ff 	mov    -0x98(%rbp),%rdx
  40798b:	89 42 08             	mov    %eax,0x8(%rdx)
  40798e:	e9 bc 01 00 00       	jmpq   407b4f <_ZN7Lexicon8iteratorC1EPKS_b+0x299>
  407993:	48 8b 85 68 ff ff ff 	mov    -0x98(%rbp),%rax
  40799a:	c7 40 08 00 00 00 00 	movl   $0x0,0x8(%rax)
  4079a1:	48 8b 85 68 ff ff ff 	mov    -0x98(%rbp),%rax
  4079a8:	48 c7 40 28 00 00 00 	movq   $0x0,0x28(%rax)
  4079af:	00 
  4079b0:	48 8b 85 60 ff ff ff 	mov    -0xa0(%rbp),%rax
  4079b7:	48 8d 50 20          	lea    0x20(%rax),%rdx
  4079bb:	48 8d 85 70 ff ff ff 	lea    -0x90(%rbp),%rax
  4079c2:	48 89 d6             	mov    %rdx,%rsi
  4079c5:	48 89 c7             	mov    %rax,%rdi
  4079c8:	e8 21 06 00 00       	callq  407fee <_ZNK3SetISsE5beginEv>
  4079cd:	48 8b 85 68 ff ff ff 	mov    -0x98(%rbp),%rax
  4079d4:	48 8d 50 50          	lea    0x50(%rax),%rdx
  4079d8:	48 8d 85 70 ff ff ff 	lea    -0x90(%rbp),%rax
  4079df:	48 89 c6             	mov    %rax,%rsi
  4079e2:	48 89 d7             	mov    %rdx,%rdi
  4079e5:	e8 9a fe ff ff       	callq  407884 <_ZN3SetISsE8iteratoraSERKS1_>
  4079ea:	48 8d 85 70 ff ff ff 	lea    -0x90(%rbp),%rax
  4079f1:	48 89 c7             	mov    %rax,%rdi
  4079f4:	e8 ed fd ff ff       	callq  4077e6 <_ZN3SetISsE8iteratorD1Ev>
  4079f9:	48 8b 85 60 ff ff ff 	mov    -0xa0(%rbp),%rax
  407a00:	48 8d 50 20          	lea    0x20(%rax),%rdx
  407a04:	48 8d 45 b0          	lea    -0x50(%rbp),%rax
  407a08:	48 89 d6             	mov    %rdx,%rsi
  407a0b:	48 89 c7             	mov    %rax,%rdi
  407a0e:	e8 a7 06 00 00       	callq  4080ba <_ZNK3SetISsE3endEv>
  407a13:	48 8b 85 68 ff ff ff 	mov    -0x98(%rbp),%rax
  407a1a:	48 8d 90 88 00 00 00 	lea    0x88(%rax),%rdx
  407a21:	48 8d 45 b0          	lea    -0x50(%rbp),%rax
  407a25:	48 89 c6             	mov    %rax,%rsi
  407a28:	48 89 d7             	mov    %rdx,%rdi
  407a2b:	e8 54 fe ff ff       	callq  407884 <_ZN3SetISsE8iteratoraSERKS1_>
  407a30:	48 8d 45 b0          	lea    -0x50(%rbp),%rax
  407a34:	48 89 c7             	mov    %rax,%rdi
  407a37:	e8 aa fd ff ff       	callq  4077e6 <_ZN3SetISsE8iteratorD1Ev>
  407a3c:	48 8b 85 68 ff ff ff 	mov    -0x98(%rbp),%rax
  407a43:	48 83 c0 10          	add    $0x10,%rax
  407a47:	be c0 c3 40 00       	mov    $0x40c3c0,%esi
  407a4c:	48 89 c7             	mov    %rax,%rdi
  407a4f:	e8 3c a9 ff ff       	callq  402390 <_ZNSsaSEPKc@plt>
  407a54:	48 8b 85 68 ff ff ff 	mov    -0x98(%rbp),%rax
  407a5b:	48 83 c0 18          	add    $0x18,%rax
  407a5f:	be c0 c3 40 00       	mov    $0x40c3c0,%esi
  407a64:	48 89 c7             	mov    %rax,%rdi
  407a67:	e8 24 a9 ff ff       	callq  402390 <_ZNSsaSEPKc@plt>
  407a6c:	48 8b 85 68 ff ff ff 	mov    -0x98(%rbp),%rax
  407a73:	48 89 c7             	mov    %rax,%rdi
  407a76:	e8 d5 f9 ff ff       	callq  407450 <_ZN7Lexicon8iterator23advanceToNextWordInDawgEv>
  407a7b:	48 8b 85 68 ff ff ff 	mov    -0x98(%rbp),%rax
  407a82:	48 89 c7             	mov    %rax,%rdi
  407a85:	e8 12 f9 ff ff       	callq  40739c <_ZN7Lexicon8iterator22advanceToNextWordInSetEv>
  407a8a:	e9 c0 00 00 00       	jmpq   407b4f <_ZN7Lexicon8iteratorC1EPKS_b+0x299>
  407a8f:	48 89 c3             	mov    %rax,%rbx
  407a92:	48 8d 85 70 ff ff ff 	lea    -0x90(%rbp),%rax
  407a99:	48 89 c7             	mov    %rax,%rdi
  407a9c:	e8 45 fd ff ff       	callq  4077e6 <_ZN3SetISsE8iteratorD1Ev>
  407aa1:	eb 14                	jmp    407ab7 <_ZN7Lexicon8iteratorC1EPKS_b+0x201>
  407aa3:	48 89 c3             	mov    %rax,%rbx
  407aa6:	48 8d 45 b0          	lea    -0x50(%rbp),%rax
  407aaa:	48 89 c7             	mov    %rax,%rdi
  407aad:	e8 34 fd ff ff       	callq  4077e6 <_ZN3SetISsE8iteratorD1Ev>
  407ab2:	eb 03                	jmp    407ab7 <_ZN7Lexicon8iteratorC1EPKS_b+0x201>
  407ab4:	48 89 c3             	mov    %rax,%rbx
  407ab7:	48 8b 85 68 ff ff ff 	mov    -0x98(%rbp),%rax
  407abe:	48 05 88 00 00 00    	add    $0x88,%rax
  407ac4:	48 89 c7             	mov    %rax,%rdi
  407ac7:	e8 1a fd ff ff       	callq  4077e6 <_ZN3SetISsE8iteratorD1Ev>
  407acc:	eb 03                	jmp    407ad1 <_ZN7Lexicon8iteratorC1EPKS_b+0x21b>
  407ace:	48 89 c3             	mov    %rax,%rbx
  407ad1:	48 8b 85 68 ff ff ff 	mov    -0x98(%rbp),%rax
  407ad8:	48 83 c0 50          	add    $0x50,%rax
  407adc:	48 89 c7             	mov    %rax,%rdi
  407adf:	e8 02 fd ff ff       	callq  4077e6 <_ZN3SetISsE8iteratorD1Ev>
  407ae4:	eb 03                	jmp    407ae9 <_ZN7Lexicon8iteratorC1EPKS_b+0x233>
  407ae6:	48 89 c3             	mov    %rax,%rbx
  407ae9:	48 8b 85 68 ff ff ff 	mov    -0x98(%rbp),%rax
  407af0:	48 83 c0 30          	add    $0x30,%rax
  407af4:	48 89 c7             	mov    %rax,%rdi
  407af7:	e8 00 04 00 00       	callq  407efc <_ZN5StackIPN7Lexicon4EdgeEED1Ev>
  407afc:	eb 03                	jmp    407b01 <_ZN7Lexicon8iteratorC1EPKS_b+0x24b>
  407afe:	48 89 c3             	mov    %rax,%rbx
  407b01:	48 8b 85 68 ff ff ff 	mov    -0x98(%rbp),%rax
  407b08:	48 83 c0 20          	add    $0x20,%rax
  407b0c:	48 89 c7             	mov    %rax,%rdi
  407b0f:	e8 8c aa ff ff       	callq  4025a0 <_ZNSsD1Ev@plt>
  407b14:	eb 03                	jmp    407b19 <_ZN7Lexicon8iteratorC1EPKS_b+0x263>
  407b16:	48 89 c3             	mov    %rax,%rbx
  407b19:	48 8b 85 68 ff ff ff 	mov    -0x98(%rbp),%rax
  407b20:	48 83 c0 18          	add    $0x18,%rax
  407b24:	48 89 c7             	mov    %rax,%rdi
  407b27:	e8 74 aa ff ff       	callq  4025a0 <_ZNSsD1Ev@plt>
  407b2c:	eb 03                	jmp    407b31 <_ZN7Lexicon8iteratorC1EPKS_b+0x27b>
  407b2e:	48 89 c3             	mov    %rax,%rbx
  407b31:	48 8b 85 68 ff ff ff 	mov    -0x98(%rbp),%rax
  407b38:	48 83 c0 10          	add    $0x10,%rax
  407b3c:	48 89 c7             	mov    %rax,%rdi
  407b3f:	e8 5c aa ff ff       	callq  4025a0 <_ZNSsD1Ev@plt>
  407b44:	48 89 d8             	mov    %rbx,%rax
  407b47:	48 89 c7             	mov    %rax,%rdi
  407b4a:	e8 81 ad ff ff       	callq  4028d0 <_Unwind_Resume@plt>
  407b4f:	48 81 c4 a8 00 00 00 	add    $0xa8,%rsp
  407b56:	5b                   	pop    %rbx
  407b57:	5d                   	pop    %rbp
  407b58:	c3                   	retq   
  407b59:	90                   	nop

0000000000407b5a <_ZN7Lexicon8iteratorppEv>:
  407b5a:	55                   	push   %rbp
  407b5b:	48 89 e5             	mov    %rsp,%rbp
  407b5e:	48 83 ec 10          	sub    $0x10,%rsp
  407b62:	48 89 7d f8          	mov    %rdi,-0x8(%rbp)
  407b66:	48 8b 45 f8          	mov    -0x8(%rbp),%rax
  407b6a:	48 8b 40 28          	mov    0x28(%rax),%rax
  407b6e:	48 85 c0             	test   %rax,%rax
  407b71:	75 0e                	jne    407b81 <_ZN7Lexicon8iteratorppEv+0x27>
  407b73:	48 8b 45 f8          	mov    -0x8(%rbp),%rax
  407b77:	48 89 c7             	mov    %rax,%rdi
  407b7a:	e8 1d f8 ff ff       	callq  40739c <_ZN7Lexicon8iterator22advanceToNextWordInSetEv>
  407b7f:	eb 62                	jmp    407be3 <_ZN7Lexicon8iteratorppEv+0x89>
  407b81:	48 8b 45 f8          	mov    -0x8(%rbp),%rax
  407b85:	48 83 c0 18          	add    $0x18,%rax
  407b89:	be c0 c3 40 00       	mov    $0x40c3c0,%esi
  407b8e:	48 89 c7             	mov    %rax,%rdi
  407b91:	e8 8a b9 ff ff       	callq  403520 <_ZSteqIcSt11char_traitsIcESaIcEEbRKSbIT_T0_T1_EPKS3_>
  407b96:	84 c0                	test   %al,%al
  407b98:	75 1f                	jne    407bb9 <_ZN7Lexicon8iteratorppEv+0x5f>
  407b9a:	48 8b 45 f8          	mov    -0x8(%rbp),%rax
  407b9e:	48 8d 50 18          	lea    0x18(%rax),%rdx
  407ba2:	48 8b 45 f8          	mov    -0x8(%rbp),%rax
  407ba6:	48 83 c0 10          	add    $0x10,%rax
  407baa:	48 89 d6             	mov    %rdx,%rsi
  407bad:	48 89 c7             	mov    %rax,%rdi
  407bb0:	e8 73 05 00 00       	callq  408128 <_ZStltIcSt11char_traitsIcESaIcEEbRKSbIT_T0_T1_ES8_>
  407bb5:	84 c0                	test   %al,%al
  407bb7:	74 07                	je     407bc0 <_ZN7Lexicon8iteratorppEv+0x66>
  407bb9:	b8 01 00 00 00       	mov    $0x1,%eax
  407bbe:	eb 05                	jmp    407bc5 <_ZN7Lexicon8iteratorppEv+0x6b>
  407bc0:	b8 00 00 00 00       	mov    $0x0,%eax
  407bc5:	84 c0                	test   %al,%al
  407bc7:	74 0e                	je     407bd7 <_ZN7Lexicon8iteratorppEv+0x7d>
  407bc9:	48 8b 45 f8          	mov    -0x8(%rbp),%rax
  407bcd:	48 89 c7             	mov    %rax,%rdi
  407bd0:	e8 7b f8 ff ff       	callq  407450 <_ZN7Lexicon8iterator23advanceToNextWordInDawgEv>
  407bd5:	eb 0c                	jmp    407be3 <_ZN7Lexicon8iteratorppEv+0x89>
  407bd7:	48 8b 45 f8          	mov    -0x8(%rbp),%rax
  407bdb:	48 89 c7             	mov    %rax,%rdi
  407bde:	e8 b9 f7 ff ff       	callq  40739c <_ZN7Lexicon8iterator22advanceToNextWordInSetEv>
  407be3:	48 8b 45 f8          	mov    -0x8(%rbp),%rax
  407be7:	8b 40 08             	mov    0x8(%rax),%eax
  407bea:	8d 50 01             	lea    0x1(%rax),%edx
  407bed:	48 8b 45 f8          	mov    -0x8(%rbp),%rax
  407bf1:	89 50 08             	mov    %edx,0x8(%rax)
  407bf4:	48 8b 45 f8          	mov    -0x8(%rbp),%rax
  407bf8:	c9                   	leaveq 
  407bf9:	c3                   	retq   

0000000000407bfa <_ZN7Lexicon8iteratorD1Ev>:
  407bfa:	55                   	push   %rbp
  407bfb:	48 89 e5             	mov    %rsp,%rbp
  407bfe:	53                   	push   %rbx
  407bff:	48 83 ec 18          	sub    $0x18,%rsp
  407c03:	48 89 7d e8          	mov    %rdi,-0x18(%rbp)
  407c07:	48 8b 45 e8          	mov    -0x18(%rbp),%rax
  407c0b:	48 05 88 00 00 00    	add    $0x88,%rax
  407c11:	48 89 c7             	mov    %rax,%rdi
  407c14:	e8 cd fb ff ff       	callq  4077e6 <_ZN3SetISsE8iteratorD1Ev>
  407c19:	48 8b 45 e8          	mov    -0x18(%rbp),%rax
  407c1d:	48 83 c0 50          	add    $0x50,%rax
  407c21:	48 89 c7             	mov    %rax,%rdi
  407c24:	e8 bd fb ff ff       	callq  4077e6 <_ZN3SetISsE8iteratorD1Ev>
  407c29:	48 8b 45 e8          	mov    -0x18(%rbp),%rax
  407c2d:	48 83 c0 30          	add    $0x30,%rax
  407c31:	48 89 c7             	mov    %rax,%rdi
  407c34:	e8 c3 02 00 00       	callq  407efc <_ZN5StackIPN7Lexicon4EdgeEED1Ev>
  407c39:	48 8b 45 e8          	mov    -0x18(%rbp),%rax
  407c3d:	48 83 c0 20          	add    $0x20,%rax
  407c41:	48 89 c7             	mov    %rax,%rdi
  407c44:	e8 57 a9 ff ff       	callq  4025a0 <_ZNSsD1Ev@plt>
  407c49:	48 8b 45 e8          	mov    -0x18(%rbp),%rax
  407c4d:	48 83 c0 18          	add    $0x18,%rax
  407c51:	48 89 c7             	mov    %rax,%rdi
  407c54:	e8 47 a9 ff ff       	callq  4025a0 <_ZNSsD1Ev@plt>
  407c59:	48 8b 45 e8          	mov    -0x18(%rbp),%rax
  407c5d:	48 83 c0 10          	add    $0x10,%rax
  407c61:	48 89 c7             	mov    %rax,%rdi
  407c64:	e8 37 a9 ff ff       	callq  4025a0 <_ZNSsD1Ev@plt>
  407c69:	eb 72                	jmp    407cdd <_ZN7Lexicon8iteratorD1Ev+0xe3>
  407c6b:	48 89 c3             	mov    %rax,%rbx
  407c6e:	48 8b 45 e8          	mov    -0x18(%rbp),%rax
  407c72:	48 83 c0 50          	add    $0x50,%rax
  407c76:	48 89 c7             	mov    %rax,%rdi
  407c79:	e8 68 fb ff ff       	callq  4077e6 <_ZN3SetISsE8iteratorD1Ev>
  407c7e:	eb 03                	jmp    407c83 <_ZN7Lexicon8iteratorD1Ev+0x89>
  407c80:	48 89 c3             	mov    %rax,%rbx
  407c83:	48 8b 45 e8          	mov    -0x18(%rbp),%rax
  407c87:	48 83 c0 30          	add    $0x30,%rax
  407c8b:	48 89 c7             	mov    %rax,%rdi
  407c8e:	e8 69 02 00 00       	callq  407efc <_ZN5StackIPN7Lexicon4EdgeEED1Ev>
  407c93:	eb 03                	jmp    407c98 <_ZN7Lexicon8iteratorD1Ev+0x9e>
  407c95:	48 89 c3             	mov    %rax,%rbx
  407c98:	48 8b 45 e8          	mov    -0x18(%rbp),%rax
  407c9c:	48 83 c0 20          	add    $0x20,%rax
  407ca0:	48 89 c7             	mov    %rax,%rdi
  407ca3:	e8 f8 a8 ff ff       	callq  4025a0 <_ZNSsD1Ev@plt>
  407ca8:	eb 03                	jmp    407cad <_ZN7Lexicon8iteratorD1Ev+0xb3>
  407caa:	48 89 c3             	mov    %rax,%rbx
  407cad:	48 8b 45 e8          	mov    -0x18(%rbp),%rax
  407cb1:	48 83 c0 18          	add    $0x18,%rax
  407cb5:	48 89 c7             	mov    %rax,%rdi
  407cb8:	e8 e3 a8 ff ff       	callq  4025a0 <_ZNSsD1Ev@plt>
  407cbd:	eb 03                	jmp    407cc2 <_ZN7Lexicon8iteratorD1Ev+0xc8>
  407cbf:	48 89 c3             	mov    %rax,%rbx
  407cc2:	48 8b 45 e8          	mov    -0x18(%rbp),%rax
  407cc6:	48 83 c0 10          	add    $0x10,%rax
  407cca:	48 89 c7             	mov    %rax,%rdi
  407ccd:	e8 ce a8 ff ff       	callq  4025a0 <_ZNSsD1Ev@plt>
  407cd2:	48 89 d8             	mov    %rbx,%rax
  407cd5:	48 89 c7             	mov    %rax,%rdi
  407cd8:	e8 f3 ab ff ff       	callq  4028d0 <_Unwind_Resume@plt>
  407cdd:	48 83 c4 18          	add    $0x18,%rsp
  407ce1:	5b                   	pop    %rbx
  407ce2:	5d                   	pop    %rbp
  407ce3:	c3                   	retq   

0000000000407ce4 <_ZN7Lexicon8iteratoreqERKS0_>:
  407ce4:	55                   	push   %rbp
  407ce5:	48 89 e5             	mov    %rsp,%rbp
  407ce8:	48 89 7d f8          	mov    %rdi,-0x8(%rbp)
  407cec:	48 89 75 f0          	mov    %rsi,-0x10(%rbp)
  407cf0:	48 8b 45 f8          	mov    -0x8(%rbp),%rax
  407cf4:	48 8b 10             	mov    (%rax),%rdx
  407cf7:	48 8b 45 f0          	mov    -0x10(%rbp),%rax
  407cfb:	48 8b 00             	mov    (%rax),%rax
  407cfe:	48 39 c2             	cmp    %rax,%rdx
  407d01:	75 19                	jne    407d1c <_ZN7Lexicon8iteratoreqERKS0_+0x38>
  407d03:	48 8b 45 f8          	mov    -0x8(%rbp),%rax
  407d07:	8b 50 08             	mov    0x8(%rax),%edx
  407d0a:	48 8b 45 f0          	mov    -0x10(%rbp),%rax
  407d0e:	8b 40 08             	mov    0x8(%rax),%eax
  407d11:	39 c2                	cmp    %eax,%edx
  407d13:	75 07                	jne    407d1c <_ZN7Lexicon8iteratoreqERKS0_+0x38>
  407d15:	b8 01 00 00 00       	mov    $0x1,%eax
  407d1a:	eb 05                	jmp    407d21 <_ZN7Lexicon8iteratoreqERKS0_+0x3d>
  407d1c:	b8 00 00 00 00       	mov    $0x0,%eax
  407d21:	5d                   	pop    %rbp
  407d22:	c3                   	retq   
  407d23:	90                   	nop

0000000000407d24 <_ZN7Lexicon8iteratordeEv>:
  407d24:	55                   	push   %rbp
  407d25:	48 89 e5             	mov    %rsp,%rbp
  407d28:	48 83 ec 10          	sub    $0x10,%rsp
  407d2c:	48 89 7d f8          	mov    %rdi,-0x8(%rbp)
  407d30:	48 89 75 f0          	mov    %rsi,-0x10(%rbp)
  407d34:	48 8b 45 f0          	mov    -0x10(%rbp),%rax
  407d38:	48 8b 40 28          	mov    0x28(%rax),%rax
  407d3c:	48 85 c0             	test   %rax,%rax
  407d3f:	75 1c                	jne    407d5d <_ZN7Lexicon8iteratordeEv+0x39>
  407d41:	48 8b 45 f0          	mov    -0x10(%rbp),%rax
  407d45:	48 8d 50 18          	lea    0x18(%rax),%rdx
  407d49:	48 8b 45 f8          	mov    -0x8(%rbp),%rax
  407d4d:	48 89 d6             	mov    %rdx,%rsi
  407d50:	48 89 c7             	mov    %rax,%rdi
  407d53:	e8 b8 a7 ff ff       	callq  402510 <_ZNSsC1ERKSs@plt>
  407d58:	e9 9d 00 00 00       	jmpq   407dfa <_ZN7Lexicon8iteratordeEv+0xd6>
  407d5d:	48 8b 45 f0          	mov    -0x10(%rbp),%rax
  407d61:	48 83 c0 18          	add    $0x18,%rax
  407d65:	be c0 c3 40 00       	mov    $0x40c3c0,%esi
  407d6a:	48 89 c7             	mov    %rax,%rdi
  407d6d:	e8 ae b7 ff ff       	callq  403520 <_ZSteqIcSt11char_traitsIcESaIcEEbRKSbIT_T0_T1_EPKS3_>
  407d72:	84 c0                	test   %al,%al
  407d74:	75 1f                	jne    407d95 <_ZN7Lexicon8iteratordeEv+0x71>
  407d76:	48 8b 45 f0          	mov    -0x10(%rbp),%rax
  407d7a:	48 8d 50 18          	lea    0x18(%rax),%rdx
  407d7e:	48 8b 45 f0          	mov    -0x10(%rbp),%rax
  407d82:	48 83 c0 10          	add    $0x10,%rax
  407d86:	48 89 d6             	mov    %rdx,%rsi
  407d89:	48 89 c7             	mov    %rax,%rdi
  407d8c:	e8 97 03 00 00       	callq  408128 <_ZStltIcSt11char_traitsIcESaIcEEbRKSbIT_T0_T1_ES8_>
  407d91:	84 c0                	test   %al,%al
  407d93:	74 07                	je     407d9c <_ZN7Lexicon8iteratordeEv+0x78>
  407d95:	b8 01 00 00 00       	mov    $0x1,%eax
  407d9a:	eb 05                	jmp    407da1 <_ZN7Lexicon8iteratordeEv+0x7d>
  407d9c:	b8 00 00 00 00       	mov    $0x0,%eax
  407da1:	84 c0                	test   %al,%al
  407da3:	74 3e                	je     407de3 <_ZN7Lexicon8iteratordeEv+0xbf>
  407da5:	48 8b 45 f0          	mov    -0x10(%rbp),%rax
  407da9:	48 8b 40 28          	mov    0x28(%rax),%rax
  407dad:	0f b6 00             	movzbl (%rax),%eax
  407db0:	83 e0 1f             	and    $0x1f,%eax
  407db3:	0f b6 d0             	movzbl %al,%edx
  407db6:	48 8b 45 f0          	mov    -0x10(%rbp),%rax
  407dba:	48 8b 00             	mov    (%rax),%rax
  407dbd:	89 d6                	mov    %edx,%esi
  407dbf:	48 89 c7             	mov    %rax,%rdi
  407dc2:	e8 b7 00 00 00       	callq  407e7e <_ZNK7Lexicon9ordToCharEj>
  407dc7:	0f be d0             	movsbl %al,%edx
  407dca:	48 8b 45 f0          	mov    -0x10(%rbp),%rax
  407dce:	48 8d 48 10          	lea    0x10(%rax),%rcx
  407dd2:	48 8b 45 f8          	mov    -0x8(%rbp),%rax
  407dd6:	48 89 ce             	mov    %rcx,%rsi
  407dd9:	48 89 c7             	mov    %rax,%rdi
  407ddc:	e8 6f 03 00 00       	callq  408150 <_ZStplIcSt11char_traitsIcESaIcEESbIT_T0_T1_ERKS6_S3_>
  407de1:	eb 17                	jmp    407dfa <_ZN7Lexicon8iteratordeEv+0xd6>
  407de3:	48 8b 45 f0          	mov    -0x10(%rbp),%rax
  407de7:	48 8d 50 18          	lea    0x18(%rax),%rdx
  407deb:	48 8b 45 f8          	mov    -0x8(%rbp),%rax
  407def:	48 89 d6             	mov    %rdx,%rsi
  407df2:	48 89 c7             	mov    %rax,%rdi
  407df5:	e8 16 a7 ff ff       	callq  402510 <_ZNSsC1ERKSs@plt>
  407dfa:	48 8b 45 f8          	mov    -0x8(%rbp),%rax
  407dfe:	c9                   	leaveq 
  407dff:	c3                   	retq   

0000000000407e00 <_ZNK7Lexicon5beginEv>:
  407e00:	55                   	push   %rbp
  407e01:	48 89 e5             	mov    %rsp,%rbp
  407e04:	48 83 ec 10          	sub    $0x10,%rsp
  407e08:	48 89 7d f8          	mov    %rdi,-0x8(%rbp)
  407e0c:	48 89 75 f0          	mov    %rsi,-0x10(%rbp)
  407e10:	48 8b 4d f0          	mov    -0x10(%rbp),%rcx
  407e14:	48 8b 45 f8          	mov    -0x8(%rbp),%rax
  407e18:	ba 00 00 00 00       	mov    $0x0,%edx
  407e1d:	48 89 ce             	mov    %rcx,%rsi
  407e20:	48 89 c7             	mov    %rax,%rdi
  407e23:	e8 8e fa ff ff       	callq  4078b6 <_ZN7Lexicon8iteratorC1EPKS_b>
  407e28:	48 8b 45 f8          	mov    -0x8(%rbp),%rax
  407e2c:	c9                   	leaveq 
  407e2d:	c3                   	retq   

0000000000407e2e <_ZNK7Lexicon3endEv>:
  407e2e:	55                   	push   %rbp
  407e2f:	48 89 e5             	mov    %rsp,%rbp
  407e32:	48 83 ec 10          	sub    $0x10,%rsp
  407e36:	48 89 7d f8          	mov    %rdi,-0x8(%rbp)
  407e3a:	48 89 75 f0          	mov    %rsi,-0x10(%rbp)
  407e3e:	48 8b 4d f0          	mov    -0x10(%rbp),%rcx
  407e42:	48 8b 45 f8          	mov    -0x8(%rbp),%rax
  407e46:	ba 01 00 00 00       	mov    $0x1,%edx
  407e4b:	48 89 ce             	mov    %rcx,%rsi
  407e4e:	48 89 c7             	mov    %rax,%rdi
  407e51:	e8 60 fa ff ff       	callq  4078b6 <_ZN7Lexicon8iteratorC1EPKS_b>
  407e56:	48 8b 45 f8          	mov    -0x8(%rbp),%rax
  407e5a:	c9                   	leaveq 
  407e5b:	c3                   	retq   

0000000000407e5c <_ZNK7Lexicon9charToOrdEc>:
  407e5c:	55                   	push   %rbp
  407e5d:	48 89 e5             	mov    %rsp,%rbp
  407e60:	48 83 ec 10          	sub    $0x10,%rsp
  407e64:	48 89 7d f8          	mov    %rdi,-0x8(%rbp)
  407e68:	89 f0                	mov    %esi,%eax
  407e6a:	88 45 f4             	mov    %al,-0xc(%rbp)
  407e6d:	0f be 45 f4          	movsbl -0xc(%rbp),%eax
  407e71:	89 c7                	mov    %eax,%edi
  407e73:	e8 88 a8 ff ff       	callq  402700 <tolower@plt>
  407e78:	83 e8 60             	sub    $0x60,%eax
  407e7b:	c9                   	leaveq 
  407e7c:	c3                   	retq   
  407e7d:	90                   	nop

0000000000407e7e <_ZNK7Lexicon9ordToCharEj>:
  407e7e:	55                   	push   %rbp
  407e7f:	48 89 e5             	mov    %rsp,%rbp
  407e82:	48 89 7d f8          	mov    %rdi,-0x8(%rbp)
  407e86:	89 75 f4             	mov    %esi,-0xc(%rbp)
  407e89:	8b 45 f4             	mov    -0xc(%rbp),%eax
  407e8c:	83 c0 60             	add    $0x60,%eax
  407e8f:	5d                   	pop    %rbp
  407e90:	c3                   	retq   
  407e91:	90                   	nop

0000000000407e92 <_ZN3SetISsEaSERKS0_>:
  407e92:	55                   	push   %rbp
  407e93:	48 89 e5             	mov    %rsp,%rbp
  407e96:	48 83 ec 10          	sub    $0x10,%rsp
  407e9a:	48 89 7d f8          	mov    %rdi,-0x8(%rbp)
  407e9e:	48 89 75 f0          	mov    %rsi,-0x10(%rbp)
  407ea2:	48 8b 45 f0          	mov    -0x10(%rbp),%rax
  407ea6:	48 8d 50 08          	lea    0x8(%rax),%rdx
  407eaa:	48 8b 45 f8          	mov    -0x8(%rbp),%rax
  407eae:	48 83 c0 08          	add    $0x8,%rax
  407eb2:	48 89 d6             	mov    %rdx,%rsi
  407eb5:	48 89 c7             	mov    %rax,%rdi
  407eb8:	e8 81 05 00 00       	callq  40843e <_ZN3MapISsbEaSERKS0_>
  407ebd:	48 8b 45 f0          	mov    -0x10(%rbp),%rax
  407ec1:	0f b6 50 30          	movzbl 0x30(%rax),%edx
  407ec5:	48 8b 45 f8          	mov    -0x8(%rbp),%rax
  407ec9:	88 50 30             	mov    %dl,0x30(%rax)
  407ecc:	48 8b 45 f8          	mov    -0x8(%rbp),%rax
  407ed0:	c9                   	leaveq 
  407ed1:	c3                   	retq   

0000000000407ed2 <_ZN5StackIPN7Lexicon4EdgeEEC1Ev>:
  407ed2:	55                   	push   %rbp
  407ed3:	48 89 e5             	mov    %rsp,%rbp
  407ed6:	48 83 ec 10          	sub    $0x10,%rsp
  407eda:	48 89 7d f8          	mov    %rdi,-0x8(%rbp)
  407ede:	48 8b 45 f8          	mov    -0x8(%rbp),%rax
  407ee2:	48 c7 00 50 c6 40 00 	movq   $0x40c650,(%rax)
  407ee9:	48 8b 45 f8          	mov    -0x8(%rbp),%rax
  407eed:	48 83 c0 08          	add    $0x8,%rax
  407ef1:	48 89 c7             	mov    %rax,%rdi
  407ef4:	e8 c5 07 00 00       	callq  4086be <_ZN6VectorIPN7Lexicon4EdgeEEC1Ev>
  407ef9:	c9                   	leaveq 
  407efa:	c3                   	retq   
  407efb:	90                   	nop

0000000000407efc <_ZN5StackIPN7Lexicon4EdgeEED1Ev>:
  407efc:	55                   	push   %rbp
  407efd:	48 89 e5             	mov    %rsp,%rbp
  407f00:	48 83 ec 10          	sub    $0x10,%rsp
  407f04:	48 89 7d f8          	mov    %rdi,-0x8(%rbp)
  407f08:	48 8b 45 f8          	mov    -0x8(%rbp),%rax
  407f0c:	48 c7 00 50 c6 40 00 	movq   $0x40c650,(%rax)
  407f13:	48 8b 45 f8          	mov    -0x8(%rbp),%rax
  407f17:	48 83 c0 08          	add    $0x8,%rax
  407f1b:	48 89 c7             	mov    %rax,%rdi
  407f1e:	e8 d5 07 00 00       	callq  4086f8 <_ZN6VectorIPN7Lexicon4EdgeEED1Ev>
  407f23:	b8 00 00 00 00       	mov    $0x0,%eax
  407f28:	85 c0                	test   %eax,%eax
  407f2a:	74 0c                	je     407f38 <_ZN5StackIPN7Lexicon4EdgeEED1Ev+0x3c>
  407f2c:	48 8b 45 f8          	mov    -0x8(%rbp),%rax
  407f30:	48 89 c7             	mov    %rax,%rdi
  407f33:	e8 28 a5 ff ff       	callq  402460 <_ZdlPv@plt>
  407f38:	c9                   	leaveq 
  407f39:	c3                   	retq   

0000000000407f3a <_ZN5StackIPN7Lexicon4EdgeEED0Ev>:
  407f3a:	55                   	push   %rbp
  407f3b:	48 89 e5             	mov    %rsp,%rbp
  407f3e:	48 83 ec 10          	sub    $0x10,%rsp
  407f42:	48 89 7d f8          	mov    %rdi,-0x8(%rbp)
  407f46:	48 8b 45 f8          	mov    -0x8(%rbp),%rax
  407f4a:	48 89 c7             	mov    %rax,%rdi
  407f4d:	e8 aa ff ff ff       	callq  407efc <_ZN5StackIPN7Lexicon4EdgeEED1Ev>
  407f52:	48 8b 45 f8          	mov    -0x8(%rbp),%rax
  407f56:	48 89 c7             	mov    %rax,%rdi
  407f59:	e8 02 a5 ff ff       	callq  402460 <_ZdlPv@plt>
  407f5e:	c9                   	leaveq 
  407f5f:	c3                   	retq   

0000000000407f60 <_ZN3SetISsE8iteratorC1Ev>:
  407f60:	55                   	push   %rbp
  407f61:	48 89 e5             	mov    %rsp,%rbp
  407f64:	48 83 ec 10          	sub    $0x10,%rsp
  407f68:	48 89 7d f8          	mov    %rdi,-0x8(%rbp)
  407f6c:	48 8b 45 f8          	mov    -0x8(%rbp),%rax
  407f70:	48 89 c7             	mov    %rax,%rdi
  407f73:	e8 46 f8 ff ff       	callq  4077be <_ZNSt8iteratorISt18input_iterator_tagSslPSsRSsEC1Ev>
  407f78:	48 8b 45 f8          	mov    -0x8(%rbp),%rax
  407f7c:	48 83 c0 08          	add    $0x8,%rax
  407f80:	48 89 c7             	mov    %rax,%rdi
  407f83:	e8 ee 07 00 00       	callq  408776 <_ZN3MapISsbE8iteratorC1Ev>
  407f88:	c9                   	leaveq 
  407f89:	c3                   	retq   

0000000000407f8a <_ZN5StackIN3MapISsbE8iterator10NodeMarkerEED1Ev>:
  407f8a:	55                   	push   %rbp
  407f8b:	48 89 e5             	mov    %rsp,%rbp
  407f8e:	48 83 ec 10          	sub    $0x10,%rsp
  407f92:	48 89 7d f8          	mov    %rdi,-0x8(%rbp)
  407f96:	48 8b 45 f8          	mov    -0x8(%rbp),%rax
  407f9a:	48 c7 00 10 c6 40 00 	movq   $0x40c610,(%rax)
  407fa1:	48 8b 45 f8          	mov    -0x8(%rbp),%rax
  407fa5:	48 83 c0 08          	add    $0x8,%rax
  407fa9:	48 89 c7             	mov    %rax,%rdi
  407fac:	e8 ef 07 00 00       	callq  4087a0 <_ZN6VectorIN3MapISsbE8iterator10NodeMarkerEED1Ev>
  407fb1:	b8 00 00 00 00       	mov    $0x0,%eax
  407fb6:	85 c0                	test   %eax,%eax
  407fb8:	74 0c                	je     407fc6 <_ZN5StackIN3MapISsbE8iterator10NodeMarkerEED1Ev+0x3c>
  407fba:	48 8b 45 f8          	mov    -0x8(%rbp),%rax
  407fbe:	48 89 c7             	mov    %rax,%rdi
  407fc1:	e8 9a a4 ff ff       	callq  402460 <_ZdlPv@plt>
  407fc6:	c9                   	leaveq 
  407fc7:	c3                   	retq   

0000000000407fc8 <_ZN5StackIN3MapISsbE8iterator10NodeMarkerEED0Ev>:
  407fc8:	55                   	push   %rbp
  407fc9:	48 89 e5             	mov    %rsp,%rbp
  407fcc:	48 83 ec 10          	sub    $0x10,%rsp
  407fd0:	48 89 7d f8          	mov    %rdi,-0x8(%rbp)
  407fd4:	48 8b 45 f8          	mov    -0x8(%rbp),%rax
  407fd8:	48 89 c7             	mov    %rax,%rdi
  407fdb:	e8 aa ff ff ff       	callq  407f8a <_ZN5StackIN3MapISsbE8iterator10NodeMarkerEED1Ev>
  407fe0:	48 8b 45 f8          	mov    -0x8(%rbp),%rax
  407fe4:	48 89 c7             	mov    %rax,%rdi
  407fe7:	e8 74 a4 ff ff       	callq  402460 <_ZdlPv@plt>
  407fec:	c9                   	leaveq 
  407fed:	c3                   	retq   

0000000000407fee <_ZNK3SetISsE5beginEv>:
  407fee:	55                   	push   %rbp
  407fef:	48 89 e5             	mov    %rsp,%rbp
  407ff2:	53                   	push   %rbx
  407ff3:	48 83 ec 48          	sub    $0x48,%rsp
  407ff7:	48 89 7d b8          	mov    %rdi,-0x48(%rbp)
  407ffb:	48 89 75 b0          	mov    %rsi,-0x50(%rbp)
  407fff:	48 8b 45 b0          	mov    -0x50(%rbp),%rax
  408003:	48 8d 50 08          	lea    0x8(%rax),%rdx
  408007:	48 8d 45 c0          	lea    -0x40(%rbp),%rax
  40800b:	48 89 d6             	mov    %rdx,%rsi
  40800e:	48 89 c7             	mov    %rax,%rdi
  408011:	e8 08 08 00 00       	callq  40881e <_ZNK3MapISsbE5beginEv>
  408016:	48 8d 55 c0          	lea    -0x40(%rbp),%rdx
  40801a:	48 8b 45 b8          	mov    -0x48(%rbp),%rax
  40801e:	48 89 d6             	mov    %rdx,%rsi
  408021:	48 89 c7             	mov    %rax,%rdi
  408024:	e8 af 08 00 00       	callq  4088d8 <_ZN3SetISsE8iteratorC1EN3MapISsbE8iteratorE>
  408029:	48 8d 45 c0          	lea    -0x40(%rbp),%rax
  40802d:	48 89 c7             	mov    %rax,%rdi
  408030:	e8 93 f7 ff ff       	callq  4077c8 <_ZN3MapISsbE8iteratorD1Ev>
  408035:	eb 1a                	jmp    408051 <_ZNK3SetISsE5beginEv+0x63>
  408037:	48 89 c3             	mov    %rax,%rbx
  40803a:	48 8d 45 c0          	lea    -0x40(%rbp),%rax
  40803e:	48 89 c7             	mov    %rax,%rdi
  408041:	e8 82 f7 ff ff       	callq  4077c8 <_ZN3MapISsbE8iteratorD1Ev>
  408046:	48 89 d8             	mov    %rbx,%rax
  408049:	48 89 c7             	mov    %rax,%rdi
  40804c:	e8 7f a8 ff ff       	callq  4028d0 <_Unwind_Resume@plt>
  408051:	48 8b 45 b8          	mov    -0x48(%rbp),%rax
  408055:	48 83 c4 48          	add    $0x48,%rsp
  408059:	5b                   	pop    %rbx
  40805a:	5d                   	pop    %rbp
  40805b:	c3                   	retq   

000000000040805c <_ZN6VectorIN3MapISsbE8iterator10NodeMarkerEEaSERKS4_>:
  40805c:	55                   	push   %rbp
  40805d:	48 89 e5             	mov    %rsp,%rbp
  408060:	48 83 ec 10          	sub    $0x10,%rsp
  408064:	48 89 7d f8          	mov    %rdi,-0x8(%rbp)
  408068:	48 89 75 f0          	mov    %rsi,-0x10(%rbp)
  40806c:	48 8b 45 f8          	mov    -0x8(%rbp),%rax
  408070:	48 3b 45 f0          	cmp    -0x10(%rbp),%rax
  408074:	74 3d                	je     4080b3 <_ZN6VectorIN3MapISsbE8iterator10NodeMarkerEEaSERKS4_+0x57>
  408076:	48 8b 45 f8          	mov    -0x8(%rbp),%rax
  40807a:	48 8b 40 08          	mov    0x8(%rax),%rax
  40807e:	48 85 c0             	test   %rax,%rax
  408081:	74 1d                	je     4080a0 <_ZN6VectorIN3MapISsbE8iterator10NodeMarkerEEaSERKS4_+0x44>
  408083:	48 8b 45 f8          	mov    -0x8(%rbp),%rax
  408087:	48 8b 40 08          	mov    0x8(%rax),%rax
  40808b:	48 85 c0             	test   %rax,%rax
  40808e:	74 10                	je     4080a0 <_ZN6VectorIN3MapISsbE8iterator10NodeMarkerEEaSERKS4_+0x44>
  408090:	48 8b 45 f8          	mov    -0x8(%rbp),%rax
  408094:	48 8b 40 08          	mov    0x8(%rax),%rax
  408098:	48 89 c7             	mov    %rax,%rdi
  40809b:	e8 e0 a6 ff ff       	callq  402780 <_ZdaPv@plt>
  4080a0:	48 8b 55 f0          	mov    -0x10(%rbp),%rdx
  4080a4:	48 8b 45 f8          	mov    -0x8(%rbp),%rax
  4080a8:	48 89 d6             	mov    %rdx,%rsi
  4080ab:	48 89 c7             	mov    %rax,%rdi
  4080ae:	e8 5b 08 00 00       	callq  40890e <_ZN6VectorIN3MapISsbE8iterator10NodeMarkerEE8deepCopyERKS4_>
  4080b3:	48 8b 45 f8          	mov    -0x8(%rbp),%rax
  4080b7:	c9                   	leaveq 
  4080b8:	c3                   	retq   
  4080b9:	90                   	nop

00000000004080ba <_ZNK3SetISsE3endEv>:
  4080ba:	55                   	push   %rbp
  4080bb:	48 89 e5             	mov    %rsp,%rbp
  4080be:	53                   	push   %rbx
  4080bf:	48 83 ec 48          	sub    $0x48,%rsp
  4080c3:	48 89 7d b8          	mov    %rdi,-0x48(%rbp)
  4080c7:	48 89 75 b0          	mov    %rsi,-0x50(%rbp)
  4080cb:	48 8b 45 b0          	mov    -0x50(%rbp),%rax
  4080cf:	48 8d 50 08          	lea    0x8(%rax),%rdx
  4080d3:	48 8d 45 c0          	lea    -0x40(%rbp),%rax
  4080d7:	48 89 d6             	mov    %rdx,%rsi
  4080da:	48 89 c7             	mov    %rax,%rdi
  4080dd:	e8 f4 08 00 00       	callq  4089d6 <_ZNK3MapISsbE3endEv>
  4080e2:	48 8d 55 c0          	lea    -0x40(%rbp),%rdx
  4080e6:	48 8b 45 b8          	mov    -0x48(%rbp),%rax
  4080ea:	48 89 d6             	mov    %rdx,%rsi
  4080ed:	48 89 c7             	mov    %rax,%rdi
  4080f0:	e8 e3 07 00 00       	callq  4088d8 <_ZN3SetISsE8iteratorC1EN3MapISsbE8iteratorE>
  4080f5:	48 8d 45 c0          	lea    -0x40(%rbp),%rax
  4080f9:	48 89 c7             	mov    %rax,%rdi
  4080fc:	e8 c7 f6 ff ff       	callq  4077c8 <_ZN3MapISsbE8iteratorD1Ev>
  408101:	eb 1a                	jmp    40811d <_ZNK3SetISsE3endEv+0x63>
  408103:	48 89 c3             	mov    %rax,%rbx
  408106:	48 8d 45 c0          	lea    -0x40(%rbp),%rax
  40810a:	48 89 c7             	mov    %rax,%rdi
  40810d:	e8 b6 f6 ff ff       	callq  4077c8 <_ZN3MapISsbE8iteratorD1Ev>
  408112:	48 89 d8             	mov    %rbx,%rax
  408115:	48 89 c7             	mov    %rax,%rdi
  408118:	e8 b3 a7 ff ff       	callq  4028d0 <_Unwind_Resume@plt>
  40811d:	48 8b 45 b8          	mov    -0x48(%rbp),%rax
  408121:	48 83 c4 48          	add    $0x48,%rsp
  408125:	5b                   	pop    %rbx
  408126:	5d                   	pop    %rbp
  408127:	c3                   	retq   

0000000000408128 <_ZStltIcSt11char_traitsIcESaIcEEbRKSbIT_T0_T1_ES8_>:
  408128:	55                   	push   %rbp
  408129:	48 89 e5             	mov    %rsp,%rbp
  40812c:	48 83 ec 10          	sub    $0x10,%rsp
  408130:	48 89 7d f8          	mov    %rdi,-0x8(%rbp)
  408134:	48 89 75 f0          	mov    %rsi,-0x10(%rbp)
  408138:	48 8b 55 f0          	mov    -0x10(%rbp),%rdx
  40813c:	48 8b 45 f8          	mov    -0x8(%rbp),%rax
  408140:	48 89 d6             	mov    %rdx,%rsi
  408143:	48 89 c7             	mov    %rax,%rdi
  408146:	e8 b5 a3 ff ff       	callq  402500 <_ZNKSs7compareERKSs@plt>
  40814b:	c1 e8 1f             	shr    $0x1f,%eax
  40814e:	c9                   	leaveq 
  40814f:	c3                   	retq   

0000000000408150 <_ZStplIcSt11char_traitsIcESaIcEESbIT_T0_T1_ERKS6_S3_>:
  408150:	55                   	push   %rbp
  408151:	48 89 e5             	mov    %rsp,%rbp
  408154:	53                   	push   %rbx
  408155:	48 83 ec 28          	sub    $0x28,%rsp
  408159:	48 89 7d e8          	mov    %rdi,-0x18(%rbp)
  40815d:	48 89 75 e0          	mov    %rsi,-0x20(%rbp)
  408161:	89 d0                	mov    %edx,%eax
  408163:	88 45 dc             	mov    %al,-0x24(%rbp)
  408166:	48 8b 55 e0          	mov    -0x20(%rbp),%rdx
  40816a:	48 8b 45 e8          	mov    -0x18(%rbp),%rax
  40816e:	48 89 d6             	mov    %rdx,%rsi
  408171:	48 89 c7             	mov    %rax,%rdi
  408174:	e8 97 a3 ff ff       	callq  402510 <_ZNSsC1ERKSs@plt>
  408179:	0f be 55 dc          	movsbl -0x24(%rbp),%edx
  40817d:	48 8b 45 e8          	mov    -0x18(%rbp),%rax
  408181:	be 01 00 00 00       	mov    $0x1,%esi
  408186:	48 89 c7             	mov    %rax,%rdi
  408189:	e8 62 a4 ff ff       	callq  4025f0 <_ZNSs6appendEmc@plt>
  40818e:	eb 1a                	jmp    4081aa <_ZStplIcSt11char_traitsIcESaIcEESbIT_T0_T1_ERKS6_S3_+0x5a>
  408190:	48 89 c3             	mov    %rax,%rbx
  408193:	48 8b 45 e8          	mov    -0x18(%rbp),%rax
  408197:	48 89 c7             	mov    %rax,%rdi
  40819a:	e8 01 a4 ff ff       	callq  4025a0 <_ZNSsD1Ev@plt>
  40819f:	48 89 d8             	mov    %rbx,%rax
  4081a2:	48 89 c7             	mov    %rax,%rdi
  4081a5:	e8 26 a7 ff ff       	callq  4028d0 <_Unwind_Resume@plt>
  4081aa:	48 8b 45 e8          	mov    -0x18(%rbp),%rax
  4081ae:	48 83 c4 28          	add    $0x28,%rsp
  4081b2:	5b                   	pop    %rbx
  4081b3:	5d                   	pop    %rbp
  4081b4:	c3                   	retq   
  4081b5:	90                   	nop

00000000004081b6 <_ZN3SetISsEC1Ev>:
  4081b6:	55                   	push   %rbp
  4081b7:	48 89 e5             	mov    %rsp,%rbp
  4081ba:	48 83 ec 10          	sub    $0x10,%rsp
  4081be:	48 89 7d f8          	mov    %rdi,-0x8(%rbp)
  4081c2:	48 8b 45 f8          	mov    -0x8(%rbp),%rax
  4081c6:	48 c7 00 90 c6 40 00 	movq   $0x40c690,(%rax)
  4081cd:	48 8b 45 f8          	mov    -0x8(%rbp),%rax
  4081d1:	48 83 c0 08          	add    $0x8,%rax
  4081d5:	48 89 c7             	mov    %rax,%rdi
  4081d8:	e8 27 08 00 00       	callq  408a04 <_ZN3MapISsbEC1Ev>
  4081dd:	c9                   	leaveq 
  4081de:	c3                   	retq   
  4081df:	90                   	nop

00000000004081e0 <_ZN3SetISsED1Ev>:
  4081e0:	55                   	push   %rbp
  4081e1:	48 89 e5             	mov    %rsp,%rbp
  4081e4:	48 83 ec 10          	sub    $0x10,%rsp
  4081e8:	48 89 7d f8          	mov    %rdi,-0x8(%rbp)
  4081ec:	48 8b 45 f8          	mov    -0x8(%rbp),%rax
  4081f0:	48 c7 00 90 c6 40 00 	movq   $0x40c690,(%rax)
  4081f7:	48 8b 45 f8          	mov    -0x8(%rbp),%rax
  4081fb:	48 83 c0 08          	add    $0x8,%rax
  4081ff:	48 89 c7             	mov    %rax,%rdi
  408202:	e8 73 08 00 00       	callq  408a7a <_ZN3MapISsbED1Ev>
  408207:	b8 00 00 00 00       	mov    $0x0,%eax
  40820c:	85 c0                	test   %eax,%eax
  40820e:	74 0c                	je     40821c <_ZN3SetISsED1Ev+0x3c>
  408210:	48 8b 45 f8          	mov    -0x8(%rbp),%rax
  408214:	48 89 c7             	mov    %rax,%rdi
  408217:	e8 44 a2 ff ff       	callq  402460 <_ZdlPv@plt>
  40821c:	c9                   	leaveq 
  40821d:	c3                   	retq   

000000000040821e <_ZN3SetISsED0Ev>:
  40821e:	55                   	push   %rbp
  40821f:	48 89 e5             	mov    %rsp,%rbp
  408222:	48 83 ec 10          	sub    $0x10,%rsp
  408226:	48 89 7d f8          	mov    %rdi,-0x8(%rbp)
  40822a:	48 8b 45 f8          	mov    -0x8(%rbp),%rax
  40822e:	48 89 c7             	mov    %rax,%rdi
  408231:	e8 aa ff ff ff       	callq  4081e0 <_ZN3SetISsED1Ev>
  408236:	48 8b 45 f8          	mov    -0x8(%rbp),%rax
  40823a:	48 89 c7             	mov    %rax,%rdi
  40823d:	e8 1e a2 ff ff       	callq  402460 <_ZdlPv@plt>
  408242:	c9                   	leaveq 
  408243:	c3                   	retq   

0000000000408244 <_ZStplIcSt11char_traitsIcESaIcEESbIT_T0_T1_EPKS3_RKS6_>:
  408244:	55                   	push   %rbp
  408245:	48 89 e5             	mov    %rsp,%rbp
  408248:	53                   	push   %rbx
  408249:	48 83 ec 38          	sub    $0x38,%rsp
  40824d:	48 89 7d d8          	mov    %rdi,-0x28(%rbp)
  408251:	48 89 75 d0          	mov    %rsi,-0x30(%rbp)
  408255:	48 89 55 c8          	mov    %rdx,-0x38(%rbp)
  408259:	48 8b 45 d0          	mov    -0x30(%rbp),%rax
  40825d:	48 89 c7             	mov    %rax,%rdi
  408260:	e8 6b f4 ff ff       	callq  4076d0 <_ZNSt11char_traitsIcE6lengthEPKc>
  408265:	48 89 45 e8          	mov    %rax,-0x18(%rbp)
  408269:	48 8b 45 d8          	mov    -0x28(%rbp),%rax
  40826d:	48 89 c7             	mov    %rax,%rdi
  408270:	e8 2b a1 ff ff       	callq  4023a0 <_ZNSsC1Ev@plt>
  408275:	48 8b 45 c8          	mov    -0x38(%rbp),%rax
  408279:	48 89 c7             	mov    %rax,%rdi
  40827c:	e8 1f a2 ff ff       	callq  4024a0 <_ZNKSs4sizeEv@plt>
  408281:	48 8b 55 e8          	mov    -0x18(%rbp),%rdx
  408285:	48 01 c2             	add    %rax,%rdx
  408288:	48 8b 45 d8          	mov    -0x28(%rbp),%rax
  40828c:	48 89 d6             	mov    %rdx,%rsi
  40828f:	48 89 c7             	mov    %rax,%rdi
  408292:	e8 d9 a1 ff ff       	callq  402470 <_ZNSs7reserveEm@plt>
  408297:	48 8b 55 e8          	mov    -0x18(%rbp),%rdx
  40829b:	48 8b 4d d0          	mov    -0x30(%rbp),%rcx
  40829f:	48 8b 45 d8          	mov    -0x28(%rbp),%rax
  4082a3:	48 89 ce             	mov    %rcx,%rsi
  4082a6:	48 89 c7             	mov    %rax,%rdi
  4082a9:	e8 a2 a0 ff ff       	callq  402350 <_ZNSs6appendEPKcm@plt>
  4082ae:	48 8b 55 c8          	mov    -0x38(%rbp),%rdx
  4082b2:	48 8b 45 d8          	mov    -0x28(%rbp),%rax
  4082b6:	48 89 d6             	mov    %rdx,%rsi
  4082b9:	48 89 c7             	mov    %rax,%rdi
  4082bc:	e8 4f a6 ff ff       	callq  402910 <_ZNSs6appendERKSs@plt>
  4082c1:	eb 1a                	jmp    4082dd <_ZStplIcSt11char_traitsIcESaIcEESbIT_T0_T1_EPKS3_RKS6_+0x99>
  4082c3:	48 89 c3             	mov    %rax,%rbx
  4082c6:	48 8b 45 d8          	mov    -0x28(%rbp),%rax
  4082ca:	48 89 c7             	mov    %rax,%rdi
  4082cd:	e8 ce a2 ff ff       	callq  4025a0 <_ZNSsD1Ev@plt>
  4082d2:	48 89 d8             	mov    %rbx,%rax
  4082d5:	48 89 c7             	mov    %rax,%rdi
  4082d8:	e8 f3 a5 ff ff       	callq  4028d0 <_Unwind_Resume@plt>
  4082dd:	48 8b 45 d8          	mov    -0x28(%rbp),%rax
  4082e1:	48 83 c4 38          	add    $0x38,%rsp
  4082e5:	5b                   	pop    %rbx
  4082e6:	5d                   	pop    %rbp
  4082e7:	c3                   	retq   

00000000004082e8 <_ZNK3SetISsE4sizeEv>:
  4082e8:	55                   	push   %rbp
  4082e9:	48 89 e5             	mov    %rsp,%rbp
  4082ec:	48 83 ec 10          	sub    $0x10,%rsp
  4082f0:	48 89 7d f8          	mov    %rdi,-0x8(%rbp)
  4082f4:	48 8b 45 f8          	mov    -0x8(%rbp),%rax
  4082f8:	48 83 c0 08          	add    $0x8,%rax
  4082fc:	48 89 c7             	mov    %rax,%rdi
  4082ff:	e8 1a 08 00 00       	callq  408b1e <_ZNK3MapISsbE4sizeEv>
  408304:	c9                   	leaveq 
  408305:	c3                   	retq   

0000000000408306 <_ZNSt4fposI11__mbstate_tEC1El>:
  408306:	55                   	push   %rbp
  408307:	48 89 e5             	mov    %rsp,%rbp
  40830a:	48 89 7d f8          	mov    %rdi,-0x8(%rbp)
  40830e:	48 89 75 f0          	mov    %rsi,-0x10(%rbp)
  408312:	48 8b 45 f8          	mov    -0x8(%rbp),%rax
  408316:	48 8b 55 f0          	mov    -0x10(%rbp),%rdx
  40831a:	48 89 10             	mov    %rdx,(%rax)
  40831d:	48 8b 45 f8          	mov    -0x8(%rbp),%rax
  408321:	c7 40 08 00 00 00 00 	movl   $0x0,0x8(%rax)
  408328:	48 8b 45 f8          	mov    -0x8(%rbp),%rax
  40832c:	c7 40 0c 00 00 00 00 	movl   $0x0,0xc(%rax)
  408333:	5d                   	pop    %rbp
  408334:	c3                   	retq   
  408335:	90                   	nop

0000000000408336 <_ZN3SetISsE5clearEv>:
  408336:	55                   	push   %rbp
  408337:	48 89 e5             	mov    %rsp,%rbp
  40833a:	48 83 ec 10          	sub    $0x10,%rsp
  40833e:	48 89 7d f8          	mov    %rdi,-0x8(%rbp)
  408342:	48 8b 45 f8          	mov    -0x8(%rbp),%rax
  408346:	48 83 c0 08          	add    $0x8,%rax
  40834a:	48 89 c7             	mov    %rax,%rdi
  40834d:	e8 de 07 00 00       	callq  408b30 <_ZN3MapISsbE5clearEv>
  408352:	c9                   	leaveq 
  408353:	c3                   	retq   

0000000000408354 <_ZN3_fe4InitI3SetISsEEEPNS_6CRangeIT_EERNS_5StateERKS4_>:
  408354:	55                   	push   %rbp
  408355:	48 89 e5             	mov    %rsp,%rbp
  408358:	41 54                	push   %r12
  40835a:	53                   	push   %rbx
  40835b:	48 83 ec 10          	sub    $0x10,%rsp
  40835f:	48 89 7d e8          	mov    %rdi,-0x18(%rbp)
  408363:	48 89 75 e0          	mov    %rsi,-0x20(%rbp)
  408367:	bf b0 00 00 00       	mov    $0xb0,%edi
  40836c:	e8 4f a5 ff ff       	callq  4028c0 <_Znwm@plt>
  408371:	48 89 c3             	mov    %rax,%rbx
  408374:	48 8b 45 e0          	mov    -0x20(%rbp),%rax
  408378:	48 89 c6             	mov    %rax,%rsi
  40837b:	48 89 df             	mov    %rbx,%rdi
  40837e:	e8 47 08 00 00       	callq  408bca <_ZN3_fe6CRangeI3SetISsEEC1ERKS2_>
  408383:	48 8b 45 e8          	mov    -0x18(%rbp),%rax
  408387:	48 89 58 08          	mov    %rbx,0x8(%rax)
  40838b:	48 8b 45 e8          	mov    -0x18(%rbp),%rax
  40838f:	48 8b 40 08          	mov    0x8(%rax),%rax
  408393:	eb 16                	jmp    4083ab <_ZN3_fe4InitI3SetISsEEEPNS_6CRangeIT_EERNS_5StateERKS4_+0x57>
  408395:	49 89 c4             	mov    %rax,%r12
  408398:	48 89 df             	mov    %rbx,%rdi
  40839b:	e8 c0 a0 ff ff       	callq  402460 <_ZdlPv@plt>
  4083a0:	4c 89 e0             	mov    %r12,%rax
  4083a3:	48 89 c7             	mov    %rax,%rdi
  4083a6:	e8 25 a5 ff ff       	callq  4028d0 <_Unwind_Resume@plt>
  4083ab:	48 83 c4 10          	add    $0x10,%rsp
  4083af:	5b                   	pop    %rbx
  4083b0:	41 5c                	pop    %r12
  4083b2:	5d                   	pop    %rbp
  4083b3:	c3                   	retq   

00000000004083b4 <_ZN3_fe4HookI3SetISsEEENSt15iterator_traitsINT_8iteratorEE10value_typeERNS_5StateEPNS_6CRangeIS4_EE>:
  4083b4:	55                   	push   %rbp
  4083b5:	48 89 e5             	mov    %rsp,%rbp
  4083b8:	48 83 ec 20          	sub    $0x20,%rsp
  4083bc:	48 89 7d f8          	mov    %rdi,-0x8(%rbp)
  4083c0:	48 89 75 f0          	mov    %rsi,-0x10(%rbp)
  4083c4:	48 89 55 e8          	mov    %rdx,-0x18(%rbp)
  4083c8:	48 8b 45 f8          	mov    -0x8(%rbp),%rax
  4083cc:	48 8b 55 f0          	mov    -0x10(%rbp),%rdx
  4083d0:	48 89 d6             	mov    %rdx,%rsi
  4083d3:	48 89 c7             	mov    %rax,%rdi
  4083d6:	e8 b1 08 00 00       	callq  408c8c <_ZN3_fe8HookImplINS_6CRangeI3SetISsEEESsEET0_RNS_5StateE>
  4083db:	48 8b 45 f8          	mov    -0x8(%rbp),%rax
  4083df:	c9                   	leaveq 
  4083e0:	c3                   	retq   
  4083e1:	90                   	nop

00000000004083e2 <_ZNK3SetISsE8containsERKSs>:
  4083e2:	55                   	push   %rbp
  4083e3:	48 89 e5             	mov    %rsp,%rbp
  4083e6:	48 83 ec 10          	sub    $0x10,%rsp
  4083ea:	48 89 7d f8          	mov    %rdi,-0x8(%rbp)
  4083ee:	48 89 75 f0          	mov    %rsi,-0x10(%rbp)
  4083f2:	48 8b 45 f8          	mov    -0x8(%rbp),%rax
  4083f6:	48 8d 50 08          	lea    0x8(%rax),%rdx
  4083fa:	48 8b 45 f0          	mov    -0x10(%rbp),%rax
  4083fe:	48 89 c6             	mov    %rax,%rsi
  408401:	48 89 d7             	mov    %rdx,%rdi
  408404:	e8 4f 09 00 00       	callq  408d58 <_ZNK3MapISsbE11containsKeyERKSs>
  408409:	c9                   	leaveq 
  40840a:	c3                   	retq   
  40840b:	90                   	nop

000000000040840c <_ZN3SetISsE3addERKSs>:
  40840c:	55                   	push   %rbp
  40840d:	48 89 e5             	mov    %rsp,%rbp
  408410:	48 83 ec 20          	sub    $0x20,%rsp
  408414:	48 89 7d e8          	mov    %rdi,-0x18(%rbp)
  408418:	48 89 75 e0          	mov    %rsi,-0x20(%rbp)
  40841c:	c6 45 ff 01          	movb   $0x1,-0x1(%rbp)
  408420:	48 8b 45 e8          	mov    -0x18(%rbp),%rax
  408424:	48 8d 48 08          	lea    0x8(%rax),%rcx
  408428:	48 8d 55 ff          	lea    -0x1(%rbp),%rdx
  40842c:	48 8b 45 e0          	mov    -0x20(%rbp),%rax
  408430:	48 89 c6             	mov    %rax,%rsi
  408433:	48 89 cf             	mov    %rcx,%rdi
  408436:	e8 51 09 00 00       	callq  408d8c <_ZN3MapISsbE3putERKSsRKb>
  40843b:	c9                   	leaveq 
  40843c:	c3                   	retq   
  40843d:	90                   	nop

000000000040843e <_ZN3MapISsbEaSERKS0_>:
  40843e:	55                   	push   %rbp
  40843f:	48 89 e5             	mov    %rsp,%rbp
  408442:	48 83 ec 10          	sub    $0x10,%rsp
  408446:	48 89 7d f8          	mov    %rdi,-0x8(%rbp)
  40844a:	48 89 75 f0          	mov    %rsi,-0x10(%rbp)
  40844e:	48 8b 45 f8          	mov    -0x8(%rbp),%rax
  408452:	48 3b 45 f0          	cmp    -0x10(%rbp),%rax
  408456:	74 1f                	je     408477 <_ZN3MapISsbEaSERKS0_+0x39>
  408458:	48 8b 45 f8          	mov    -0x8(%rbp),%rax
  40845c:	48 89 c7             	mov    %rax,%rdi
  40845f:	e8 cc 06 00 00       	callq  408b30 <_ZN3MapISsbE5clearEv>
  408464:	48 8b 55 f0          	mov    -0x10(%rbp),%rdx
  408468:	48 8b 45 f8          	mov    -0x8(%rbp),%rax
  40846c:	48 89 d6             	mov    %rdx,%rsi
  40846f:	48 89 c7             	mov    %rax,%rdi
  408472:	e8 51 09 00 00       	callq  408dc8 <_ZN3MapISsbE8deepCopyERKS0_>
  408477:	48 8b 45 f8          	mov    -0x8(%rbp),%rax
  40847b:	c9                   	leaveq 
  40847c:	c3                   	retq   

000000000040847d <_ZN3_fe4InitI7LexiconEEPNS_6CRangeIT_EERNS_5StateERKS3_>:
  40847d:	55                   	push   %rbp
  40847e:	48 89 e5             	mov    %rsp,%rbp
  408481:	41 54                	push   %r12
  408483:	53                   	push   %rbx
  408484:	48 83 ec 10          	sub    $0x10,%rsp
  408488:	48 89 7d e8          	mov    %rdi,-0x18(%rbp)
  40848c:	48 89 75 e0          	mov    %rsi,-0x20(%rbp)
  408490:	bf e0 01 00 00       	mov    $0x1e0,%edi
  408495:	e8 26 a4 ff ff       	callq  4028c0 <_Znwm@plt>
  40849a:	48 89 c3             	mov    %rax,%rbx
  40849d:	48 8b 45 e0          	mov    -0x20(%rbp),%rax
  4084a1:	48 89 c6             	mov    %rax,%rsi
  4084a4:	48 89 df             	mov    %rbx,%rdi
  4084a7:	e8 96 09 00 00       	callq  408e42 <_ZN3_fe6CRangeI7LexiconEC1ERKS1_>
  4084ac:	48 8b 45 e8          	mov    -0x18(%rbp),%rax
  4084b0:	48 89 58 08          	mov    %rbx,0x8(%rax)
  4084b4:	48 8b 45 e8          	mov    -0x18(%rbp),%rax
  4084b8:	48 8b 40 08          	mov    0x8(%rax),%rax
  4084bc:	eb 16                	jmp    4084d4 <_ZN3_fe4InitI7LexiconEEPNS_6CRangeIT_EERNS_5StateERKS3_+0x57>
  4084be:	49 89 c4             	mov    %rax,%r12
  4084c1:	48 89 df             	mov    %rbx,%rdi
  4084c4:	e8 97 9f ff ff       	callq  402460 <_ZdlPv@plt>
  4084c9:	4c 89 e0             	mov    %r12,%rax
  4084cc:	48 89 c7             	mov    %rax,%rdi
  4084cf:	e8 fc a3 ff ff       	callq  4028d0 <_Unwind_Resume@plt>
  4084d4:	48 83 c4 10          	add    $0x10,%rsp
  4084d8:	5b                   	pop    %rbx
  4084d9:	41 5c                	pop    %r12
  4084db:	5d                   	pop    %rbp
  4084dc:	c3                   	retq   

00000000004084dd <_ZN3_fe4HookI7LexiconEENSt15iterator_traitsINT_8iteratorEE10value_typeERNS_5StateEPNS_6CRangeIS3_EE>:
  4084dd:	55                   	push   %rbp
  4084de:	48 89 e5             	mov    %rsp,%rbp
  4084e1:	48 83 ec 20          	sub    $0x20,%rsp
  4084e5:	48 89 7d f8          	mov    %rdi,-0x8(%rbp)
  4084e9:	48 89 75 f0          	mov    %rsi,-0x10(%rbp)
  4084ed:	48 89 55 e8          	mov    %rdx,-0x18(%rbp)
  4084f1:	48 8b 45 f8          	mov    -0x8(%rbp),%rax
  4084f5:	48 8b 55 f0          	mov    -0x10(%rbp),%rdx
  4084f9:	48 89 d6             	mov    %rdx,%rsi
  4084fc:	48 89 c7             	mov    %rax,%rdi
  4084ff:	e8 02 0a 00 00       	callq  408f06 <_ZN3_fe8HookImplINS_6CRangeI7LexiconEESsEET0_RNS_5StateE>
  408504:	48 8b 45 f8          	mov    -0x8(%rbp),%rax
  408508:	c9                   	leaveq 
  408509:	c3                   	retq   

000000000040850a <_ZN3SetISsE8iteratoreqERKS1_>:
  40850a:	55                   	push   %rbp
  40850b:	48 89 e5             	mov    %rsp,%rbp
  40850e:	48 83 ec 10          	sub    $0x10,%rsp
  408512:	48 89 7d f8          	mov    %rdi,-0x8(%rbp)
  408516:	48 89 75 f0          	mov    %rsi,-0x10(%rbp)
  40851a:	48 8b 45 f0          	mov    -0x10(%rbp),%rax
  40851e:	48 8d 50 08          	lea    0x8(%rax),%rdx
  408522:	48 8b 45 f8          	mov    -0x8(%rbp),%rax
  408526:	48 83 c0 08          	add    $0x8,%rax
  40852a:	48 89 d6             	mov    %rdx,%rsi
  40852d:	48 89 c7             	mov    %rax,%rdi
  408530:	e8 a1 0a 00 00       	callq  408fd6 <_ZN3MapISsbE8iteratoreqERKS1_>
  408535:	c9                   	leaveq 
  408536:	c3                   	retq   
  408537:	90                   	nop

0000000000408538 <_ZN3SetISsE8iteratordeEv>:
  408538:	55                   	push   %rbp
  408539:	48 89 e5             	mov    %rsp,%rbp
  40853c:	48 83 ec 10          	sub    $0x10,%rsp
  408540:	48 89 7d f8          	mov    %rdi,-0x8(%rbp)
  408544:	48 89 75 f0          	mov    %rsi,-0x10(%rbp)
  408548:	48 8b 45 f0          	mov    -0x10(%rbp),%rax
  40854c:	48 8d 50 08          	lea    0x8(%rax),%rdx
  408550:	48 8b 45 f8          	mov    -0x8(%rbp),%rax
  408554:	48 89 d6             	mov    %rdx,%rsi
  408557:	48 89 c7             	mov    %rax,%rdi
  40855a:	e8 b7 0a 00 00       	callq  409016 <_ZN3MapISsbE8iteratordeEv>
  40855f:	48 8b 45 f8          	mov    -0x8(%rbp),%rax
  408563:	c9                   	leaveq 
  408564:	c3                   	retq   
  408565:	90                   	nop

0000000000408566 <_ZN3SetISsE8iteratorppEv>:
  408566:	55                   	push   %rbp
  408567:	48 89 e5             	mov    %rsp,%rbp
  40856a:	48 83 ec 10          	sub    $0x10,%rsp
  40856e:	48 89 7d f8          	mov    %rdi,-0x8(%rbp)
  408572:	48 8b 45 f8          	mov    -0x8(%rbp),%rax
  408576:	48 83 c0 08          	add    $0x8,%rax
  40857a:	48 89 c7             	mov    %rax,%rdi
  40857d:	e8 cc 0a 00 00       	callq  40904e <_ZN3MapISsbE8iteratorppEv>
  408582:	48 8b 45 f8          	mov    -0x8(%rbp),%rax
  408586:	c9                   	leaveq 
  408587:	c3                   	retq   

0000000000408588 <_ZNK5StackIPN7Lexicon4EdgeEE7isEmptyEv>:
  408588:	55                   	push   %rbp
  408589:	48 89 e5             	mov    %rsp,%rbp
  40858c:	48 83 ec 10          	sub    $0x10,%rsp
  408590:	48 89 7d f8          	mov    %rdi,-0x8(%rbp)
  408594:	48 8b 45 f8          	mov    -0x8(%rbp),%rax
  408598:	48 89 c7             	mov    %rax,%rdi
  40859b:	e8 ac 0b 00 00       	callq  40914c <_ZNK5StackIPN7Lexicon4EdgeEE4sizeEv>
  4085a0:	85 c0                	test   %eax,%eax
  4085a2:	0f 94 c0             	sete   %al
  4085a5:	c9                   	leaveq 
  4085a6:	c3                   	retq   
  4085a7:	90                   	nop

00000000004085a8 <_ZN5StackIPN7Lexicon4EdgeEE3popEv>:
  4085a8:	55                   	push   %rbp
  4085a9:	48 89 e5             	mov    %rsp,%rbp
  4085ac:	53                   	push   %rbx
  4085ad:	48 83 ec 38          	sub    $0x38,%rsp
  4085b1:	48 89 7d c8          	mov    %rdi,-0x38(%rbp)
  4085b5:	48 8b 45 c8          	mov    -0x38(%rbp),%rax
  4085b9:	48 89 c7             	mov    %rax,%rdi
  4085bc:	e8 c7 ff ff ff       	callq  408588 <_ZNK5StackIPN7Lexicon4EdgeEE7isEmptyEv>
  4085c1:	84 c0                	test   %al,%al
  4085c3:	74 45                	je     40860a <_ZN5StackIPN7Lexicon4EdgeEE3popEv+0x62>
  4085c5:	48 8d 45 df          	lea    -0x21(%rbp),%rax
  4085c9:	48 89 c7             	mov    %rax,%rdi
  4085cc:	e8 9f a2 ff ff       	callq  402870 <_ZNSaIcEC1Ev@plt>
  4085d1:	48 8d 55 df          	lea    -0x21(%rbp),%rdx
  4085d5:	48 8d 45 e0          	lea    -0x20(%rbp),%rax
  4085d9:	be 28 c4 40 00       	mov    $0x40c428,%esi
  4085de:	48 89 c7             	mov    %rax,%rdi
  4085e1:	e8 3a a0 ff ff       	callq  402620 <_ZNSsC1EPKcRKSaIcE@plt>
  4085e6:	48 8d 45 e0          	lea    -0x20(%rbp),%rax
  4085ea:	48 89 c7             	mov    %rax,%rdi
  4085ed:	e8 a3 3b 00 00       	callq  40c195 <_Z5errorSs>
  4085f2:	48 8d 45 e0          	lea    -0x20(%rbp),%rax
  4085f6:	48 89 c7             	mov    %rax,%rdi
  4085f9:	e8 a2 9f ff ff       	callq  4025a0 <_ZNSsD1Ev@plt>
  4085fe:	48 8d 45 df          	lea    -0x21(%rbp),%rax
  408602:	48 89 c7             	mov    %rax,%rdi
  408605:	e8 26 a1 ff ff       	callq  402730 <_ZNSaIcED1Ev@plt>
  40860a:	48 8b 45 c8          	mov    -0x38(%rbp),%rax
  40860e:	48 83 c0 08          	add    $0x8,%rax
  408612:	48 89 c7             	mov    %rax,%rdi
  408615:	e8 50 0b 00 00       	callq  40916a <_ZNK6VectorIPN7Lexicon4EdgeEE4sizeEv>
  40861a:	8d 50 ff             	lea    -0x1(%rax),%edx
  40861d:	48 8b 45 c8          	mov    -0x38(%rbp),%rax
  408621:	48 83 c0 08          	add    $0x8,%rax
  408625:	89 d6                	mov    %edx,%esi
  408627:	48 89 c7             	mov    %rax,%rdi
  40862a:	e8 4d 0b 00 00       	callq  40917c <_ZN6VectorIPN7Lexicon4EdgeEEixEi>
  40862f:	48 8b 00             	mov    (%rax),%rax
  408632:	48 89 45 e8          	mov    %rax,-0x18(%rbp)
  408636:	48 8b 45 c8          	mov    -0x38(%rbp),%rax
  40863a:	48 83 c0 08          	add    $0x8,%rax
  40863e:	48 89 c7             	mov    %rax,%rdi
  408641:	e8 24 0b 00 00       	callq  40916a <_ZNK6VectorIPN7Lexicon4EdgeEE4sizeEv>
  408646:	8d 50 ff             	lea    -0x1(%rax),%edx
  408649:	48 8b 45 c8          	mov    -0x38(%rbp),%rax
  40864d:	48 83 c0 08          	add    $0x8,%rax
  408651:	89 d6                	mov    %edx,%esi
  408653:	48 89 c7             	mov    %rax,%rdi
  408656:	e8 d1 0b 00 00       	callq  40922c <_ZN6VectorIPN7Lexicon4EdgeEE6removeEi>
  40865b:	48 8b 45 e8          	mov    -0x18(%rbp),%rax
  40865f:	eb 2b                	jmp    40868c <_ZN5StackIPN7Lexicon4EdgeEE3popEv+0xe4>
  408661:	48 89 c3             	mov    %rax,%rbx
  408664:	48 8d 45 e0          	lea    -0x20(%rbp),%rax
  408668:	48 89 c7             	mov    %rax,%rdi
  40866b:	e8 30 9f ff ff       	callq  4025a0 <_ZNSsD1Ev@plt>
  408670:	eb 03                	jmp    408675 <_ZN5StackIPN7Lexicon4EdgeEE3popEv+0xcd>
  408672:	48 89 c3             	mov    %rax,%rbx
  408675:	48 8d 45 df          	lea    -0x21(%rbp),%rax
  408679:	48 89 c7             	mov    %rax,%rdi
  40867c:	e8 af a0 ff ff       	callq  402730 <_ZNSaIcED1Ev@plt>
  408681:	48 89 d8             	mov    %rbx,%rax
  408684:	48 89 c7             	mov    %rax,%rdi
  408687:	e8 44 a2 ff ff       	callq  4028d0 <_Unwind_Resume@plt>
  40868c:	48 83 c4 38          	add    $0x38,%rsp
  408690:	5b                   	pop    %rbx
  408691:	5d                   	pop    %rbp
  408692:	c3                   	retq   
  408693:	90                   	nop

0000000000408694 <_ZN5StackIPN7Lexicon4EdgeEE4pushES2_>:
  408694:	55                   	push   %rbp
  408695:	48 89 e5             	mov    %rsp,%rbp
  408698:	48 83 ec 10          	sub    $0x10,%rsp
  40869c:	48 89 7d f8          	mov    %rdi,-0x8(%rbp)
  4086a0:	48 89 75 f0          	mov    %rsi,-0x10(%rbp)
  4086a4:	48 8b 45 f8          	mov    -0x8(%rbp),%rax
  4086a8:	48 8d 50 08          	lea    0x8(%rax),%rdx
  4086ac:	48 8b 45 f0          	mov    -0x10(%rbp),%rax
  4086b0:	48 89 c6             	mov    %rax,%rsi
  4086b3:	48 89 d7             	mov    %rdx,%rdi
  4086b6:	e8 6d 0c 00 00       	callq  409328 <_ZN6VectorIPN7Lexicon4EdgeEE3addES2_>
  4086bb:	c9                   	leaveq 
  4086bc:	c3                   	retq   
  4086bd:	90                   	nop

00000000004086be <_ZN6VectorIPN7Lexicon4EdgeEEC1Ev>:
  4086be:	55                   	push   %rbp
  4086bf:	48 89 e5             	mov    %rsp,%rbp
  4086c2:	48 89 7d f8          	mov    %rdi,-0x8(%rbp)
  4086c6:	48 8b 45 f8          	mov    -0x8(%rbp),%rax
  4086ca:	48 c7 00 70 c6 40 00 	movq   $0x40c670,(%rax)
  4086d1:	48 8b 45 f8          	mov    -0x8(%rbp),%rax
  4086d5:	c7 40 10 00 00 00 00 	movl   $0x0,0x10(%rax)
  4086dc:	48 8b 45 f8          	mov    -0x8(%rbp),%rax
  4086e0:	8b 50 10             	mov    0x10(%rax),%edx
  4086e3:	48 8b 45 f8          	mov    -0x8(%rbp),%rax
  4086e7:	89 50 14             	mov    %edx,0x14(%rax)
  4086ea:	48 8b 45 f8          	mov    -0x8(%rbp),%rax
  4086ee:	48 c7 40 08 00 00 00 	movq   $0x0,0x8(%rax)
  4086f5:	00 
  4086f6:	5d                   	pop    %rbp
  4086f7:	c3                   	retq   

00000000004086f8 <_ZN6VectorIPN7Lexicon4EdgeEED1Ev>:
  4086f8:	55                   	push   %rbp
  4086f9:	48 89 e5             	mov    %rsp,%rbp
  4086fc:	48 83 ec 10          	sub    $0x10,%rsp
  408700:	48 89 7d f8          	mov    %rdi,-0x8(%rbp)
  408704:	48 8b 45 f8          	mov    -0x8(%rbp),%rax
  408708:	48 c7 00 70 c6 40 00 	movq   $0x40c670,(%rax)
  40870f:	48 8b 45 f8          	mov    -0x8(%rbp),%rax
  408713:	48 8b 40 08          	mov    0x8(%rax),%rax
  408717:	48 85 c0             	test   %rax,%rax
  40871a:	74 1d                	je     408739 <_ZN6VectorIPN7Lexicon4EdgeEED1Ev+0x41>
  40871c:	48 8b 45 f8          	mov    -0x8(%rbp),%rax
  408720:	48 8b 40 08          	mov    0x8(%rax),%rax
  408724:	48 85 c0             	test   %rax,%rax
  408727:	74 10                	je     408739 <_ZN6VectorIPN7Lexicon4EdgeEED1Ev+0x41>
  408729:	48 8b 45 f8          	mov    -0x8(%rbp),%rax
  40872d:	48 8b 40 08          	mov    0x8(%rax),%rax
  408731:	48 89 c7             	mov    %rax,%rdi
  408734:	e8 47 a0 ff ff       	callq  402780 <_ZdaPv@plt>
  408739:	b8 00 00 00 00       	mov    $0x0,%eax
  40873e:	85 c0                	test   %eax,%eax
  408740:	74 0c                	je     40874e <_ZN6VectorIPN7Lexicon4EdgeEED1Ev+0x56>
  408742:	48 8b 45 f8          	mov    -0x8(%rbp),%rax
  408746:	48 89 c7             	mov    %rax,%rdi
  408749:	e8 12 9d ff ff       	callq  402460 <_ZdlPv@plt>
  40874e:	c9                   	leaveq 
  40874f:	c3                   	retq   

0000000000408750 <_ZN6VectorIPN7Lexicon4EdgeEED0Ev>:
  408750:	55                   	push   %rbp
  408751:	48 89 e5             	mov    %rsp,%rbp
  408754:	48 83 ec 10          	sub    $0x10,%rsp
  408758:	48 89 7d f8          	mov    %rdi,-0x8(%rbp)
  40875c:	48 8b 45 f8          	mov    -0x8(%rbp),%rax
  408760:	48 89 c7             	mov    %rax,%rdi
  408763:	e8 90 ff ff ff       	callq  4086f8 <_ZN6VectorIPN7Lexicon4EdgeEED1Ev>
  408768:	48 8b 45 f8          	mov    -0x8(%rbp),%rax
  40876c:	48 89 c7             	mov    %rax,%rdi
  40876f:	e8 ec 9c ff ff       	callq  402460 <_ZdlPv@plt>
  408774:	c9                   	leaveq 
  408775:	c3                   	retq   

0000000000408776 <_ZN3MapISsbE8iteratorC1Ev>:
  408776:	55                   	push   %rbp
  408777:	48 89 e5             	mov    %rsp,%rbp
  40877a:	48 83 ec 10          	sub    $0x10,%rsp
  40877e:	48 89 7d f8          	mov    %rdi,-0x8(%rbp)
  408782:	48 8b 45 f8          	mov    -0x8(%rbp),%rax
  408786:	48 89 c7             	mov    %rax,%rdi
  408789:	e8 30 f0 ff ff       	callq  4077be <_ZNSt8iteratorISt18input_iterator_tagSslPSsRSsEC1Ev>
  40878e:	48 8b 45 f8          	mov    -0x8(%rbp),%rax
  408792:	48 83 c0 10          	add    $0x10,%rax
  408796:	48 89 c7             	mov    %rax,%rdi
  408799:	e8 b6 0b 00 00       	callq  409354 <_ZN5StackIN3MapISsbE8iterator10NodeMarkerEEC1Ev>
  40879e:	c9                   	leaveq 
  40879f:	c3                   	retq   

00000000004087a0 <_ZN6VectorIN3MapISsbE8iterator10NodeMarkerEED1Ev>:
  4087a0:	55                   	push   %rbp
  4087a1:	48 89 e5             	mov    %rsp,%rbp
  4087a4:	48 83 ec 10          	sub    $0x10,%rsp
  4087a8:	48 89 7d f8          	mov    %rdi,-0x8(%rbp)
  4087ac:	48 8b 45 f8          	mov    -0x8(%rbp),%rax
  4087b0:	48 c7 00 30 c6 40 00 	movq   $0x40c630,(%rax)
  4087b7:	48 8b 45 f8          	mov    -0x8(%rbp),%rax
  4087bb:	48 8b 40 08          	mov    0x8(%rax),%rax
  4087bf:	48 85 c0             	test   %rax,%rax
  4087c2:	74 1d                	je     4087e1 <_ZN6VectorIN3MapISsbE8iterator10NodeMarkerEED1Ev+0x41>
  4087c4:	48 8b 45 f8          	mov    -0x8(%rbp),%rax
  4087c8:	48 8b 40 08          	mov    0x8(%rax),%rax
  4087cc:	48 85 c0             	test   %rax,%rax
  4087cf:	74 10                	je     4087e1 <_ZN6VectorIN3MapISsbE8iterator10NodeMarkerEED1Ev+0x41>
  4087d1:	48 8b 45 f8          	mov    -0x8(%rbp),%rax
  4087d5:	48 8b 40 08          	mov    0x8(%rax),%rax
  4087d9:	48 89 c7             	mov    %rax,%rdi
  4087dc:	e8 9f 9f ff ff       	callq  402780 <_ZdaPv@plt>
  4087e1:	b8 00 00 00 00       	mov    $0x0,%eax
  4087e6:	85 c0                	test   %eax,%eax
  4087e8:	74 0c                	je     4087f6 <_ZN6VectorIN3MapISsbE8iterator10NodeMarkerEED1Ev+0x56>
  4087ea:	48 8b 45 f8          	mov    -0x8(%rbp),%rax
  4087ee:	48 89 c7             	mov    %rax,%rdi
  4087f1:	e8 6a 9c ff ff       	callq  402460 <_ZdlPv@plt>
  4087f6:	c9                   	leaveq 
  4087f7:	c3                   	retq   

00000000004087f8 <_ZN6VectorIN3MapISsbE8iterator10NodeMarkerEED0Ev>:
  4087f8:	55                   	push   %rbp
  4087f9:	48 89 e5             	mov    %rsp,%rbp
  4087fc:	48 83 ec 10          	sub    $0x10,%rsp
  408800:	48 89 7d f8          	mov    %rdi,-0x8(%rbp)
  408804:	48 8b 45 f8          	mov    -0x8(%rbp),%rax
  408808:	48 89 c7             	mov    %rax,%rdi
  40880b:	e8 90 ff ff ff       	callq  4087a0 <_ZN6VectorIN3MapISsbE8iterator10NodeMarkerEED1Ev>
  408810:	48 8b 45 f8          	mov    -0x8(%rbp),%rax
  408814:	48 89 c7             	mov    %rax,%rdi
  408817:	e8 44 9c ff ff       	callq  402460 <_ZdlPv@plt>
  40881c:	c9                   	leaveq 
  40881d:	c3                   	retq   

000000000040881e <_ZNK3MapISsbE5beginEv>:
  40881e:	55                   	push   %rbp
  40881f:	48 89 e5             	mov    %rsp,%rbp
  408822:	48 83 ec 10          	sub    $0x10,%rsp
  408826:	48 89 7d f8          	mov    %rdi,-0x8(%rbp)
  40882a:	48 89 75 f0          	mov    %rsi,-0x10(%rbp)
  40882e:	48 8b 4d f0          	mov    -0x10(%rbp),%rcx
  408832:	48 8b 45 f8          	mov    -0x8(%rbp),%rax
  408836:	ba 00 00 00 00       	mov    $0x0,%edx
  40883b:	48 89 ce             	mov    %rcx,%rsi
  40883e:	48 89 c7             	mov    %rax,%rdi
  408841:	e8 38 0b 00 00       	callq  40937e <_ZN3MapISsbE8iteratorC1EPKS0_b>
  408846:	48 8b 45 f8          	mov    -0x8(%rbp),%rax
  40884a:	c9                   	leaveq 
  40884b:	c3                   	retq   

000000000040884c <_ZN3MapISsbE8iteratorC1ERKS1_>:
  40884c:	55                   	push   %rbp
  40884d:	48 89 e5             	mov    %rsp,%rbp
  408850:	53                   	push   %rbx
  408851:	48 83 ec 18          	sub    $0x18,%rsp
  408855:	48 89 7d e8          	mov    %rdi,-0x18(%rbp)
  408859:	48 89 75 e0          	mov    %rsi,-0x20(%rbp)
  40885d:	48 8b 45 e8          	mov    -0x18(%rbp),%rax
  408861:	48 89 c7             	mov    %rax,%rdi
  408864:	e8 55 ef ff ff       	callq  4077be <_ZNSt8iteratorISt18input_iterator_tagSslPSsRSsEC1Ev>
  408869:	48 8b 45 e8          	mov    -0x18(%rbp),%rax
  40886d:	48 83 c0 10          	add    $0x10,%rax
  408871:	48 89 c7             	mov    %rax,%rdi
  408874:	e8 db 0a 00 00       	callq  409354 <_ZN5StackIN3MapISsbE8iterator10NodeMarkerEEC1Ev>
  408879:	48 8b 45 e0          	mov    -0x20(%rbp),%rax
  40887d:	48 8b 10             	mov    (%rax),%rdx
  408880:	48 8b 45 e8          	mov    -0x18(%rbp),%rax
  408884:	48 89 10             	mov    %rdx,(%rax)
  408887:	48 8b 45 e0          	mov    -0x20(%rbp),%rax
  40888b:	8b 50 08             	mov    0x8(%rax),%edx
  40888e:	48 8b 45 e8          	mov    -0x18(%rbp),%rax
  408892:	89 50 08             	mov    %edx,0x8(%rax)
  408895:	48 8b 45 e0          	mov    -0x20(%rbp),%rax
  408899:	48 8d 50 10          	lea    0x10(%rax),%rdx
  40889d:	48 8b 45 e8          	mov    -0x18(%rbp),%rax
  4088a1:	48 83 c0 10          	add    $0x10,%rax
  4088a5:	48 89 d6             	mov    %rdx,%rsi
  4088a8:	48 89 c7             	mov    %rax,%rdi
  4088ab:	e8 54 ef ff ff       	callq  407804 <_ZN5StackIN3MapISsbE8iterator10NodeMarkerEEaSERKS4_>
  4088b0:	eb 1e                	jmp    4088d0 <_ZN3MapISsbE8iteratorC1ERKS1_+0x84>
  4088b2:	48 89 c3             	mov    %rax,%rbx
  4088b5:	48 8b 45 e8          	mov    -0x18(%rbp),%rax
  4088b9:	48 83 c0 10          	add    $0x10,%rax
  4088bd:	48 89 c7             	mov    %rax,%rdi
  4088c0:	e8 c5 f6 ff ff       	callq  407f8a <_ZN5StackIN3MapISsbE8iterator10NodeMarkerEED1Ev>
  4088c5:	48 89 d8             	mov    %rbx,%rax
  4088c8:	48 89 c7             	mov    %rax,%rdi
  4088cb:	e8 00 a0 ff ff       	callq  4028d0 <_Unwind_Resume@plt>
  4088d0:	48 83 c4 18          	add    $0x18,%rsp
  4088d4:	5b                   	pop    %rbx
  4088d5:	5d                   	pop    %rbp
  4088d6:	c3                   	retq   
  4088d7:	90                   	nop

00000000004088d8 <_ZN3SetISsE8iteratorC1EN3MapISsbE8iteratorE>:
  4088d8:	55                   	push   %rbp
  4088d9:	48 89 e5             	mov    %rsp,%rbp
  4088dc:	48 83 ec 10          	sub    $0x10,%rsp
  4088e0:	48 89 7d f8          	mov    %rdi,-0x8(%rbp)
  4088e4:	48 89 75 f0          	mov    %rsi,-0x10(%rbp)
  4088e8:	48 8b 45 f8          	mov    -0x8(%rbp),%rax
  4088ec:	48 89 c7             	mov    %rax,%rdi
  4088ef:	e8 ca ee ff ff       	callq  4077be <_ZNSt8iteratorISt18input_iterator_tagSslPSsRSsEC1Ev>
  4088f4:	48 8b 45 f8          	mov    -0x8(%rbp),%rax
  4088f8:	48 8d 50 08          	lea    0x8(%rax),%rdx
  4088fc:	48 8b 45 f0          	mov    -0x10(%rbp),%rax
  408900:	48 89 c6             	mov    %rax,%rsi
  408903:	48 89 d7             	mov    %rdx,%rdi
  408906:	e8 41 ff ff ff       	callq  40884c <_ZN3MapISsbE8iteratorC1ERKS1_>
  40890b:	c9                   	leaveq 
  40890c:	c3                   	retq   
  40890d:	90                   	nop

000000000040890e <_ZN6VectorIN3MapISsbE8iterator10NodeMarkerEE8deepCopyERKS4_>:
  40890e:	55                   	push   %rbp
  40890f:	48 89 e5             	mov    %rsp,%rbp
  408912:	48 83 ec 20          	sub    $0x20,%rsp
  408916:	48 89 7d e8          	mov    %rdi,-0x18(%rbp)
  40891a:	48 89 75 e0          	mov    %rsi,-0x20(%rbp)
  40891e:	48 8b 45 e0          	mov    -0x20(%rbp),%rax
  408922:	8b 50 14             	mov    0x14(%rax),%edx
  408925:	48 8b 45 e8          	mov    -0x18(%rbp),%rax
  408929:	89 50 10             	mov    %edx,0x10(%rax)
  40892c:	48 8b 45 e8          	mov    -0x18(%rbp),%rax
  408930:	8b 50 10             	mov    0x10(%rax),%edx
  408933:	48 8b 45 e8          	mov    -0x18(%rbp),%rax
  408937:	89 50 14             	mov    %edx,0x14(%rax)
  40893a:	48 8b 45 e8          	mov    -0x18(%rbp),%rax
  40893e:	8b 40 10             	mov    0x10(%rax),%eax
  408941:	85 c0                	test   %eax,%eax
  408943:	74 2f                	je     408974 <_ZN6VectorIN3MapISsbE8iterator10NodeMarkerEE8deepCopyERKS4_+0x66>
  408945:	48 8b 45 e8          	mov    -0x18(%rbp),%rax
  408949:	8b 40 10             	mov    0x10(%rax),%eax
  40894c:	48 98                	cltq   
  40894e:	48 ba 00 00 00 00 00 	movabs $0x7f0000000000000,%rdx
  408955:	00 f0 07 
  408958:	48 39 d0             	cmp    %rdx,%rax
  40895b:	77 06                	ja     408963 <_ZN6VectorIN3MapISsbE8iterator10NodeMarkerEE8deepCopyERKS4_+0x55>
  40895d:	48 c1 e0 04          	shl    $0x4,%rax
  408961:	eb 07                	jmp    40896a <_ZN6VectorIN3MapISsbE8iterator10NodeMarkerEE8deepCopyERKS4_+0x5c>
  408963:	48 c7 c0 ff ff ff ff 	mov    $0xffffffffffffffff,%rax
  40896a:	48 89 c7             	mov    %rax,%rdi
  40896d:	e8 de 9a ff ff       	callq  402450 <_Znam@plt>
  408972:	eb 05                	jmp    408979 <_ZN6VectorIN3MapISsbE8iterator10NodeMarkerEE8deepCopyERKS4_+0x6b>
  408974:	b8 00 00 00 00       	mov    $0x0,%eax
  408979:	48 8b 55 e8          	mov    -0x18(%rbp),%rdx
  40897d:	48 89 42 08          	mov    %rax,0x8(%rdx)
  408981:	c7 45 fc 00 00 00 00 	movl   $0x0,-0x4(%rbp)
  408988:	eb 3d                	jmp    4089c7 <_ZN6VectorIN3MapISsbE8iterator10NodeMarkerEE8deepCopyERKS4_+0xb9>
  40898a:	48 8b 45 e8          	mov    -0x18(%rbp),%rax
  40898e:	48 8b 40 08          	mov    0x8(%rax),%rax
  408992:	8b 55 fc             	mov    -0x4(%rbp),%edx
  408995:	48 63 d2             	movslq %edx,%rdx
  408998:	48 c1 e2 04          	shl    $0x4,%rdx
  40899c:	48 8d 0c 10          	lea    (%rax,%rdx,1),%rcx
  4089a0:	48 8b 45 e0          	mov    -0x20(%rbp),%rax
  4089a4:	48 8b 40 08          	mov    0x8(%rax),%rax
  4089a8:	8b 55 fc             	mov    -0x4(%rbp),%edx
  4089ab:	48 63 d2             	movslq %edx,%rdx
  4089ae:	48 c1 e2 04          	shl    $0x4,%rdx
  4089b2:	48 01 d0             	add    %rdx,%rax
  4089b5:	48 8b 50 08          	mov    0x8(%rax),%rdx
  4089b9:	48 8b 00             	mov    (%rax),%rax
  4089bc:	48 89 01             	mov    %rax,(%rcx)
  4089bf:	48 89 51 08          	mov    %rdx,0x8(%rcx)
  4089c3:	83 45 fc 01          	addl   $0x1,-0x4(%rbp)
  4089c7:	48 8b 45 e8          	mov    -0x18(%rbp),%rax
  4089cb:	8b 40 14             	mov    0x14(%rax),%eax
  4089ce:	3b 45 fc             	cmp    -0x4(%rbp),%eax
  4089d1:	7f b7                	jg     40898a <_ZN6VectorIN3MapISsbE8iterator10NodeMarkerEE8deepCopyERKS4_+0x7c>
  4089d3:	c9                   	leaveq 
  4089d4:	c3                   	retq   
  4089d5:	90                   	nop

00000000004089d6 <_ZNK3MapISsbE3endEv>:
  4089d6:	55                   	push   %rbp
  4089d7:	48 89 e5             	mov    %rsp,%rbp
  4089da:	48 83 ec 10          	sub    $0x10,%rsp
  4089de:	48 89 7d f8          	mov    %rdi,-0x8(%rbp)
  4089e2:	48 89 75 f0          	mov    %rsi,-0x10(%rbp)
  4089e6:	48 8b 4d f0          	mov    -0x10(%rbp),%rcx
  4089ea:	48 8b 45 f8          	mov    -0x8(%rbp),%rax
  4089ee:	ba 01 00 00 00       	mov    $0x1,%edx
  4089f3:	48 89 ce             	mov    %rcx,%rsi
  4089f6:	48 89 c7             	mov    %rax,%rdi
  4089f9:	e8 80 09 00 00       	callq  40937e <_ZN3MapISsbE8iteratorC1EPKS0_b>
  4089fe:	48 8b 45 f8          	mov    -0x8(%rbp),%rax
  408a02:	c9                   	leaveq 
  408a03:	c3                   	retq   

0000000000408a04 <_ZN3MapISsbEC1Ev>:
  408a04:	55                   	push   %rbp
  408a05:	48 89 e5             	mov    %rsp,%rbp
  408a08:	41 54                	push   %r12
  408a0a:	53                   	push   %rbx
  408a0b:	48 83 ec 20          	sub    $0x20,%rsp
  408a0f:	48 89 7d d8          	mov    %rdi,-0x28(%rbp)
  408a13:	48 8b 45 d8          	mov    -0x28(%rbp),%rax
  408a17:	48 c7 00 b0 c6 40 00 	movq   $0x40c6b0,(%rax)
  408a1e:	48 8b 45 d8          	mov    -0x28(%rbp),%rax
  408a22:	48 c7 40 08 00 00 00 	movq   $0x0,0x8(%rax)
  408a29:	00 
  408a2a:	48 8b 45 d8          	mov    -0x28(%rbp),%rax
  408a2e:	c7 40 10 00 00 00 00 	movl   $0x0,0x10(%rax)
  408a35:	41 89 d4             	mov    %edx,%r12d
  408a38:	bf 10 00 00 00       	mov    $0x10,%edi
  408a3d:	e8 7e 9e ff ff       	callq  4028c0 <_Znwm@plt>
  408a42:	48 89 c3             	mov    %rax,%rbx
  408a45:	44 88 24 24          	mov    %r12b,(%rsp)
  408a49:	48 89 df             	mov    %rbx,%rdi
  408a4c:	e8 19 0a 00 00       	callq  40946a <_ZN3MapISsbE18TemplateComparatorISt4lessISsEEC1ES3_>
  408a51:	48 8b 45 d8          	mov    -0x28(%rbp),%rax
  408a55:	48 89 58 18          	mov    %rbx,0x18(%rax)
  408a59:	eb 16                	jmp    408a71 <_ZN3MapISsbEC1Ev+0x6d>
  408a5b:	49 89 c4             	mov    %rax,%r12
  408a5e:	48 89 df             	mov    %rbx,%rdi
  408a61:	e8 fa 99 ff ff       	callq  402460 <_ZdlPv@plt>
  408a66:	4c 89 e0             	mov    %r12,%rax
  408a69:	48 89 c7             	mov    %rax,%rdi
  408a6c:	e8 5f 9e ff ff       	callq  4028d0 <_Unwind_Resume@plt>
  408a71:	48 83 c4 20          	add    $0x20,%rsp
  408a75:	5b                   	pop    %rbx
  408a76:	41 5c                	pop    %r12
  408a78:	5d                   	pop    %rbp
  408a79:	c3                   	retq   

0000000000408a7a <_ZN3MapISsbED1Ev>:
  408a7a:	55                   	push   %rbp
  408a7b:	48 89 e5             	mov    %rsp,%rbp
  408a7e:	48 83 ec 10          	sub    $0x10,%rsp
  408a82:	48 89 7d f8          	mov    %rdi,-0x8(%rbp)
  408a86:	48 8b 45 f8          	mov    -0x8(%rbp),%rax
  408a8a:	48 c7 00 b0 c6 40 00 	movq   $0x40c6b0,(%rax)
  408a91:	48 8b 45 f8          	mov    -0x8(%rbp),%rax
  408a95:	48 8b 40 18          	mov    0x18(%rax),%rax
  408a99:	48 85 c0             	test   %rax,%rax
  408a9c:	74 2c                	je     408aca <_ZN3MapISsbED1Ev+0x50>
  408a9e:	48 8b 45 f8          	mov    -0x8(%rbp),%rax
  408aa2:	48 8b 40 18          	mov    0x18(%rax),%rax
  408aa6:	48 85 c0             	test   %rax,%rax
  408aa9:	74 1f                	je     408aca <_ZN3MapISsbED1Ev+0x50>
  408aab:	48 8b 45 f8          	mov    -0x8(%rbp),%rax
  408aaf:	48 8b 40 18          	mov    0x18(%rax),%rax
  408ab3:	48 8b 00             	mov    (%rax),%rax
  408ab6:	48 83 c0 08          	add    $0x8,%rax
  408aba:	48 8b 00             	mov    (%rax),%rax
  408abd:	48 8b 55 f8          	mov    -0x8(%rbp),%rdx
  408ac1:	48 8b 52 18          	mov    0x18(%rdx),%rdx
  408ac5:	48 89 d7             	mov    %rdx,%rdi
  408ac8:	ff d0                	callq  *%rax
  408aca:	48 8b 45 f8          	mov    -0x8(%rbp),%rax
  408ace:	48 8b 50 08          	mov    0x8(%rax),%rdx
  408ad2:	48 8b 45 f8          	mov    -0x8(%rbp),%rax
  408ad6:	48 89 d6             	mov    %rdx,%rsi
  408ad9:	48 89 c7             	mov    %rax,%rdi
  408adc:	e8 51 0a 00 00       	callq  409532 <_ZN3MapISsbE10deleteTreeEPNS0_7BSTNodeE>
  408ae1:	b8 00 00 00 00       	mov    $0x0,%eax
  408ae6:	85 c0                	test   %eax,%eax
  408ae8:	74 0c                	je     408af6 <_ZN3MapISsbED1Ev+0x7c>
  408aea:	48 8b 45 f8          	mov    -0x8(%rbp),%rax
  408aee:	48 89 c7             	mov    %rax,%rdi
  408af1:	e8 6a 99 ff ff       	callq  402460 <_ZdlPv@plt>
  408af6:	c9                   	leaveq 
  408af7:	c3                   	retq   

0000000000408af8 <_ZN3MapISsbED0Ev>:
  408af8:	55                   	push   %rbp
  408af9:	48 89 e5             	mov    %rsp,%rbp
  408afc:	48 83 ec 10          	sub    $0x10,%rsp
  408b00:	48 89 7d f8          	mov    %rdi,-0x8(%rbp)
  408b04:	48 8b 45 f8          	mov    -0x8(%rbp),%rax
  408b08:	48 89 c7             	mov    %rax,%rdi
  408b0b:	e8 6a ff ff ff       	callq  408a7a <_ZN3MapISsbED1Ev>
  408b10:	48 8b 45 f8          	mov    -0x8(%rbp),%rax
  408b14:	48 89 c7             	mov    %rax,%rdi
  408b17:	e8 44 99 ff ff       	callq  402460 <_ZdlPv@plt>
  408b1c:	c9                   	leaveq 
  408b1d:	c3                   	retq   

0000000000408b1e <_ZNK3MapISsbE4sizeEv>:
  408b1e:	55                   	push   %rbp
  408b1f:	48 89 e5             	mov    %rsp,%rbp
  408b22:	48 89 7d f8          	mov    %rdi,-0x8(%rbp)
  408b26:	48 8b 45 f8          	mov    -0x8(%rbp),%rax
  408b2a:	8b 40 10             	mov    0x10(%rax),%eax
  408b2d:	5d                   	pop    %rbp
  408b2e:	c3                   	retq   
  408b2f:	90                   	nop

0000000000408b30 <_ZN3MapISsbE5clearEv>:
  408b30:	55                   	push   %rbp
  408b31:	48 89 e5             	mov    %rsp,%rbp
  408b34:	48 83 ec 10          	sub    $0x10,%rsp
  408b38:	48 89 7d f8          	mov    %rdi,-0x8(%rbp)
  408b3c:	48 8b 45 f8          	mov    -0x8(%rbp),%rax
  408b40:	48 8b 50 08          	mov    0x8(%rax),%rdx
  408b44:	48 8b 45 f8          	mov    -0x8(%rbp),%rax
  408b48:	48 89 d6             	mov    %rdx,%rsi
  408b4b:	48 89 c7             	mov    %rax,%rdi
  408b4e:	e8 df 09 00 00       	callq  409532 <_ZN3MapISsbE10deleteTreeEPNS0_7BSTNodeE>
  408b53:	48 8b 45 f8          	mov    -0x8(%rbp),%rax
  408b57:	48 c7 40 08 00 00 00 	movq   $0x0,0x8(%rax)
  408b5e:	00 
  408b5f:	48 8b 45 f8          	mov    -0x8(%rbp),%rax
  408b63:	c7 40 10 00 00 00 00 	movl   $0x0,0x10(%rax)
  408b6a:	c9                   	leaveq 
  408b6b:	c3                   	retq   

0000000000408b6c <_ZN3_fe5RangeC1Ev>:
  408b6c:	55                   	push   %rbp
  408b6d:	48 89 e5             	mov    %rsp,%rbp
  408b70:	48 89 7d f8          	mov    %rdi,-0x8(%rbp)
  408b74:	48 8b 45 f8          	mov    -0x8(%rbp),%rax
  408b78:	48 c7 00 d0 c6 40 00 	movq   $0x40c6d0,(%rax)
  408b7f:	5d                   	pop    %rbp
  408b80:	c3                   	retq   
  408b81:	90                   	nop

0000000000408b82 <_ZN3SetISsEC1ERKS0_>:
  408b82:	55                   	push   %rbp
  408b83:	48 89 e5             	mov    %rsp,%rbp
  408b86:	48 83 ec 10          	sub    $0x10,%rsp
  408b8a:	48 89 7d f8          	mov    %rdi,-0x8(%rbp)
  408b8e:	48 89 75 f0          	mov    %rsi,-0x10(%rbp)
  408b92:	48 8b 45 f8          	mov    -0x8(%rbp),%rax
  408b96:	48 c7 00 90 c6 40 00 	movq   $0x40c690,(%rax)
  408b9d:	48 8b 45 f0          	mov    -0x10(%rbp),%rax
  408ba1:	48 8d 50 08          	lea    0x8(%rax),%rdx
  408ba5:	48 8b 45 f8          	mov    -0x8(%rbp),%rax
  408ba9:	48 83 c0 08          	add    $0x8,%rax
  408bad:	48 89 d6             	mov    %rdx,%rsi
  408bb0:	48 89 c7             	mov    %rax,%rdi
  408bb3:	e8 e0 09 00 00       	callq  409598 <_ZN3MapISsbEC1ERKS0_>
  408bb8:	48 8b 45 f0          	mov    -0x10(%rbp),%rax
  408bbc:	0f b6 50 30          	movzbl 0x30(%rax),%edx
  408bc0:	48 8b 45 f8          	mov    -0x8(%rbp),%rax
  408bc4:	88 50 30             	mov    %dl,0x30(%rax)
  408bc7:	c9                   	leaveq 
  408bc8:	c3                   	retq   
  408bc9:	90                   	nop

0000000000408bca <_ZN3_fe6CRangeI3SetISsEEC1ERKS2_>:
  408bca:	55                   	push   %rbp
  408bcb:	48 89 e5             	mov    %rsp,%rbp
  408bce:	53                   	push   %rbx
  408bcf:	48 83 ec 18          	sub    $0x18,%rsp
  408bd3:	48 89 7d e8          	mov    %rdi,-0x18(%rbp)
  408bd7:	48 89 75 e0          	mov    %rsi,-0x20(%rbp)
  408bdb:	48 8b 45 e8          	mov    -0x18(%rbp),%rax
  408bdf:	48 89 c7             	mov    %rax,%rdi
  408be2:	e8 85 ff ff ff       	callq  408b6c <_ZN3_fe5RangeC1Ev>
  408be7:	48 8b 45 e8          	mov    -0x18(%rbp),%rax
  408beb:	48 c7 00 b0 c5 40 00 	movq   $0x40c5b0,(%rax)
  408bf2:	48 8b 45 e8          	mov    -0x18(%rbp),%rax
  408bf6:	48 8d 50 08          	lea    0x8(%rax),%rdx
  408bfa:	48 8b 45 e0          	mov    -0x20(%rbp),%rax
  408bfe:	48 89 c6             	mov    %rax,%rsi
  408c01:	48 89 d7             	mov    %rdx,%rdi
  408c04:	e8 79 ff ff ff       	callq  408b82 <_ZN3SetISsEC1ERKS0_>
  408c09:	48 8b 45 e8          	mov    -0x18(%rbp),%rax
  408c0d:	48 8d 50 08          	lea    0x8(%rax),%rdx
  408c11:	48 8b 45 e8          	mov    -0x18(%rbp),%rax
  408c15:	48 83 c0 40          	add    $0x40,%rax
  408c19:	48 89 d6             	mov    %rdx,%rsi
  408c1c:	48 89 c7             	mov    %rax,%rdi
  408c1f:	e8 ca f3 ff ff       	callq  407fee <_ZNK3SetISsE5beginEv>
  408c24:	48 8b 45 e8          	mov    -0x18(%rbp),%rax
  408c28:	48 8d 50 08          	lea    0x8(%rax),%rdx
  408c2c:	48 8b 45 e8          	mov    -0x18(%rbp),%rax
  408c30:	48 83 c0 78          	add    $0x78,%rax
  408c34:	48 89 d6             	mov    %rdx,%rsi
  408c37:	48 89 c7             	mov    %rax,%rdi
  408c3a:	e8 7b f4 ff ff       	callq  4080ba <_ZNK3SetISsE3endEv>
  408c3f:	eb 44                	jmp    408c85 <_ZN3_fe6CRangeI3SetISsEEC1ERKS2_+0xbb>
  408c41:	48 89 c3             	mov    %rax,%rbx
  408c44:	48 8b 45 e8          	mov    -0x18(%rbp),%rax
  408c48:	48 83 c0 40          	add    $0x40,%rax
  408c4c:	48 89 c7             	mov    %rax,%rdi
  408c4f:	e8 92 eb ff ff       	callq  4077e6 <_ZN3SetISsE8iteratorD1Ev>
  408c54:	eb 03                	jmp    408c59 <_ZN3_fe6CRangeI3SetISsEEC1ERKS2_+0x8f>
  408c56:	48 89 c3             	mov    %rax,%rbx
  408c59:	48 8b 45 e8          	mov    -0x18(%rbp),%rax
  408c5d:	48 83 c0 08          	add    $0x8,%rax
  408c61:	48 89 c7             	mov    %rax,%rdi
  408c64:	e8 77 f5 ff ff       	callq  4081e0 <_ZN3SetISsED1Ev>
  408c69:	eb 03                	jmp    408c6e <_ZN3_fe6CRangeI3SetISsEEC1ERKS2_+0xa4>
  408c6b:	48 89 c3             	mov    %rax,%rbx
  408c6e:	48 8b 45 e8          	mov    -0x18(%rbp),%rax
  408c72:	48 89 c7             	mov    %rax,%rdi
  408c75:	e8 96 ea ff ff       	callq  407710 <_ZN3_fe5RangeD1Ev>
  408c7a:	48 89 d8             	mov    %rbx,%rax
  408c7d:	48 89 c7             	mov    %rax,%rdi
  408c80:	e8 4b 9c ff ff       	callq  4028d0 <_Unwind_Resume@plt>
  408c85:	48 83 c4 18          	add    $0x18,%rsp
  408c89:	5b                   	pop    %rbx
  408c8a:	5d                   	pop    %rbp
  408c8b:	c3                   	retq   

0000000000408c8c <_ZN3_fe8HookImplINS_6CRangeI3SetISsEEESsEET0_RNS_5StateE>:
  408c8c:	55                   	push   %rbp
  408c8d:	48 89 e5             	mov    %rsp,%rbp
  408c90:	53                   	push   %rbx
  408c91:	48 83 ec 28          	sub    $0x28,%rsp
  408c95:	48 89 7d d8          	mov    %rdi,-0x28(%rbp)
  408c99:	48 89 75 d0          	mov    %rsi,-0x30(%rbp)
  408c9d:	48 8b 45 d0          	mov    -0x30(%rbp),%rax
  408ca1:	48 8b 40 08          	mov    0x8(%rax),%rax
  408ca5:	48 89 45 e8          	mov    %rax,-0x18(%rbp)
  408ca9:	48 8b 45 e8          	mov    -0x18(%rbp),%rax
  408cad:	48 8d 50 78          	lea    0x78(%rax),%rdx
  408cb1:	48 8b 45 e8          	mov    -0x18(%rbp),%rax
  408cb5:	48 83 c0 40          	add    $0x40,%rax
  408cb9:	48 89 d6             	mov    %rdx,%rsi
  408cbc:	48 89 c7             	mov    %rax,%rdi
  408cbf:	e8 46 f8 ff ff       	callq  40850a <_ZN3SetISsE8iteratoreqERKS1_>
  408cc4:	84 c0                	test   %al,%al
  408cc6:	74 18                	je     408ce0 <_ZN3_fe8HookImplINS_6CRangeI3SetISsEEESsEET0_RNS_5StateE+0x54>
  408cc8:	48 8b 45 d0          	mov    -0x30(%rbp),%rax
  408ccc:	c7 00 02 00 00 00    	movl   $0x2,(%rax)
  408cd2:	48 8b 45 d8          	mov    -0x28(%rbp),%rax
  408cd6:	48 89 c7             	mov    %rax,%rdi
  408cd9:	e8 c2 96 ff ff       	callq  4023a0 <_ZNSsC1Ev@plt>
  408cde:	eb 6d                	jmp    408d4d <_ZN3_fe8HookImplINS_6CRangeI3SetISsEEESsEET0_RNS_5StateE+0xc1>
  408ce0:	48 8b 45 d0          	mov    -0x30(%rbp),%rax
  408ce4:	c7 00 01 00 00 00    	movl   $0x1,(%rax)
  408cea:	48 8b 45 e8          	mov    -0x18(%rbp),%rax
  408cee:	48 8d 50 40          	lea    0x40(%rax),%rdx
  408cf2:	48 8d 45 e0          	lea    -0x20(%rbp),%rax
  408cf6:	48 89 d6             	mov    %rdx,%rsi
  408cf9:	48 89 c7             	mov    %rax,%rdi
  408cfc:	e8 37 f8 ff ff       	callq  408538 <_ZN3SetISsE8iteratordeEv>
  408d01:	48 8b 45 e8          	mov    -0x18(%rbp),%rax
  408d05:	48 83 c0 40          	add    $0x40,%rax
  408d09:	48 89 c7             	mov    %rax,%rdi
  408d0c:	e8 55 f8 ff ff       	callq  408566 <_ZN3SetISsE8iteratorppEv>
  408d11:	48 8d 55 e0          	lea    -0x20(%rbp),%rdx
  408d15:	48 8b 45 d8          	mov    -0x28(%rbp),%rax
  408d19:	48 89 d6             	mov    %rdx,%rsi
  408d1c:	48 89 c7             	mov    %rax,%rdi
  408d1f:	e8 ec 97 ff ff       	callq  402510 <_ZNSsC1ERKSs@plt>
  408d24:	90                   	nop
  408d25:	48 8d 45 e0          	lea    -0x20(%rbp),%rax
  408d29:	48 89 c7             	mov    %rax,%rdi
  408d2c:	e8 6f 98 ff ff       	callq  4025a0 <_ZNSsD1Ev@plt>
  408d31:	eb 1a                	jmp    408d4d <_ZN3_fe8HookImplINS_6CRangeI3SetISsEEESsEET0_RNS_5StateE+0xc1>
  408d33:	48 89 c3             	mov    %rax,%rbx
  408d36:	48 8d 45 e0          	lea    -0x20(%rbp),%rax
  408d3a:	48 89 c7             	mov    %rax,%rdi
  408d3d:	e8 5e 98 ff ff       	callq  4025a0 <_ZNSsD1Ev@plt>
  408d42:	48 89 d8             	mov    %rbx,%rax
  408d45:	48 89 c7             	mov    %rax,%rdi
  408d48:	e8 83 9b ff ff       	callq  4028d0 <_Unwind_Resume@plt>
  408d4d:	48 8b 45 d8          	mov    -0x28(%rbp),%rax
  408d51:	48 83 c4 28          	add    $0x28,%rsp
  408d55:	5b                   	pop    %rbx
  408d56:	5d                   	pop    %rbp
  408d57:	c3                   	retq   

0000000000408d58 <_ZNK3MapISsbE11containsKeyERKSs>:
  408d58:	55                   	push   %rbp
  408d59:	48 89 e5             	mov    %rsp,%rbp
  408d5c:	48 83 ec 10          	sub    $0x10,%rsp
  408d60:	48 89 7d f8          	mov    %rdi,-0x8(%rbp)
  408d64:	48 89 75 f0          	mov    %rsi,-0x10(%rbp)
  408d68:	48 8b 45 f8          	mov    -0x8(%rbp),%rax
  408d6c:	48 8b 48 08          	mov    0x8(%rax),%rcx
  408d70:	48 8b 55 f0          	mov    -0x10(%rbp),%rdx
  408d74:	48 8b 45 f8          	mov    -0x8(%rbp),%rax
  408d78:	48 89 ce             	mov    %rcx,%rsi
  408d7b:	48 89 c7             	mov    %rax,%rdi
  408d7e:	e8 45 08 00 00       	callq  4095c8 <_ZNK3MapISsbE8findNodeEPNS0_7BSTNodeERKSs>
  408d83:	48 85 c0             	test   %rax,%rax
  408d86:	0f 95 c0             	setne  %al
  408d89:	c9                   	leaveq 
  408d8a:	c3                   	retq   
  408d8b:	90                   	nop

0000000000408d8c <_ZN3MapISsbE3putERKSsRKb>:
  408d8c:	55                   	push   %rbp
  408d8d:	48 89 e5             	mov    %rsp,%rbp
  408d90:	48 83 ec 30          	sub    $0x30,%rsp
  408d94:	48 89 7d e8          	mov    %rdi,-0x18(%rbp)
  408d98:	48 89 75 e0          	mov    %rsi,-0x20(%rbp)
  408d9c:	48 89 55 d8          	mov    %rdx,-0x28(%rbp)
  408da0:	48 8b 45 e8          	mov    -0x18(%rbp),%rax
  408da4:	48 8d 70 08          	lea    0x8(%rax),%rsi
  408da8:	48 8d 4d ff          	lea    -0x1(%rbp),%rcx
  408dac:	48 8b 55 e0          	mov    -0x20(%rbp),%rdx
  408db0:	48 8b 45 e8          	mov    -0x18(%rbp),%rax
  408db4:	48 89 c7             	mov    %rax,%rdi
  408db7:	e8 b2 08 00 00       	callq  40966e <_ZN3MapISsbE7addNodeERPNS0_7BSTNodeERKSsRb>
  408dbc:	48 8b 55 d8          	mov    -0x28(%rbp),%rdx
  408dc0:	0f b6 12             	movzbl (%rdx),%edx
  408dc3:	88 10                	mov    %dl,(%rax)
  408dc5:	c9                   	leaveq 
  408dc6:	c3                   	retq   
  408dc7:	90                   	nop

0000000000408dc8 <_ZN3MapISsbE8deepCopyERKS0_>:
  408dc8:	55                   	push   %rbp
  408dc9:	48 89 e5             	mov    %rsp,%rbp
  408dcc:	48 83 ec 10          	sub    $0x10,%rsp
  408dd0:	48 89 7d f8          	mov    %rdi,-0x8(%rbp)
  408dd4:	48 89 75 f0          	mov    %rsi,-0x10(%rbp)
  408dd8:	48 8b 45 f0          	mov    -0x10(%rbp),%rax
  408ddc:	48 8b 50 08          	mov    0x8(%rax),%rdx
  408de0:	48 8b 45 f8          	mov    -0x8(%rbp),%rax
  408de4:	48 89 d6             	mov    %rdx,%rsi
  408de7:	48 89 c7             	mov    %rax,%rdi
  408dea:	e8 7d 0a 00 00       	callq  40986c <_ZN3MapISsbE8copyTreeEPNS0_7BSTNodeE>
  408def:	48 8b 55 f8          	mov    -0x8(%rbp),%rdx
  408df3:	48 89 42 08          	mov    %rax,0x8(%rdx)
  408df7:	48 8b 45 f0          	mov    -0x10(%rbp),%rax
  408dfb:	8b 50 10             	mov    0x10(%rax),%edx
  408dfe:	48 8b 45 f8          	mov    -0x8(%rbp),%rax
  408e02:	89 50 10             	mov    %edx,0x10(%rax)
  408e05:	48 8b 45 f0          	mov    -0x10(%rbp),%rax
  408e09:	48 8b 40 18          	mov    0x18(%rax),%rax
  408e0d:	48 85 c0             	test   %rax,%rax
  408e10:	74 21                	je     408e33 <_ZN3MapISsbE8deepCopyERKS0_+0x6b>
  408e12:	48 8b 45 f0          	mov    -0x10(%rbp),%rax
  408e16:	48 8b 40 18          	mov    0x18(%rax),%rax
  408e1a:	48 8b 00             	mov    (%rax),%rax
  408e1d:	48 83 c0 18          	add    $0x18,%rax
  408e21:	48 8b 00             	mov    (%rax),%rax
  408e24:	48 8b 55 f0          	mov    -0x10(%rbp),%rdx
  408e28:	48 8b 52 18          	mov    0x18(%rdx),%rdx
  408e2c:	48 89 d7             	mov    %rdx,%rdi
  408e2f:	ff d0                	callq  *%rax
  408e31:	eb 05                	jmp    408e38 <_ZN3MapISsbE8deepCopyERKS0_+0x70>
  408e33:	b8 00 00 00 00       	mov    $0x0,%eax
  408e38:	48 8b 55 f8          	mov    -0x8(%rbp),%rdx
  408e3c:	48 89 42 18          	mov    %rax,0x18(%rdx)
  408e40:	c9                   	leaveq 
  408e41:	c3                   	retq   

0000000000408e42 <_ZN3_fe6CRangeI7LexiconEC1ERKS1_>:
  408e42:	55                   	push   %rbp
  408e43:	48 89 e5             	mov    %rsp,%rbp
  408e46:	53                   	push   %rbx
  408e47:	48 83 ec 18          	sub    $0x18,%rsp
  408e4b:	48 89 7d e8          	mov    %rdi,-0x18(%rbp)
  408e4f:	48 89 75 e0          	mov    %rsi,-0x20(%rbp)
  408e53:	48 8b 45 e8          	mov    -0x18(%rbp),%rax
  408e57:	48 89 c7             	mov    %rax,%rdi
  408e5a:	e8 0d fd ff ff       	callq  408b6c <_ZN3_fe5RangeC1Ev>
  408e5f:	48 8b 45 e8          	mov    -0x18(%rbp),%rax
  408e63:	48 c7 00 f0 c5 40 00 	movq   $0x40c5f0,(%rax)
  408e6a:	48 8b 45 e8          	mov    -0x18(%rbp),%rax
  408e6e:	48 8d 50 08          	lea    0x8(%rax),%rdx
  408e72:	48 8b 45 e0          	mov    -0x20(%rbp),%rax
  408e76:	48 89 c6             	mov    %rax,%rsi
  408e79:	48 89 d7             	mov    %rdx,%rdi
  408e7c:	e8 75 e1 ff ff       	callq  406ff6 <_ZN7LexiconC1ERKS_>
  408e81:	48 8b 45 e8          	mov    -0x18(%rbp),%rax
  408e85:	48 8d 50 08          	lea    0x8(%rax),%rdx
  408e89:	48 8b 45 e8          	mov    -0x18(%rbp),%rax
  408e8d:	48 83 c0 60          	add    $0x60,%rax
  408e91:	48 89 d6             	mov    %rdx,%rsi
  408e94:	48 89 c7             	mov    %rax,%rdi
  408e97:	e8 64 ef ff ff       	callq  407e00 <_ZNK7Lexicon5beginEv>
  408e9c:	48 8b 45 e8          	mov    -0x18(%rbp),%rax
  408ea0:	48 8d 50 08          	lea    0x8(%rax),%rdx
  408ea4:	48 8b 45 e8          	mov    -0x18(%rbp),%rax
  408ea8:	48 05 20 01 00 00    	add    $0x120,%rax
  408eae:	48 89 d6             	mov    %rdx,%rsi
  408eb1:	48 89 c7             	mov    %rax,%rdi
  408eb4:	e8 75 ef ff ff       	callq  407e2e <_ZNK7Lexicon3endEv>
  408eb9:	eb 44                	jmp    408eff <_ZN3_fe6CRangeI7LexiconEC1ERKS1_+0xbd>
  408ebb:	48 89 c3             	mov    %rax,%rbx
  408ebe:	48 8b 45 e8          	mov    -0x18(%rbp),%rax
  408ec2:	48 83 c0 60          	add    $0x60,%rax
  408ec6:	48 89 c7             	mov    %rax,%rdi
  408ec9:	e8 2c ed ff ff       	callq  407bfa <_ZN7Lexicon8iteratorD1Ev>
  408ece:	eb 03                	jmp    408ed3 <_ZN3_fe6CRangeI7LexiconEC1ERKS1_+0x91>
  408ed0:	48 89 c3             	mov    %rax,%rbx
  408ed3:	48 8b 45 e8          	mov    -0x18(%rbp),%rax
  408ed7:	48 83 c0 08          	add    $0x8,%rax
  408edb:	48 89 c7             	mov    %rax,%rdi
  408ede:	e8 df d2 ff ff       	callq  4061c2 <_ZN7LexiconD1Ev>
  408ee3:	eb 03                	jmp    408ee8 <_ZN3_fe6CRangeI7LexiconEC1ERKS1_+0xa6>
  408ee5:	48 89 c3             	mov    %rax,%rbx
  408ee8:	48 8b 45 e8          	mov    -0x18(%rbp),%rax
  408eec:	48 89 c7             	mov    %rax,%rdi
  408eef:	e8 1c e8 ff ff       	callq  407710 <_ZN3_fe5RangeD1Ev>
  408ef4:	48 89 d8             	mov    %rbx,%rax
  408ef7:	48 89 c7             	mov    %rax,%rdi
  408efa:	e8 d1 99 ff ff       	callq  4028d0 <_Unwind_Resume@plt>
  408eff:	48 83 c4 18          	add    $0x18,%rsp
  408f03:	5b                   	pop    %rbx
  408f04:	5d                   	pop    %rbp
  408f05:	c3                   	retq   

0000000000408f06 <_ZN3_fe8HookImplINS_6CRangeI7LexiconEESsEET0_RNS_5StateE>:
  408f06:	55                   	push   %rbp
  408f07:	48 89 e5             	mov    %rsp,%rbp
  408f0a:	53                   	push   %rbx
  408f0b:	48 83 ec 28          	sub    $0x28,%rsp
  408f0f:	48 89 7d d8          	mov    %rdi,-0x28(%rbp)
  408f13:	48 89 75 d0          	mov    %rsi,-0x30(%rbp)
  408f17:	48 8b 45 d0          	mov    -0x30(%rbp),%rax
  408f1b:	48 8b 40 08          	mov    0x8(%rax),%rax
  408f1f:	48 89 45 e8          	mov    %rax,-0x18(%rbp)
  408f23:	48 8b 45 e8          	mov    -0x18(%rbp),%rax
  408f27:	48 8d 90 20 01 00 00 	lea    0x120(%rax),%rdx
  408f2e:	48 8b 45 e8          	mov    -0x18(%rbp),%rax
  408f32:	48 83 c0 60          	add    $0x60,%rax
  408f36:	48 89 d6             	mov    %rdx,%rsi
  408f39:	48 89 c7             	mov    %rax,%rdi
  408f3c:	e8 a3 ed ff ff       	callq  407ce4 <_ZN7Lexicon8iteratoreqERKS0_>
  408f41:	84 c0                	test   %al,%al
  408f43:	74 18                	je     408f5d <_ZN3_fe8HookImplINS_6CRangeI7LexiconEESsEET0_RNS_5StateE+0x57>
  408f45:	48 8b 45 d0          	mov    -0x30(%rbp),%rax
  408f49:	c7 00 02 00 00 00    	movl   $0x2,(%rax)
  408f4f:	48 8b 45 d8          	mov    -0x28(%rbp),%rax
  408f53:	48 89 c7             	mov    %rax,%rdi
  408f56:	e8 45 94 ff ff       	callq  4023a0 <_ZNSsC1Ev@plt>
  408f5b:	eb 6d                	jmp    408fca <_ZN3_fe8HookImplINS_6CRangeI7LexiconEESsEET0_RNS_5StateE+0xc4>
  408f5d:	48 8b 45 d0          	mov    -0x30(%rbp),%rax
  408f61:	c7 00 01 00 00 00    	movl   $0x1,(%rax)
  408f67:	48 8b 45 e8          	mov    -0x18(%rbp),%rax
  408f6b:	48 8d 50 60          	lea    0x60(%rax),%rdx
  408f6f:	48 8d 45 e0          	lea    -0x20(%rbp),%rax
  408f73:	48 89 d6             	mov    %rdx,%rsi
  408f76:	48 89 c7             	mov    %rax,%rdi
  408f79:	e8 a6 ed ff ff       	callq  407d24 <_ZN7Lexicon8iteratordeEv>
  408f7e:	48 8b 45 e8          	mov    -0x18(%rbp),%rax
  408f82:	48 83 c0 60          	add    $0x60,%rax
  408f86:	48 89 c7             	mov    %rax,%rdi
  408f89:	e8 cc eb ff ff       	callq  407b5a <_ZN7Lexicon8iteratorppEv>
  408f8e:	48 8d 55 e0          	lea    -0x20(%rbp),%rdx
  408f92:	48 8b 45 d8          	mov    -0x28(%rbp),%rax
  408f96:	48 89 d6             	mov    %rdx,%rsi
  408f99:	48 89 c7             	mov    %rax,%rdi
  408f9c:	e8 6f 95 ff ff       	callq  402510 <_ZNSsC1ERKSs@plt>
  408fa1:	90                   	nop
  408fa2:	48 8d 45 e0          	lea    -0x20(%rbp),%rax
  408fa6:	48 89 c7             	mov    %rax,%rdi
  408fa9:	e8 f2 95 ff ff       	callq  4025a0 <_ZNSsD1Ev@plt>
  408fae:	eb 1a                	jmp    408fca <_ZN3_fe8HookImplINS_6CRangeI7LexiconEESsEET0_RNS_5StateE+0xc4>
  408fb0:	48 89 c3             	mov    %rax,%rbx
  408fb3:	48 8d 45 e0          	lea    -0x20(%rbp),%rax
  408fb7:	48 89 c7             	mov    %rax,%rdi
  408fba:	e8 e1 95 ff ff       	callq  4025a0 <_ZNSsD1Ev@plt>
  408fbf:	48 89 d8             	mov    %rbx,%rax
  408fc2:	48 89 c7             	mov    %rax,%rdi
  408fc5:	e8 06 99 ff ff       	callq  4028d0 <_Unwind_Resume@plt>
  408fca:	48 8b 45 d8          	mov    -0x28(%rbp),%rax
  408fce:	48 83 c4 28          	add    $0x28,%rsp
  408fd2:	5b                   	pop    %rbx
  408fd3:	5d                   	pop    %rbp
  408fd4:	c3                   	retq   
  408fd5:	90                   	nop

0000000000408fd6 <_ZN3MapISsbE8iteratoreqERKS1_>:
  408fd6:	55                   	push   %rbp
  408fd7:	48 89 e5             	mov    %rsp,%rbp
  408fda:	48 89 7d f8          	mov    %rdi,-0x8(%rbp)
  408fde:	48 89 75 f0          	mov    %rsi,-0x10(%rbp)
  408fe2:	48 8b 45 f8          	mov    -0x8(%rbp),%rax
  408fe6:	48 8b 10             	mov    (%rax),%rdx
  408fe9:	48 8b 45 f0          	mov    -0x10(%rbp),%rax
  408fed:	48 8b 00             	mov    (%rax),%rax
  408ff0:	48 39 c2             	cmp    %rax,%rdx
  408ff3:	75 19                	jne    40900e <_ZN3MapISsbE8iteratoreqERKS1_+0x38>
  408ff5:	48 8b 45 f8          	mov    -0x8(%rbp),%rax
  408ff9:	8b 50 08             	mov    0x8(%rax),%edx
  408ffc:	48 8b 45 f0          	mov    -0x10(%rbp),%rax
  409000:	8b 40 08             	mov    0x8(%rax),%eax
  409003:	39 c2                	cmp    %eax,%edx
  409005:	75 07                	jne    40900e <_ZN3MapISsbE8iteratoreqERKS1_+0x38>
  409007:	b8 01 00 00 00       	mov    $0x1,%eax
  40900c:	eb 05                	jmp    409013 <_ZN3MapISsbE8iteratoreqERKS1_+0x3d>
  40900e:	b8 00 00 00 00       	mov    $0x0,%eax
  409013:	5d                   	pop    %rbp
  409014:	c3                   	retq   
  409015:	90                   	nop

0000000000409016 <_ZN3MapISsbE8iteratordeEv>:
  409016:	55                   	push   %rbp
  409017:	48 89 e5             	mov    %rsp,%rbp
  40901a:	48 83 ec 10          	sub    $0x10,%rsp
  40901e:	48 89 7d f8          	mov    %rdi,-0x8(%rbp)
  409022:	48 89 75 f0          	mov    %rsi,-0x10(%rbp)
  409026:	48 8b 45 f0          	mov    -0x10(%rbp),%rax
  40902a:	48 83 c0 10          	add    $0x10,%rax
  40902e:	48 89 c7             	mov    %rax,%rdi
  409031:	e8 28 09 00 00       	callq  40995e <_ZNK5StackIN3MapISsbE8iterator10NodeMarkerEE4peekEv>
  409036:	48 89 c2             	mov    %rax,%rdx
  409039:	48 8b 45 f8          	mov    -0x8(%rbp),%rax
  40903d:	48 89 d6             	mov    %rdx,%rsi
  409040:	48 89 c7             	mov    %rax,%rdi
  409043:	e8 c8 94 ff ff       	callq  402510 <_ZNSsC1ERKSs@plt>
  409048:	48 8b 45 f8          	mov    -0x8(%rbp),%rax
  40904c:	c9                   	leaveq 
  40904d:	c3                   	retq   

000000000040904e <_ZN3MapISsbE8iteratorppEv>:
  40904e:	55                   	push   %rbp
  40904f:	48 89 e5             	mov    %rsp,%rbp
  409052:	48 83 ec 30          	sub    $0x30,%rsp
  409056:	48 89 7d d8          	mov    %rdi,-0x28(%rbp)
  40905a:	48 8b 45 d8          	mov    -0x28(%rbp),%rax
  40905e:	48 83 c0 10          	add    $0x10,%rax
  409062:	48 89 c7             	mov    %rax,%rdi
  409065:	e8 b6 09 00 00       	callq  409a20 <_ZN5StackIN3MapISsbE8iterator10NodeMarkerEE3popEv>
  40906a:	48 89 45 f0          	mov    %rax,-0x10(%rbp)
  40906e:	48 89 55 f8          	mov    %rdx,-0x8(%rbp)
  409072:	48 8b 45 f0          	mov    -0x10(%rbp),%rax
  409076:	48 89 45 e8          	mov    %rax,-0x18(%rbp)
  40907a:	48 8b 45 e8          	mov    -0x18(%rbp),%rax
  40907e:	48 8b 40 18          	mov    0x18(%rax),%rax
  409082:	48 85 c0             	test   %rax,%rax
  409085:	75 51                	jne    4090d8 <_ZN3MapISsbE8iteratorppEv+0x8a>
  409087:	eb 10                	jmp    409099 <_ZN3MapISsbE8iteratorppEv+0x4b>
  409089:	48 8b 45 d8          	mov    -0x28(%rbp),%rax
  40908d:	48 83 c0 10          	add    $0x10,%rax
  409091:	48 89 c7             	mov    %rax,%rdi
  409094:	e8 87 09 00 00       	callq  409a20 <_ZN5StackIN3MapISsbE8iterator10NodeMarkerEE3popEv>
  409099:	48 8b 45 d8          	mov    -0x28(%rbp),%rax
  40909d:	48 83 c0 10          	add    $0x10,%rax
  4090a1:	48 89 c7             	mov    %rax,%rdi
  4090a4:	e8 6f 0a 00 00       	callq  409b18 <_ZNK5StackIN3MapISsbE8iterator10NodeMarkerEE7isEmptyEv>
  4090a9:	83 f0 01             	xor    $0x1,%eax
  4090ac:	84 c0                	test   %al,%al
  4090ae:	74 1d                	je     4090cd <_ZN3MapISsbE8iteratorppEv+0x7f>
  4090b0:	48 8b 45 d8          	mov    -0x28(%rbp),%rax
  4090b4:	48 83 c0 10          	add    $0x10,%rax
  4090b8:	48 89 c7             	mov    %rax,%rdi
  4090bb:	e8 9e 08 00 00       	callq  40995e <_ZNK5StackIN3MapISsbE8iterator10NodeMarkerEE4peekEv>
  4090c0:	89 d0                	mov    %edx,%eax
  4090c2:	84 c0                	test   %al,%al
  4090c4:	74 07                	je     4090cd <_ZN3MapISsbE8iteratorppEv+0x7f>
  4090c6:	b8 01 00 00 00       	mov    $0x1,%eax
  4090cb:	eb 05                	jmp    4090d2 <_ZN3MapISsbE8iteratorppEv+0x84>
  4090cd:	b8 00 00 00 00       	mov    $0x0,%eax
  4090d2:	84 c0                	test   %al,%al
  4090d4:	75 b3                	jne    409089 <_ZN3MapISsbE8iteratorppEv+0x3b>
  4090d6:	eb 5c                	jmp    409134 <_ZN3MapISsbE8iteratorppEv+0xe6>
  4090d8:	c6 45 f8 01          	movb   $0x1,-0x8(%rbp)
  4090dc:	48 8b 45 d8          	mov    -0x28(%rbp),%rax
  4090e0:	48 8d 48 10          	lea    0x10(%rax),%rcx
  4090e4:	48 8b 55 f0          	mov    -0x10(%rbp),%rdx
  4090e8:	48 8b 45 f8          	mov    -0x8(%rbp),%rax
  4090ec:	48 89 d6             	mov    %rdx,%rsi
  4090ef:	48 89 c2             	mov    %rax,%rdx
  4090f2:	48 89 cf             	mov    %rcx,%rdi
  4090f5:	e8 3e 0a 00 00       	callq  409b38 <_ZN5StackIN3MapISsbE8iterator10NodeMarkerEE4pushES3_>
  4090fa:	48 8b 45 e8          	mov    -0x18(%rbp),%rax
  4090fe:	48 8b 40 18          	mov    0x18(%rax),%rax
  409102:	48 89 45 f0          	mov    %rax,-0x10(%rbp)
  409106:	c6 45 f8 00          	movb   $0x0,-0x8(%rbp)
  40910a:	48 8b 45 d8          	mov    -0x28(%rbp),%rax
  40910e:	48 8d 48 10          	lea    0x10(%rax),%rcx
  409112:	48 8b 55 f0          	mov    -0x10(%rbp),%rdx
  409116:	48 8b 45 f8          	mov    -0x8(%rbp),%rax
  40911a:	48 89 d6             	mov    %rdx,%rsi
  40911d:	48 89 c2             	mov    %rax,%rdx
  409120:	48 89 cf             	mov    %rcx,%rdi
  409123:	e8 10 0a 00 00       	callq  409b38 <_ZN5StackIN3MapISsbE8iterator10NodeMarkerEE4pushES3_>
  409128:	48 8b 45 d8          	mov    -0x28(%rbp),%rax
  40912c:	48 89 c7             	mov    %rax,%rdi
  40912f:	e8 42 0a 00 00       	callq  409b76 <_ZN3MapISsbE8iterator17findLeftmostChildEv>
  409134:	48 8b 45 d8          	mov    -0x28(%rbp),%rax
  409138:	8b 40 08             	mov    0x8(%rax),%eax
  40913b:	8d 50 01             	lea    0x1(%rax),%edx
  40913e:	48 8b 45 d8          	mov    -0x28(%rbp),%rax
  409142:	89 50 08             	mov    %edx,0x8(%rax)
  409145:	48 8b 45 d8          	mov    -0x28(%rbp),%rax
  409149:	c9                   	leaveq 
  40914a:	c3                   	retq   
  40914b:	90                   	nop

000000000040914c <_ZNK5StackIPN7Lexicon4EdgeEE4sizeEv>:
  40914c:	55                   	push   %rbp
  40914d:	48 89 e5             	mov    %rsp,%rbp
  409150:	48 83 ec 10          	sub    $0x10,%rsp
  409154:	48 89 7d f8          	mov    %rdi,-0x8(%rbp)
  409158:	48 8b 45 f8          	mov    -0x8(%rbp),%rax
  40915c:	48 83 c0 08          	add    $0x8,%rax
  409160:	48 89 c7             	mov    %rax,%rdi
  409163:	e8 02 00 00 00       	callq  40916a <_ZNK6VectorIPN7Lexicon4EdgeEE4sizeEv>
  409168:	c9                   	leaveq 
  409169:	c3                   	retq   

000000000040916a <_ZNK6VectorIPN7Lexicon4EdgeEE4sizeEv>:
  40916a:	55                   	push   %rbp
  40916b:	48 89 e5             	mov    %rsp,%rbp
  40916e:	48 89 7d f8          	mov    %rdi,-0x8(%rbp)
  409172:	48 8b 45 f8          	mov    -0x8(%rbp),%rax
  409176:	8b 40 14             	mov    0x14(%rax),%eax
  409179:	5d                   	pop    %rbp
  40917a:	c3                   	retq   
  40917b:	90                   	nop

000000000040917c <_ZN6VectorIPN7Lexicon4EdgeEEixEi>:
  40917c:	55                   	push   %rbp
  40917d:	48 89 e5             	mov    %rsp,%rbp
  409180:	53                   	push   %rbx
  409181:	48 83 ec 38          	sub    $0x38,%rsp
  409185:	48 89 7d c8          	mov    %rdi,-0x38(%rbp)
  409189:	89 75 c4             	mov    %esi,-0x3c(%rbp)
  40918c:	83 7d c4 00          	cmpl   $0x0,-0x3c(%rbp)
  409190:	78 0c                	js     40919e <_ZN6VectorIPN7Lexicon4EdgeEEixEi+0x22>
  409192:	48 8b 45 c8          	mov    -0x38(%rbp),%rax
  409196:	8b 40 14             	mov    0x14(%rax),%eax
  409199:	3b 45 c4             	cmp    -0x3c(%rbp),%eax
  40919c:	7f 45                	jg     4091e3 <_ZN6VectorIPN7Lexicon4EdgeEEixEi+0x67>
  40919e:	48 8d 45 df          	lea    -0x21(%rbp),%rax
  4091a2:	48 89 c7             	mov    %rax,%rdi
  4091a5:	e8 c6 96 ff ff       	callq  402870 <_ZNSaIcEC1Ev@plt>
  4091aa:	48 8d 55 df          	lea    -0x21(%rbp),%rdx
  4091ae:	48 8d 45 e0          	lea    -0x20(%rbp),%rax
  4091b2:	be 4e c4 40 00       	mov    $0x40c44e,%esi
  4091b7:	48 89 c7             	mov    %rax,%rdi
  4091ba:	e8 61 94 ff ff       	callq  402620 <_ZNSsC1EPKcRKSaIcE@plt>
  4091bf:	48 8d 45 e0          	lea    -0x20(%rbp),%rax
  4091c3:	48 89 c7             	mov    %rax,%rdi
  4091c6:	e8 ca 2f 00 00       	callq  40c195 <_Z5errorSs>
  4091cb:	48 8d 45 e0          	lea    -0x20(%rbp),%rax
  4091cf:	48 89 c7             	mov    %rax,%rdi
  4091d2:	e8 c9 93 ff ff       	callq  4025a0 <_ZNSsD1Ev@plt>
  4091d7:	48 8d 45 df          	lea    -0x21(%rbp),%rax
  4091db:	48 89 c7             	mov    %rax,%rdi
  4091de:	e8 4d 95 ff ff       	callq  402730 <_ZNSaIcED1Ev@plt>
  4091e3:	48 8b 45 c8          	mov    -0x38(%rbp),%rax
  4091e7:	48 8b 40 08          	mov    0x8(%rax),%rax
  4091eb:	8b 55 c4             	mov    -0x3c(%rbp),%edx
  4091ee:	48 63 d2             	movslq %edx,%rdx
  4091f1:	48 c1 e2 03          	shl    $0x3,%rdx
  4091f5:	48 01 d0             	add    %rdx,%rax
  4091f8:	eb 2b                	jmp    409225 <_ZN6VectorIPN7Lexicon4EdgeEEixEi+0xa9>
  4091fa:	48 89 c3             	mov    %rax,%rbx
  4091fd:	48 8d 45 e0          	lea    -0x20(%rbp),%rax
  409201:	48 89 c7             	mov    %rax,%rdi
  409204:	e8 97 93 ff ff       	callq  4025a0 <_ZNSsD1Ev@plt>
  409209:	eb 03                	jmp    40920e <_ZN6VectorIPN7Lexicon4EdgeEEixEi+0x92>
  40920b:	48 89 c3             	mov    %rax,%rbx
  40920e:	48 8d 45 df          	lea    -0x21(%rbp),%rax
  409212:	48 89 c7             	mov    %rax,%rdi
  409215:	e8 16 95 ff ff       	callq  402730 <_ZNSaIcED1Ev@plt>
  40921a:	48 89 d8             	mov    %rbx,%rax
  40921d:	48 89 c7             	mov    %rax,%rdi
  409220:	e8 ab 96 ff ff       	callq  4028d0 <_Unwind_Resume@plt>
  409225:	48 83 c4 38          	add    $0x38,%rsp
  409229:	5b                   	pop    %rbx
  40922a:	5d                   	pop    %rbp
  40922b:	c3                   	retq   

000000000040922c <_ZN6VectorIPN7Lexicon4EdgeEE6removeEi>:
  40922c:	55                   	push   %rbp
  40922d:	48 89 e5             	mov    %rsp,%rbp
  409230:	53                   	push   %rbx
  409231:	48 83 ec 38          	sub    $0x38,%rsp
  409235:	48 89 7d c8          	mov    %rdi,-0x38(%rbp)
  409239:	89 75 c4             	mov    %esi,-0x3c(%rbp)
  40923c:	83 7d c4 00          	cmpl   $0x0,-0x3c(%rbp)
  409240:	78 0c                	js     40924e <_ZN6VectorIPN7Lexicon4EdgeEE6removeEi+0x22>
  409242:	48 8b 45 c8          	mov    -0x38(%rbp),%rax
  409246:	8b 40 14             	mov    0x14(%rax),%eax
  409249:	3b 45 c4             	cmp    -0x3c(%rbp),%eax
  40924c:	7f 45                	jg     409293 <_ZN6VectorIPN7Lexicon4EdgeEE6removeEi+0x67>
  40924e:	48 8d 45 db          	lea    -0x25(%rbp),%rax
  409252:	48 89 c7             	mov    %rax,%rdi
  409255:	e8 16 96 ff ff       	callq  402870 <_ZNSaIcEC1Ev@plt>
  40925a:	48 8d 55 db          	lea    -0x25(%rbp),%rdx
  40925e:	48 8d 45 e0          	lea    -0x20(%rbp),%rax
  409262:	be 6b c4 40 00       	mov    $0x40c46b,%esi
  409267:	48 89 c7             	mov    %rax,%rdi
  40926a:	e8 b1 93 ff ff       	callq  402620 <_ZNSsC1EPKcRKSaIcE@plt>
  40926f:	48 8d 45 e0          	lea    -0x20(%rbp),%rax
  409273:	48 89 c7             	mov    %rax,%rdi
  409276:	e8 1a 2f 00 00       	callq  40c195 <_Z5errorSs>
  40927b:	48 8d 45 e0          	lea    -0x20(%rbp),%rax
  40927f:	48 89 c7             	mov    %rax,%rdi
  409282:	e8 19 93 ff ff       	callq  4025a0 <_ZNSsD1Ev@plt>
  409287:	48 8d 45 db          	lea    -0x25(%rbp),%rax
  40928b:	48 89 c7             	mov    %rax,%rdi
  40928e:	e8 9d 94 ff ff       	callq  402730 <_ZNSaIcED1Ev@plt>
  409293:	8b 45 c4             	mov    -0x3c(%rbp),%eax
  409296:	89 45 dc             	mov    %eax,-0x24(%rbp)
  409299:	eb 38                	jmp    4092d3 <_ZN6VectorIPN7Lexicon4EdgeEE6removeEi+0xa7>
  40929b:	48 8b 45 c8          	mov    -0x38(%rbp),%rax
  40929f:	48 8b 40 08          	mov    0x8(%rax),%rax
  4092a3:	8b 55 dc             	mov    -0x24(%rbp),%edx
  4092a6:	48 63 d2             	movslq %edx,%rdx
  4092a9:	48 c1 e2 03          	shl    $0x3,%rdx
  4092ad:	48 01 c2             	add    %rax,%rdx
  4092b0:	48 8b 45 c8          	mov    -0x38(%rbp),%rax
  4092b4:	48 8b 40 08          	mov    0x8(%rax),%rax
  4092b8:	8b 4d dc             	mov    -0x24(%rbp),%ecx
  4092bb:	48 63 c9             	movslq %ecx,%rcx
  4092be:	48 83 c1 01          	add    $0x1,%rcx
  4092c2:	48 c1 e1 03          	shl    $0x3,%rcx
  4092c6:	48 01 c8             	add    %rcx,%rax
  4092c9:	48 8b 00             	mov    (%rax),%rax
  4092cc:	48 89 02             	mov    %rax,(%rdx)
  4092cf:	83 45 dc 01          	addl   $0x1,-0x24(%rbp)
  4092d3:	48 8b 45 c8          	mov    -0x38(%rbp),%rax
  4092d7:	8b 40 14             	mov    0x14(%rax),%eax
  4092da:	83 e8 01             	sub    $0x1,%eax
  4092dd:	3b 45 dc             	cmp    -0x24(%rbp),%eax
  4092e0:	7f b9                	jg     40929b <_ZN6VectorIPN7Lexicon4EdgeEE6removeEi+0x6f>
  4092e2:	48 8b 45 c8          	mov    -0x38(%rbp),%rax
  4092e6:	8b 40 14             	mov    0x14(%rax),%eax
  4092e9:	8d 50 ff             	lea    -0x1(%rax),%edx
  4092ec:	48 8b 45 c8          	mov    -0x38(%rbp),%rax
  4092f0:	89 50 14             	mov    %edx,0x14(%rax)
  4092f3:	eb 2b                	jmp    409320 <_ZN6VectorIPN7Lexicon4EdgeEE6removeEi+0xf4>
  4092f5:	48 89 c3             	mov    %rax,%rbx
  4092f8:	48 8d 45 e0          	lea    -0x20(%rbp),%rax
  4092fc:	48 89 c7             	mov    %rax,%rdi
  4092ff:	e8 9c 92 ff ff       	callq  4025a0 <_ZNSsD1Ev@plt>
  409304:	eb 03                	jmp    409309 <_ZN6VectorIPN7Lexicon4EdgeEE6removeEi+0xdd>
  409306:	48 89 c3             	mov    %rax,%rbx
  409309:	48 8d 45 db          	lea    -0x25(%rbp),%rax
  40930d:	48 89 c7             	mov    %rax,%rdi
  409310:	e8 1b 94 ff ff       	callq  402730 <_ZNSaIcED1Ev@plt>
  409315:	48 89 d8             	mov    %rbx,%rax
  409318:	48 89 c7             	mov    %rax,%rdi
  40931b:	e8 b0 95 ff ff       	callq  4028d0 <_Unwind_Resume@plt>
  409320:	48 83 c4 38          	add    $0x38,%rsp
  409324:	5b                   	pop    %rbx
  409325:	5d                   	pop    %rbp
  409326:	c3                   	retq   
  409327:	90                   	nop

0000000000409328 <_ZN6VectorIPN7Lexicon4EdgeEE3addES2_>:
  409328:	55                   	push   %rbp
  409329:	48 89 e5             	mov    %rsp,%rbp
  40932c:	48 83 ec 10          	sub    $0x10,%rsp
  409330:	48 89 7d f8          	mov    %rdi,-0x8(%rbp)
  409334:	48 89 75 f0          	mov    %rsi,-0x10(%rbp)
  409338:	48 8b 45 f8          	mov    -0x8(%rbp),%rax
  40933c:	8b 48 14             	mov    0x14(%rax),%ecx
  40933f:	48 8b 55 f0          	mov    -0x10(%rbp),%rdx
  409343:	48 8b 45 f8          	mov    -0x8(%rbp),%rax
  409347:	89 ce                	mov    %ecx,%esi
  409349:	48 89 c7             	mov    %rax,%rdi
  40934c:	e8 a5 08 00 00       	callq  409bf6 <_ZN6VectorIPN7Lexicon4EdgeEE6insertEiS2_>
  409351:	c9                   	leaveq 
  409352:	c3                   	retq   
  409353:	90                   	nop

0000000000409354 <_ZN5StackIN3MapISsbE8iterator10NodeMarkerEEC1Ev>:
  409354:	55                   	push   %rbp
  409355:	48 89 e5             	mov    %rsp,%rbp
  409358:	48 83 ec 10          	sub    $0x10,%rsp
  40935c:	48 89 7d f8          	mov    %rdi,-0x8(%rbp)
  409360:	48 8b 45 f8          	mov    -0x8(%rbp),%rax
  409364:	48 c7 00 10 c6 40 00 	movq   $0x40c610,(%rax)
  40936b:	48 8b 45 f8          	mov    -0x8(%rbp),%rax
  40936f:	48 83 c0 08          	add    $0x8,%rax
  409373:	48 89 c7             	mov    %rax,%rdi
  409376:	e8 b1 09 00 00       	callq  409d2c <_ZN6VectorIN3MapISsbE8iterator10NodeMarkerEEC1Ev>
  40937b:	c9                   	leaveq 
  40937c:	c3                   	retq   
  40937d:	90                   	nop

000000000040937e <_ZN3MapISsbE8iteratorC1EPKS0_b>:
  40937e:	55                   	push   %rbp
  40937f:	48 89 e5             	mov    %rsp,%rbp
  409382:	53                   	push   %rbx
  409383:	48 83 ec 38          	sub    $0x38,%rsp
  409387:	48 89 7d d8          	mov    %rdi,-0x28(%rbp)
  40938b:	48 89 75 d0          	mov    %rsi,-0x30(%rbp)
  40938f:	89 d0                	mov    %edx,%eax
  409391:	88 45 cc             	mov    %al,-0x34(%rbp)
  409394:	48 8b 45 d8          	mov    -0x28(%rbp),%rax
  409398:	48 89 c7             	mov    %rax,%rdi
  40939b:	e8 1e e4 ff ff       	callq  4077be <_ZNSt8iteratorISt18input_iterator_tagSslPSsRSsEC1Ev>
  4093a0:	48 8b 45 d8          	mov    -0x28(%rbp),%rax
  4093a4:	48 83 c0 10          	add    $0x10,%rax
  4093a8:	48 89 c7             	mov    %rax,%rdi
  4093ab:	e8 a4 ff ff ff       	callq  409354 <_ZN5StackIN3MapISsbE8iterator10NodeMarkerEEC1Ev>
  4093b0:	48 8b 45 d8          	mov    -0x28(%rbp),%rax
  4093b4:	48 8b 55 d0          	mov    -0x30(%rbp),%rdx
  4093b8:	48 89 10             	mov    %rdx,(%rax)
  4093bb:	80 7d cc 00          	cmpb   $0x0,-0x34(%rbp)
  4093bf:	75 0b                	jne    4093cc <_ZN3MapISsbE8iteratorC1EPKS0_b+0x4e>
  4093c1:	48 8b 45 d0          	mov    -0x30(%rbp),%rax
  4093c5:	8b 40 10             	mov    0x10(%rax),%eax
  4093c8:	85 c0                	test   %eax,%eax
  4093ca:	75 10                	jne    4093dc <_ZN3MapISsbE8iteratorC1EPKS0_b+0x5e>
  4093cc:	48 8b 45 d0          	mov    -0x30(%rbp),%rax
  4093d0:	8b 50 10             	mov    0x10(%rax),%edx
  4093d3:	48 8b 45 d8          	mov    -0x28(%rbp),%rax
  4093d7:	89 50 08             	mov    %edx,0x8(%rax)
  4093da:	eb 71                	jmp    40944d <_ZN3MapISsbE8iteratorC1EPKS0_b+0xcf>
  4093dc:	48 8b 45 d8          	mov    -0x28(%rbp),%rax
  4093e0:	c7 40 08 00 00 00 00 	movl   $0x0,0x8(%rax)
  4093e7:	48 c7 45 e0 00 00 00 	movq   $0x0,-0x20(%rbp)
  4093ee:	00 
  4093ef:	48 c7 45 e8 00 00 00 	movq   $0x0,-0x18(%rbp)
  4093f6:	00 
  4093f7:	48 8b 45 d0          	mov    -0x30(%rbp),%rax
  4093fb:	48 8b 40 08          	mov    0x8(%rax),%rax
  4093ff:	48 89 45 e0          	mov    %rax,-0x20(%rbp)
  409403:	48 8b 45 d8          	mov    -0x28(%rbp),%rax
  409407:	48 8d 48 10          	lea    0x10(%rax),%rcx
  40940b:	48 8b 55 e0          	mov    -0x20(%rbp),%rdx
  40940f:	48 8b 45 e8          	mov    -0x18(%rbp),%rax
  409413:	48 89 d6             	mov    %rdx,%rsi
  409416:	48 89 c2             	mov    %rax,%rdx
  409419:	48 89 cf             	mov    %rcx,%rdi
  40941c:	e8 17 07 00 00       	callq  409b38 <_ZN5StackIN3MapISsbE8iterator10NodeMarkerEE4pushES3_>
  409421:	48 8b 45 d8          	mov    -0x28(%rbp),%rax
  409425:	48 89 c7             	mov    %rax,%rdi
  409428:	e8 49 07 00 00       	callq  409b76 <_ZN3MapISsbE8iterator17findLeftmostChildEv>
  40942d:	eb 1e                	jmp    40944d <_ZN3MapISsbE8iteratorC1EPKS0_b+0xcf>
  40942f:	48 89 c3             	mov    %rax,%rbx
  409432:	48 8b 45 d8          	mov    -0x28(%rbp),%rax
  409436:	48 83 c0 10          	add    $0x10,%rax
  40943a:	48 89 c7             	mov    %rax,%rdi
  40943d:	e8 48 eb ff ff       	callq  407f8a <_ZN5StackIN3MapISsbE8iterator10NodeMarkerEED1Ev>
  409442:	48 89 d8             	mov    %rbx,%rax
  409445:	48 89 c7             	mov    %rax,%rdi
  409448:	e8 83 94 ff ff       	callq  4028d0 <_Unwind_Resume@plt>
  40944d:	48 83 c4 38          	add    $0x38,%rsp
  409451:	5b                   	pop    %rbx
  409452:	5d                   	pop    %rbp
  409453:	c3                   	retq   

0000000000409454 <_ZN3MapISsbE10ComparatorC1Ev>:
  409454:	55                   	push   %rbp
  409455:	48 89 e5             	mov    %rsp,%rbp
  409458:	48 89 7d f8          	mov    %rdi,-0x8(%rbp)
  40945c:	48 8b 45 f8          	mov    -0x8(%rbp),%rax
  409460:	48 c7 00 70 c5 40 00 	movq   $0x40c570,(%rax)
  409467:	5d                   	pop    %rbp
  409468:	c3                   	retq   
  409469:	90                   	nop

000000000040946a <_ZN3MapISsbE18TemplateComparatorISt4lessISsEEC1ES3_>:
  40946a:	55                   	push   %rbp
  40946b:	48 89 e5             	mov    %rsp,%rbp
  40946e:	53                   	push   %rbx
  40946f:	48 83 ec 18          	sub    $0x18,%rsp
  409473:	48 89 7d e8          	mov    %rdi,-0x18(%rbp)
  409477:	48 8b 45 e8          	mov    -0x18(%rbp),%rax
  40947b:	48 89 c7             	mov    %rax,%rdi
  40947e:	e8 d1 ff ff ff       	callq  409454 <_ZN3MapISsbE10ComparatorC1Ev>
  409483:	48 8b 45 e8          	mov    -0x18(%rbp),%rax
  409487:	48 c7 00 30 c5 40 00 	movq   $0x40c530,(%rax)
  40948e:	bf 01 00 00 00       	mov    $0x1,%edi
  409493:	e8 28 94 ff ff       	callq  4028c0 <_Znwm@plt>
  409498:	48 8b 55 e8          	mov    -0x18(%rbp),%rdx
  40949c:	48 89 42 08          	mov    %rax,0x8(%rdx)
  4094a0:	eb 1a                	jmp    4094bc <_ZN3MapISsbE18TemplateComparatorISt4lessISsEEC1ES3_+0x52>
  4094a2:	48 89 c3             	mov    %rax,%rbx
  4094a5:	48 8b 45 e8          	mov    -0x18(%rbp),%rax
  4094a9:	48 89 c7             	mov    %rax,%rdi
  4094ac:	e8 13 00 00 00       	callq  4094c4 <_ZN3MapISsbE10ComparatorD1Ev>
  4094b1:	48 89 d8             	mov    %rbx,%rax
  4094b4:	48 89 c7             	mov    %rax,%rdi
  4094b7:	e8 14 94 ff ff       	callq  4028d0 <_Unwind_Resume@plt>
  4094bc:	48 83 c4 18          	add    $0x18,%rsp
  4094c0:	5b                   	pop    %rbx
  4094c1:	5d                   	pop    %rbp
  4094c2:	c3                   	retq   
  4094c3:	90                   	nop

00000000004094c4 <_ZN3MapISsbE10ComparatorD1Ev>:
  4094c4:	55                   	push   %rbp
  4094c5:	48 89 e5             	mov    %rsp,%rbp
  4094c8:	48 83 ec 10          	sub    $0x10,%rsp
  4094cc:	48 89 7d f8          	mov    %rdi,-0x8(%rbp)
  4094d0:	48 8b 45 f8          	mov    -0x8(%rbp),%rax
  4094d4:	48 c7 00 70 c5 40 00 	movq   $0x40c570,(%rax)
  4094db:	b8 00 00 00 00       	mov    $0x0,%eax
  4094e0:	85 c0                	test   %eax,%eax
  4094e2:	74 0c                	je     4094f0 <_ZN3MapISsbE10ComparatorD1Ev+0x2c>
  4094e4:	48 8b 45 f8          	mov    -0x8(%rbp),%rax
  4094e8:	48 89 c7             	mov    %rax,%rdi
  4094eb:	e8 70 8f ff ff       	callq  402460 <_ZdlPv@plt>
  4094f0:	c9                   	leaveq 
  4094f1:	c3                   	retq   

00000000004094f2 <_ZN3MapISsbE10ComparatorD0Ev>:
  4094f2:	55                   	push   %rbp
  4094f3:	48 89 e5             	mov    %rsp,%rbp
  4094f6:	48 83 ec 10          	sub    $0x10,%rsp
  4094fa:	48 89 7d f8          	mov    %rdi,-0x8(%rbp)
  4094fe:	48 8b 45 f8          	mov    -0x8(%rbp),%rax
  409502:	48 89 c7             	mov    %rax,%rdi
  409505:	e8 ba ff ff ff       	callq  4094c4 <_ZN3MapISsbE10ComparatorD1Ev>
  40950a:	48 8b 45 f8          	mov    -0x8(%rbp),%rax
  40950e:	48 89 c7             	mov    %rax,%rdi
  409511:	e8 4a 8f ff ff       	callq  402460 <_ZdlPv@plt>
  409516:	c9                   	leaveq 
  409517:	c3                   	retq   

0000000000409518 <_ZN3MapISsbE7BSTNodeD1Ev>:
  409518:	55                   	push   %rbp
  409519:	48 89 e5             	mov    %rsp,%rbp
  40951c:	48 83 ec 10          	sub    $0x10,%rsp
  409520:	48 89 7d f8          	mov    %rdi,-0x8(%rbp)
  409524:	48 8b 45 f8          	mov    -0x8(%rbp),%rax
  409528:	48 89 c7             	mov    %rax,%rdi
  40952b:	e8 70 90 ff ff       	callq  4025a0 <_ZNSsD1Ev@plt>
  409530:	c9                   	leaveq 
  409531:	c3                   	retq   

0000000000409532 <_ZN3MapISsbE10deleteTreeEPNS0_7BSTNodeE>:
  409532:	55                   	push   %rbp
  409533:	48 89 e5             	mov    %rsp,%rbp
  409536:	53                   	push   %rbx
  409537:	48 83 ec 18          	sub    $0x18,%rsp
  40953b:	48 89 7d e8          	mov    %rdi,-0x18(%rbp)
  40953f:	48 89 75 e0          	mov    %rsi,-0x20(%rbp)
  409543:	48 83 7d e0 00       	cmpq   $0x0,-0x20(%rbp)
  409548:	74 47                	je     409591 <_ZN3MapISsbE10deleteTreeEPNS0_7BSTNodeE+0x5f>
  40954a:	48 8b 45 e0          	mov    -0x20(%rbp),%rax
  40954e:	48 8b 50 10          	mov    0x10(%rax),%rdx
  409552:	48 8b 45 e8          	mov    -0x18(%rbp),%rax
  409556:	48 89 d6             	mov    %rdx,%rsi
  409559:	48 89 c7             	mov    %rax,%rdi
  40955c:	e8 d1 ff ff ff       	callq  409532 <_ZN3MapISsbE10deleteTreeEPNS0_7BSTNodeE>
  409561:	48 8b 45 e0          	mov    -0x20(%rbp),%rax
  409565:	48 8b 50 18          	mov    0x18(%rax),%rdx
  409569:	48 8b 45 e8          	mov    -0x18(%rbp),%rax
  40956d:	48 89 d6             	mov    %rdx,%rsi
  409570:	48 89 c7             	mov    %rax,%rdi
  409573:	e8 ba ff ff ff       	callq  409532 <_ZN3MapISsbE10deleteTreeEPNS0_7BSTNodeE>
  409578:	48 8b 5d e0          	mov    -0x20(%rbp),%rbx
  40957c:	48 85 db             	test   %rbx,%rbx
  40957f:	74 10                	je     409591 <_ZN3MapISsbE10deleteTreeEPNS0_7BSTNodeE+0x5f>
  409581:	48 89 df             	mov    %rbx,%rdi
  409584:	e8 8f ff ff ff       	callq  409518 <_ZN3MapISsbE7BSTNodeD1Ev>
  409589:	48 89 df             	mov    %rbx,%rdi
  40958c:	e8 cf 8e ff ff       	callq  402460 <_ZdlPv@plt>
  409591:	48 83 c4 18          	add    $0x18,%rsp
  409595:	5b                   	pop    %rbx
  409596:	5d                   	pop    %rbp
  409597:	c3                   	retq   

0000000000409598 <_ZN3MapISsbEC1ERKS0_>:
  409598:	55                   	push   %rbp
  409599:	48 89 e5             	mov    %rsp,%rbp
  40959c:	48 83 ec 10          	sub    $0x10,%rsp
  4095a0:	48 89 7d f8          	mov    %rdi,-0x8(%rbp)
  4095a4:	48 89 75 f0          	mov    %rsi,-0x10(%rbp)
  4095a8:	48 8b 45 f8          	mov    -0x8(%rbp),%rax
  4095ac:	48 c7 00 b0 c6 40 00 	movq   $0x40c6b0,(%rax)
  4095b3:	48 8b 55 f0          	mov    -0x10(%rbp),%rdx
  4095b7:	48 8b 45 f8          	mov    -0x8(%rbp),%rax
  4095bb:	48 89 d6             	mov    %rdx,%rsi
  4095be:	48 89 c7             	mov    %rax,%rdi
  4095c1:	e8 02 f8 ff ff       	callq  408dc8 <_ZN3MapISsbE8deepCopyERKS0_>
  4095c6:	c9                   	leaveq 
  4095c7:	c3                   	retq   

00000000004095c8 <_ZNK3MapISsbE8findNodeEPNS0_7BSTNodeERKSs>:
  4095c8:	55                   	push   %rbp
  4095c9:	48 89 e5             	mov    %rsp,%rbp
  4095cc:	48 83 ec 30          	sub    $0x30,%rsp
  4095d0:	48 89 7d e8          	mov    %rdi,-0x18(%rbp)
  4095d4:	48 89 75 e0          	mov    %rsi,-0x20(%rbp)
  4095d8:	48 89 55 d8          	mov    %rdx,-0x28(%rbp)
  4095dc:	48 83 7d e0 00       	cmpq   $0x0,-0x20(%rbp)
  4095e1:	75 07                	jne    4095ea <_ZNK3MapISsbE8findNodeEPNS0_7BSTNodeERKSs+0x22>
  4095e3:	b8 00 00 00 00       	mov    $0x0,%eax
  4095e8:	eb 68                	jmp    409652 <_ZNK3MapISsbE8findNodeEPNS0_7BSTNodeERKSs+0x8a>
  4095ea:	48 8b 55 e0          	mov    -0x20(%rbp),%rdx
  4095ee:	48 8b 4d d8          	mov    -0x28(%rbp),%rcx
  4095f2:	48 8b 45 e8          	mov    -0x18(%rbp),%rax
  4095f6:	48 89 ce             	mov    %rcx,%rsi
  4095f9:	48 89 c7             	mov    %rax,%rdi
  4095fc:	e8 65 07 00 00       	callq  409d66 <_ZNK3MapISsbE11compareKeysERKSsS2_>
  409601:	89 45 fc             	mov    %eax,-0x4(%rbp)
  409604:	83 7d fc 00          	cmpl   $0x0,-0x4(%rbp)
  409608:	75 0a                	jne    409614 <_ZNK3MapISsbE8findNodeEPNS0_7BSTNodeERKSs+0x4c>
  40960a:	48 8b 45 e0          	mov    -0x20(%rbp),%rax
  40960e:	48 83 c0 08          	add    $0x8,%rax
  409612:	eb 3e                	jmp    409652 <_ZNK3MapISsbE8findNodeEPNS0_7BSTNodeERKSs+0x8a>
  409614:	83 7d fc 00          	cmpl   $0x0,-0x4(%rbp)
  409618:	79 1d                	jns    409637 <_ZNK3MapISsbE8findNodeEPNS0_7BSTNodeERKSs+0x6f>
  40961a:	48 8b 45 e0          	mov    -0x20(%rbp),%rax
  40961e:	48 8b 48 10          	mov    0x10(%rax),%rcx
  409622:	48 8b 55 d8          	mov    -0x28(%rbp),%rdx
  409626:	48 8b 45 e8          	mov    -0x18(%rbp),%rax
  40962a:	48 89 ce             	mov    %rcx,%rsi
  40962d:	48 89 c7             	mov    %rax,%rdi
  409630:	e8 93 ff ff ff       	callq  4095c8 <_ZNK3MapISsbE8findNodeEPNS0_7BSTNodeERKSs>
  409635:	eb 1b                	jmp    409652 <_ZNK3MapISsbE8findNodeEPNS0_7BSTNodeERKSs+0x8a>
  409637:	48 8b 45 e0          	mov    -0x20(%rbp),%rax
  40963b:	48 8b 48 18          	mov    0x18(%rax),%rcx
  40963f:	48 8b 55 d8          	mov    -0x28(%rbp),%rdx
  409643:	48 8b 45 e8          	mov    -0x18(%rbp),%rax
  409647:	48 89 ce             	mov    %rcx,%rsi
  40964a:	48 89 c7             	mov    %rax,%rdi
  40964d:	e8 76 ff ff ff       	callq  4095c8 <_ZNK3MapISsbE8findNodeEPNS0_7BSTNodeERKSs>
  409652:	c9                   	leaveq 
  409653:	c3                   	retq   

0000000000409654 <_ZN3MapISsbE7BSTNodeC1Ev>:
  409654:	55                   	push   %rbp
  409655:	48 89 e5             	mov    %rsp,%rbp
  409658:	48 83 ec 10          	sub    $0x10,%rsp
  40965c:	48 89 7d f8          	mov    %rdi,-0x8(%rbp)
  409660:	48 8b 45 f8          	mov    -0x8(%rbp),%rax
  409664:	48 89 c7             	mov    %rax,%rdi
  409667:	e8 34 8d ff ff       	callq  4023a0 <_ZNSsC1Ev@plt>
  40966c:	c9                   	leaveq 
  40966d:	c3                   	retq   

000000000040966e <_ZN3MapISsbE7addNodeERPNS0_7BSTNodeERKSsRb>:
  40966e:	55                   	push   %rbp
  40966f:	48 89 e5             	mov    %rsp,%rbp
  409672:	41 54                	push   %r12
  409674:	53                   	push   %rbx
  409675:	48 83 ec 30          	sub    $0x30,%rsp
  409679:	48 89 7d d8          	mov    %rdi,-0x28(%rbp)
  40967d:	48 89 75 d0          	mov    %rsi,-0x30(%rbp)
  409681:	48 89 55 c8          	mov    %rdx,-0x38(%rbp)
  409685:	48 89 4d c0          	mov    %rcx,-0x40(%rbp)
  409689:	48 8b 45 c0          	mov    -0x40(%rbp),%rax
  40968d:	c6 00 00             	movb   $0x0,(%rax)
  409690:	48 8b 45 d0          	mov    -0x30(%rbp),%rax
  409694:	48 8b 00             	mov    (%rax),%rax
  409697:	48 85 c0             	test   %rax,%rax
  40969a:	0f 85 b3 00 00 00    	jne    409753 <_ZN3MapISsbE7addNodeERPNS0_7BSTNodeERKSsRb+0xe5>
  4096a0:	bf 28 00 00 00       	mov    $0x28,%edi
  4096a5:	e8 16 92 ff ff       	callq  4028c0 <_Znwm@plt>
  4096aa:	48 89 c3             	mov    %rax,%rbx
  4096ad:	48 c7 03 00 00 00 00 	movq   $0x0,(%rbx)
  4096b4:	c6 43 08 00          	movb   $0x0,0x8(%rbx)
  4096b8:	48 c7 43 10 00 00 00 	movq   $0x0,0x10(%rbx)
  4096bf:	00 
  4096c0:	48 c7 43 18 00 00 00 	movq   $0x0,0x18(%rbx)
  4096c7:	00 
  4096c8:	c7 43 20 00 00 00 00 	movl   $0x0,0x20(%rbx)
  4096cf:	48 89 df             	mov    %rbx,%rdi
  4096d2:	e8 7d ff ff ff       	callq  409654 <_ZN3MapISsbE7BSTNodeC1Ev>
  4096d7:	48 8b 45 d0          	mov    -0x30(%rbp),%rax
  4096db:	48 89 18             	mov    %rbx,(%rax)
  4096de:	48 8b 45 d0          	mov    -0x30(%rbp),%rax
  4096e2:	48 8b 00             	mov    (%rax),%rax
  4096e5:	48 8b 55 c8          	mov    -0x38(%rbp),%rdx
  4096e9:	48 89 d6             	mov    %rdx,%rsi
  4096ec:	48 89 c7             	mov    %rax,%rdi
  4096ef:	e8 ec 91 ff ff       	callq  4028e0 <_ZNSsaSERKSs@plt>
  4096f4:	48 8b 45 d0          	mov    -0x30(%rbp),%rax
  4096f8:	48 8b 00             	mov    (%rax),%rax
  4096fb:	c6 40 08 00          	movb   $0x0,0x8(%rax)
  4096ff:	48 8b 45 d0          	mov    -0x30(%rbp),%rax
  409703:	48 8b 00             	mov    (%rax),%rax
  409706:	c7 40 20 00 00 00 00 	movl   $0x0,0x20(%rax)
  40970d:	48 8b 45 d0          	mov    -0x30(%rbp),%rax
  409711:	48 8b 10             	mov    (%rax),%rdx
  409714:	48 8b 45 d0          	mov    -0x30(%rbp),%rax
  409718:	48 8b 00             	mov    (%rax),%rax
  40971b:	48 c7 40 18 00 00 00 	movq   $0x0,0x18(%rax)
  409722:	00 
  409723:	48 8b 40 18          	mov    0x18(%rax),%rax
  409727:	48 89 42 10          	mov    %rax,0x10(%rdx)
  40972b:	48 8b 45 c0          	mov    -0x40(%rbp),%rax
  40972f:	c6 00 01             	movb   $0x1,(%rax)
  409732:	48 8b 45 d8          	mov    -0x28(%rbp),%rax
  409736:	8b 40 10             	mov    0x10(%rax),%eax
  409739:	8d 50 01             	lea    0x1(%rax),%edx
  40973c:	48 8b 45 d8          	mov    -0x28(%rbp),%rax
  409740:	89 50 10             	mov    %edx,0x10(%rax)
  409743:	48 8b 45 d0          	mov    -0x30(%rbp),%rax
  409747:	48 8b 00             	mov    (%rax),%rax
  40974a:	48 83 c0 08          	add    $0x8,%rax
  40974e:	e9 0f 01 00 00       	jmpq   409862 <_ZN3MapISsbE7addNodeERPNS0_7BSTNodeERKSsRb+0x1f4>
  409753:	48 8b 45 d0          	mov    -0x30(%rbp),%rax
  409757:	48 8b 00             	mov    (%rax),%rax
  40975a:	48 89 c2             	mov    %rax,%rdx
  40975d:	48 8b 4d c8          	mov    -0x38(%rbp),%rcx
  409761:	48 8b 45 d8          	mov    -0x28(%rbp),%rax
  409765:	48 89 ce             	mov    %rcx,%rsi
  409768:	48 89 c7             	mov    %rax,%rdi
  40976b:	e8 f6 05 00 00       	callq  409d66 <_ZNK3MapISsbE11compareKeysERKSsS2_>
  409770:	89 45 e4             	mov    %eax,-0x1c(%rbp)
  409773:	83 7d e4 00          	cmpl   $0x0,-0x1c(%rbp)
  409777:	75 10                	jne    409789 <_ZN3MapISsbE7addNodeERPNS0_7BSTNodeERKSsRb+0x11b>
  409779:	48 8b 45 d0          	mov    -0x30(%rbp),%rax
  40977d:	48 8b 00             	mov    (%rax),%rax
  409780:	48 83 c0 08          	add    $0x8,%rax
  409784:	e9 d9 00 00 00       	jmpq   409862 <_ZN3MapISsbE7addNodeERPNS0_7BSTNodeERKSsRb+0x1f4>
  409789:	48 c7 45 e8 00 00 00 	movq   $0x0,-0x18(%rbp)
  409790:	00 
  409791:	c7 45 e0 00 00 00 00 	movl   $0x0,-0x20(%rbp)
  409798:	83 7d e4 00          	cmpl   $0x0,-0x1c(%rbp)
  40979c:	79 37                	jns    4097d5 <_ZN3MapISsbE7addNodeERPNS0_7BSTNodeERKSsRb+0x167>
  40979e:	48 8b 45 d0          	mov    -0x30(%rbp),%rax
  4097a2:	48 8b 00             	mov    (%rax),%rax
  4097a5:	48 8d 70 10          	lea    0x10(%rax),%rsi
  4097a9:	48 8b 4d c0          	mov    -0x40(%rbp),%rcx
  4097ad:	48 8b 55 c8          	mov    -0x38(%rbp),%rdx
  4097b1:	48 8b 45 d8          	mov    -0x28(%rbp),%rax
  4097b5:	48 89 c7             	mov    %rax,%rdi
  4097b8:	e8 b1 fe ff ff       	callq  40966e <_ZN3MapISsbE7addNodeERPNS0_7BSTNodeERKSsRb>
  4097bd:	48 89 45 e8          	mov    %rax,-0x18(%rbp)
  4097c1:	48 8b 45 c0          	mov    -0x40(%rbp),%rax
  4097c5:	0f b6 00             	movzbl (%rax),%eax
  4097c8:	84 c0                	test   %al,%al
  4097ca:	74 3e                	je     40980a <_ZN3MapISsbE7addNodeERPNS0_7BSTNodeERKSsRb+0x19c>
  4097cc:	c7 45 e0 ff ff ff ff 	movl   $0xffffffff,-0x20(%rbp)
  4097d3:	eb 35                	jmp    40980a <_ZN3MapISsbE7addNodeERPNS0_7BSTNodeERKSsRb+0x19c>
  4097d5:	48 8b 45 d0          	mov    -0x30(%rbp),%rax
  4097d9:	48 8b 00             	mov    (%rax),%rax
  4097dc:	48 8d 70 18          	lea    0x18(%rax),%rsi
  4097e0:	48 8b 4d c0          	mov    -0x40(%rbp),%rcx
  4097e4:	48 8b 55 c8          	mov    -0x38(%rbp),%rdx
  4097e8:	48 8b 45 d8          	mov    -0x28(%rbp),%rax
  4097ec:	48 89 c7             	mov    %rax,%rdi
  4097ef:	e8 7a fe ff ff       	callq  40966e <_ZN3MapISsbE7addNodeERPNS0_7BSTNodeERKSsRb>
  4097f4:	48 89 45 e8          	mov    %rax,-0x18(%rbp)
  4097f8:	48 8b 45 c0          	mov    -0x40(%rbp),%rax
  4097fc:	0f b6 00             	movzbl (%rax),%eax
  4097ff:	84 c0                	test   %al,%al
  409801:	74 07                	je     40980a <_ZN3MapISsbE7addNodeERPNS0_7BSTNodeERKSsRb+0x19c>
  409803:	c7 45 e0 01 00 00 00 	movl   $0x1,-0x20(%rbp)
  40980a:	8b 55 e0             	mov    -0x20(%rbp),%edx
  40980d:	48 8b 4d d0          	mov    -0x30(%rbp),%rcx
  409811:	48 8b 45 d8          	mov    -0x28(%rbp),%rax
  409815:	48 89 ce             	mov    %rcx,%rsi
  409818:	48 89 c7             	mov    %rax,%rdi
  40981b:	e8 c6 05 00 00       	callq  409de6 <_ZN3MapISsbE8updateBFERPNS0_7BSTNodeEi>
  409820:	83 7d e0 00          	cmpl   $0x0,-0x20(%rbp)
  409824:	74 15                	je     40983b <_ZN3MapISsbE7addNodeERPNS0_7BSTNodeERKSsRb+0x1cd>
  409826:	48 8b 45 d0          	mov    -0x30(%rbp),%rax
  40982a:	48 8b 00             	mov    (%rax),%rax
  40982d:	8b 40 20             	mov    0x20(%rax),%eax
  409830:	85 c0                	test   %eax,%eax
  409832:	74 07                	je     40983b <_ZN3MapISsbE7addNodeERPNS0_7BSTNodeERKSsRb+0x1cd>
  409834:	b8 01 00 00 00       	mov    $0x1,%eax
  409839:	eb 05                	jmp    409840 <_ZN3MapISsbE7addNodeERPNS0_7BSTNodeERKSsRb+0x1d2>
  40983b:	b8 00 00 00 00       	mov    $0x0,%eax
  409840:	48 8b 55 c0          	mov    -0x40(%rbp),%rdx
  409844:	88 02                	mov    %al,(%rdx)
  409846:	48 8b 45 e8          	mov    -0x18(%rbp),%rax
  40984a:	eb 16                	jmp    409862 <_ZN3MapISsbE7addNodeERPNS0_7BSTNodeERKSsRb+0x1f4>
  40984c:	49 89 c4             	mov    %rax,%r12
  40984f:	48 89 df             	mov    %rbx,%rdi
  409852:	e8 09 8c ff ff       	callq  402460 <_ZdlPv@plt>
  409857:	4c 89 e0             	mov    %r12,%rax
  40985a:	48 89 c7             	mov    %rax,%rdi
  40985d:	e8 6e 90 ff ff       	callq  4028d0 <_Unwind_Resume@plt>
  409862:	48 83 c4 30          	add    $0x30,%rsp
  409866:	5b                   	pop    %rbx
  409867:	41 5c                	pop    %r12
  409869:	5d                   	pop    %rbp
  40986a:	c3                   	retq   
  40986b:	90                   	nop

000000000040986c <_ZN3MapISsbE8copyTreeEPNS0_7BSTNodeE>:
  40986c:	55                   	push   %rbp
  40986d:	48 89 e5             	mov    %rsp,%rbp
  409870:	41 54                	push   %r12
  409872:	53                   	push   %rbx
  409873:	48 83 ec 20          	sub    $0x20,%rsp
  409877:	48 89 7d d8          	mov    %rdi,-0x28(%rbp)
  40987b:	48 89 75 d0          	mov    %rsi,-0x30(%rbp)
  40987f:	48 83 7d d0 00       	cmpq   $0x0,-0x30(%rbp)
  409884:	75 0a                	jne    409890 <_ZN3MapISsbE8copyTreeEPNS0_7BSTNodeE+0x24>
  409886:	b8 00 00 00 00       	mov    $0x0,%eax
  40988b:	e9 c5 00 00 00       	jmpq   409955 <_ZN3MapISsbE8copyTreeEPNS0_7BSTNodeE+0xe9>
  409890:	bf 28 00 00 00       	mov    $0x28,%edi
  409895:	e8 26 90 ff ff       	callq  4028c0 <_Znwm@plt>
  40989a:	48 89 c3             	mov    %rax,%rbx
  40989d:	48 c7 03 00 00 00 00 	movq   $0x0,(%rbx)
  4098a4:	c6 43 08 00          	movb   $0x0,0x8(%rbx)
  4098a8:	48 c7 43 10 00 00 00 	movq   $0x0,0x10(%rbx)
  4098af:	00 
  4098b0:	48 c7 43 18 00 00 00 	movq   $0x0,0x18(%rbx)
  4098b7:	00 
  4098b8:	c7 43 20 00 00 00 00 	movl   $0x0,0x20(%rbx)
  4098bf:	48 89 df             	mov    %rbx,%rdi
  4098c2:	e8 8d fd ff ff       	callq  409654 <_ZN3MapISsbE7BSTNodeC1Ev>
  4098c7:	48 89 5d e8          	mov    %rbx,-0x18(%rbp)
  4098cb:	48 8b 55 d0          	mov    -0x30(%rbp),%rdx
  4098cf:	48 8b 45 e8          	mov    -0x18(%rbp),%rax
  4098d3:	48 89 d6             	mov    %rdx,%rsi
  4098d6:	48 89 c7             	mov    %rax,%rdi
  4098d9:	e8 02 90 ff ff       	callq  4028e0 <_ZNSsaSERKSs@plt>
  4098de:	48 8b 45 d0          	mov    -0x30(%rbp),%rax
  4098e2:	0f b6 50 08          	movzbl 0x8(%rax),%edx
  4098e6:	48 8b 45 e8          	mov    -0x18(%rbp),%rax
  4098ea:	88 50 08             	mov    %dl,0x8(%rax)
  4098ed:	48 8b 45 d0          	mov    -0x30(%rbp),%rax
  4098f1:	8b 50 20             	mov    0x20(%rax),%edx
  4098f4:	48 8b 45 e8          	mov    -0x18(%rbp),%rax
  4098f8:	89 50 20             	mov    %edx,0x20(%rax)
  4098fb:	48 8b 45 d0          	mov    -0x30(%rbp),%rax
  4098ff:	48 8b 50 10          	mov    0x10(%rax),%rdx
  409903:	48 8b 45 d8          	mov    -0x28(%rbp),%rax
  409907:	48 89 d6             	mov    %rdx,%rsi
  40990a:	48 89 c7             	mov    %rax,%rdi
  40990d:	e8 5a ff ff ff       	callq  40986c <_ZN3MapISsbE8copyTreeEPNS0_7BSTNodeE>
  409912:	48 8b 55 e8          	mov    -0x18(%rbp),%rdx
  409916:	48 89 42 10          	mov    %rax,0x10(%rdx)
  40991a:	48 8b 45 d0          	mov    -0x30(%rbp),%rax
  40991e:	48 8b 50 18          	mov    0x18(%rax),%rdx
  409922:	48 8b 45 d8          	mov    -0x28(%rbp),%rax
  409926:	48 89 d6             	mov    %rdx,%rsi
  409929:	48 89 c7             	mov    %rax,%rdi
  40992c:	e8 3b ff ff ff       	callq  40986c <_ZN3MapISsbE8copyTreeEPNS0_7BSTNodeE>
  409931:	48 8b 55 e8          	mov    -0x18(%rbp),%rdx
  409935:	48 89 42 18          	mov    %rax,0x18(%rdx)
  409939:	48 8b 45 e8          	mov    -0x18(%rbp),%rax
  40993d:	eb 16                	jmp    409955 <_ZN3MapISsbE8copyTreeEPNS0_7BSTNodeE+0xe9>
  40993f:	49 89 c4             	mov    %rax,%r12
  409942:	48 89 df             	mov    %rbx,%rdi
  409945:	e8 16 8b ff ff       	callq  402460 <_ZdlPv@plt>
  40994a:	4c 89 e0             	mov    %r12,%rax
  40994d:	48 89 c7             	mov    %rax,%rdi
  409950:	e8 7b 8f ff ff       	callq  4028d0 <_Unwind_Resume@plt>
  409955:	48 83 c4 20          	add    $0x20,%rsp
  409959:	5b                   	pop    %rbx
  40995a:	41 5c                	pop    %r12
  40995c:	5d                   	pop    %rbp
  40995d:	c3                   	retq   

000000000040995e <_ZNK5StackIN3MapISsbE8iterator10NodeMarkerEE4peekEv>:
  40995e:	55                   	push   %rbp
  40995f:	48 89 e5             	mov    %rsp,%rbp
  409962:	53                   	push   %rbx
  409963:	48 83 ec 38          	sub    $0x38,%rsp
  409967:	48 89 7d c8          	mov    %rdi,-0x38(%rbp)
  40996b:	48 8b 45 c8          	mov    -0x38(%rbp),%rax
  40996f:	48 89 c7             	mov    %rax,%rdi
  409972:	e8 a1 01 00 00       	callq  409b18 <_ZNK5StackIN3MapISsbE8iterator10NodeMarkerEE7isEmptyEv>
  409977:	84 c0                	test   %al,%al
  409979:	74 45                	je     4099c0 <_ZNK5StackIN3MapISsbE8iterator10NodeMarkerEE4peekEv+0x62>
  40997b:	48 8d 45 df          	lea    -0x21(%rbp),%rax
  40997f:	48 89 c7             	mov    %rax,%rdi
  409982:	e8 e9 8e ff ff       	callq  402870 <_ZNSaIcEC1Ev@plt>
  409987:	48 8d 55 df          	lea    -0x21(%rbp),%rdx
  40998b:	48 8d 45 e0          	lea    -0x20(%rbp),%rax
  40998f:	be 88 c4 40 00       	mov    $0x40c488,%esi
  409994:	48 89 c7             	mov    %rax,%rdi
  409997:	e8 84 8c ff ff       	callq  402620 <_ZNSsC1EPKcRKSaIcE@plt>
  40999c:	48 8d 45 e0          	lea    -0x20(%rbp),%rax
  4099a0:	48 89 c7             	mov    %rax,%rdi
  4099a3:	e8 ed 27 00 00       	callq  40c195 <_Z5errorSs>
  4099a8:	48 8d 45 e0          	lea    -0x20(%rbp),%rax
  4099ac:	48 89 c7             	mov    %rax,%rdi
  4099af:	e8 ec 8b ff ff       	callq  4025a0 <_ZNSsD1Ev@plt>
  4099b4:	48 8d 45 df          	lea    -0x21(%rbp),%rax
  4099b8:	48 89 c7             	mov    %rax,%rdi
  4099bb:	e8 70 8d ff ff       	callq  402730 <_ZNSaIcED1Ev@plt>
  4099c0:	48 8b 45 c8          	mov    -0x38(%rbp),%rax
  4099c4:	48 83 c0 08          	add    $0x8,%rax
  4099c8:	48 89 c7             	mov    %rax,%rdi
  4099cb:	e8 8a 04 00 00       	callq  409e5a <_ZNK6VectorIN3MapISsbE8iterator10NodeMarkerEE4sizeEv>
  4099d0:	8d 50 ff             	lea    -0x1(%rax),%edx
  4099d3:	48 8b 45 c8          	mov    -0x38(%rbp),%rax
  4099d7:	48 83 c0 08          	add    $0x8,%rax
  4099db:	89 d6                	mov    %edx,%esi
  4099dd:	48 89 c7             	mov    %rax,%rdi
  4099e0:	e8 87 04 00 00       	callq  409e6c <_ZNK6VectorIN3MapISsbE8iterator10NodeMarkerEE3getEi>
  4099e5:	48 8b 50 08          	mov    0x8(%rax),%rdx
  4099e9:	48 8b 00             	mov    (%rax),%rax
  4099ec:	eb 2b                	jmp    409a19 <_ZNK5StackIN3MapISsbE8iterator10NodeMarkerEE4peekEv+0xbb>
  4099ee:	48 89 c3             	mov    %rax,%rbx
  4099f1:	48 8d 45 e0          	lea    -0x20(%rbp),%rax
  4099f5:	48 89 c7             	mov    %rax,%rdi
  4099f8:	e8 a3 8b ff ff       	callq  4025a0 <_ZNSsD1Ev@plt>
  4099fd:	eb 03                	jmp    409a02 <_ZNK5StackIN3MapISsbE8iterator10NodeMarkerEE4peekEv+0xa4>
  4099ff:	48 89 c3             	mov    %rax,%rbx
  409a02:	48 8d 45 df          	lea    -0x21(%rbp),%rax
  409a06:	48 89 c7             	mov    %rax,%rdi
  409a09:	e8 22 8d ff ff       	callq  402730 <_ZNSaIcED1Ev@plt>
  409a0e:	48 89 d8             	mov    %rbx,%rax
  409a11:	48 89 c7             	mov    %rax,%rdi
  409a14:	e8 b7 8e ff ff       	callq  4028d0 <_Unwind_Resume@plt>
  409a19:	48 83 c4 38          	add    $0x38,%rsp
  409a1d:	5b                   	pop    %rbx
  409a1e:	5d                   	pop    %rbp
  409a1f:	c3                   	retq   

0000000000409a20 <_ZN5StackIN3MapISsbE8iterator10NodeMarkerEE3popEv>:
  409a20:	55                   	push   %rbp
  409a21:	48 89 e5             	mov    %rsp,%rbp
  409a24:	53                   	push   %rbx
  409a25:	48 83 ec 38          	sub    $0x38,%rsp
  409a29:	48 89 7d c8          	mov    %rdi,-0x38(%rbp)
  409a2d:	48 8b 45 c8          	mov    -0x38(%rbp),%rax
  409a31:	48 89 c7             	mov    %rax,%rdi
  409a34:	e8 df 00 00 00       	callq  409b18 <_ZNK5StackIN3MapISsbE8iterator10NodeMarkerEE7isEmptyEv>
  409a39:	84 c0                	test   %al,%al
  409a3b:	74 45                	je     409a82 <_ZN5StackIN3MapISsbE8iterator10NodeMarkerEE3popEv+0x62>
  409a3d:	48 8d 45 df          	lea    -0x21(%rbp),%rax
  409a41:	48 89 c7             	mov    %rax,%rdi
  409a44:	e8 27 8e ff ff       	callq  402870 <_ZNSaIcEC1Ev@plt>
  409a49:	48 8d 55 df          	lea    -0x21(%rbp),%rdx
  409a4d:	48 8d 45 e0          	lea    -0x20(%rbp),%rax
  409a51:	be 28 c4 40 00       	mov    $0x40c428,%esi
  409a56:	48 89 c7             	mov    %rax,%rdi
  409a59:	e8 c2 8b ff ff       	callq  402620 <_ZNSsC1EPKcRKSaIcE@plt>
  409a5e:	48 8d 45 e0          	lea    -0x20(%rbp),%rax
  409a62:	48 89 c7             	mov    %rax,%rdi
  409a65:	e8 2b 27 00 00       	callq  40c195 <_Z5errorSs>
  409a6a:	48 8d 45 e0          	lea    -0x20(%rbp),%rax
  409a6e:	48 89 c7             	mov    %rax,%rdi
  409a71:	e8 2a 8b ff ff       	callq  4025a0 <_ZNSsD1Ev@plt>
  409a76:	48 8d 45 df          	lea    -0x21(%rbp),%rax
  409a7a:	48 89 c7             	mov    %rax,%rdi
  409a7d:	e8 ae 8c ff ff       	callq  402730 <_ZNSaIcED1Ev@plt>
  409a82:	48 8b 45 c8          	mov    -0x38(%rbp),%rax
  409a86:	48 83 c0 08          	add    $0x8,%rax
  409a8a:	48 89 c7             	mov    %rax,%rdi
  409a8d:	e8 c8 03 00 00       	callq  409e5a <_ZNK6VectorIN3MapISsbE8iterator10NodeMarkerEE4sizeEv>
  409a92:	8d 50 ff             	lea    -0x1(%rax),%edx
  409a95:	48 8b 45 c8          	mov    -0x38(%rbp),%rax
  409a99:	48 83 c0 08          	add    $0x8,%rax
  409a9d:	89 d6                	mov    %edx,%esi
  409a9f:	48 89 c7             	mov    %rax,%rdi
  409aa2:	e8 75 04 00 00       	callq  409f1c <_ZN6VectorIN3MapISsbE8iterator10NodeMarkerEEixEi>
  409aa7:	48 8b 50 08          	mov    0x8(%rax),%rdx
  409aab:	48 8b 00             	mov    (%rax),%rax
  409aae:	48 89 45 e0          	mov    %rax,-0x20(%rbp)
  409ab2:	48 89 55 e8          	mov    %rdx,-0x18(%rbp)
  409ab6:	48 8b 45 c8          	mov    -0x38(%rbp),%rax
  409aba:	48 83 c0 08          	add    $0x8,%rax
  409abe:	48 89 c7             	mov    %rax,%rdi
  409ac1:	e8 94 03 00 00       	callq  409e5a <_ZNK6VectorIN3MapISsbE8iterator10NodeMarkerEE4sizeEv>
  409ac6:	8d 50 ff             	lea    -0x1(%rax),%edx
  409ac9:	48 8b 45 c8          	mov    -0x38(%rbp),%rax
  409acd:	48 83 c0 08          	add    $0x8,%rax
  409ad1:	89 d6                	mov    %edx,%esi
  409ad3:	48 89 c7             	mov    %rax,%rdi
  409ad6:	e8 f1 04 00 00       	callq  409fcc <_ZN6VectorIN3MapISsbE8iterator10NodeMarkerEE6removeEi>
  409adb:	48 8b 45 e0          	mov    -0x20(%rbp),%rax
  409adf:	48 8b 55 e8          	mov    -0x18(%rbp),%rdx
  409ae3:	eb 2b                	jmp    409b10 <_ZN5StackIN3MapISsbE8iterator10NodeMarkerEE3popEv+0xf0>
  409ae5:	48 89 c3             	mov    %rax,%rbx
  409ae8:	48 8d 45 e0          	lea    -0x20(%rbp),%rax
  409aec:	48 89 c7             	mov    %rax,%rdi
  409aef:	e8 ac 8a ff ff       	callq  4025a0 <_ZNSsD1Ev@plt>
  409af4:	eb 03                	jmp    409af9 <_ZN5StackIN3MapISsbE8iterator10NodeMarkerEE3popEv+0xd9>
  409af6:	48 89 c3             	mov    %rax,%rbx
  409af9:	48 8d 45 df          	lea    -0x21(%rbp),%rax
  409afd:	48 89 c7             	mov    %rax,%rdi
  409b00:	e8 2b 8c ff ff       	callq  402730 <_ZNSaIcED1Ev@plt>
  409b05:	48 89 d8             	mov    %rbx,%rax
  409b08:	48 89 c7             	mov    %rax,%rdi
  409b0b:	e8 c0 8d ff ff       	callq  4028d0 <_Unwind_Resume@plt>
  409b10:	48 83 c4 38          	add    $0x38,%rsp
  409b14:	5b                   	pop    %rbx
  409b15:	5d                   	pop    %rbp
  409b16:	c3                   	retq   
  409b17:	90                   	nop

0000000000409b18 <_ZNK5StackIN3MapISsbE8iterator10NodeMarkerEE7isEmptyEv>:
  409b18:	55                   	push   %rbp
  409b19:	48 89 e5             	mov    %rsp,%rbp
  409b1c:	48 83 ec 10          	sub    $0x10,%rsp
  409b20:	48 89 7d f8          	mov    %rdi,-0x8(%rbp)
  409b24:	48 8b 45 f8          	mov    -0x8(%rbp),%rax
  409b28:	48 89 c7             	mov    %rax,%rdi
  409b2b:	e8 a0 05 00 00       	callq  40a0d0 <_ZNK5StackIN3MapISsbE8iterator10NodeMarkerEE4sizeEv>
  409b30:	85 c0                	test   %eax,%eax
  409b32:	0f 94 c0             	sete   %al
  409b35:	c9                   	leaveq 
  409b36:	c3                   	retq   
  409b37:	90                   	nop

0000000000409b38 <_ZN5StackIN3MapISsbE8iterator10NodeMarkerEE4pushES3_>:
  409b38:	55                   	push   %rbp
  409b39:	48 89 e5             	mov    %rsp,%rbp
  409b3c:	48 83 ec 20          	sub    $0x20,%rsp
  409b40:	48 89 7d f8          	mov    %rdi,-0x8(%rbp)
  409b44:	48 89 f0             	mov    %rsi,%rax
  409b47:	48 89 d1             	mov    %rdx,%rcx
  409b4a:	48 89 ca             	mov    %rcx,%rdx
  409b4d:	48 89 45 e0          	mov    %rax,-0x20(%rbp)
  409b51:	48 89 55 e8          	mov    %rdx,-0x18(%rbp)
  409b55:	48 8b 45 f8          	mov    -0x8(%rbp),%rax
  409b59:	48 8d 48 08          	lea    0x8(%rax),%rcx
  409b5d:	48 8b 55 e0          	mov    -0x20(%rbp),%rdx
  409b61:	48 8b 45 e8          	mov    -0x18(%rbp),%rax
  409b65:	48 89 d6             	mov    %rdx,%rsi
  409b68:	48 89 c2             	mov    %rax,%rdx
  409b6b:	48 89 cf             	mov    %rcx,%rdi
  409b6e:	e8 7b 05 00 00       	callq  40a0ee <_ZN6VectorIN3MapISsbE8iterator10NodeMarkerEE3addES3_>
  409b73:	c9                   	leaveq 
  409b74:	c3                   	retq   
  409b75:	90                   	nop

0000000000409b76 <_ZN3MapISsbE8iterator17findLeftmostChildEv>:
  409b76:	55                   	push   %rbp
  409b77:	48 89 e5             	mov    %rsp,%rbp
  409b7a:	48 83 ec 30          	sub    $0x30,%rsp
  409b7e:	48 89 7d d8          	mov    %rdi,-0x28(%rbp)
  409b82:	48 8b 45 d8          	mov    -0x28(%rbp),%rax
  409b86:	48 83 c0 10          	add    $0x10,%rax
  409b8a:	48 89 c7             	mov    %rax,%rdi
  409b8d:	e8 cc fd ff ff       	callq  40995e <_ZNK5StackIN3MapISsbE8iterator10NodeMarkerEE4peekEv>
  409b92:	48 89 45 e8          	mov    %rax,-0x18(%rbp)
  409b96:	48 83 7d e8 00       	cmpq   $0x0,-0x18(%rbp)
  409b9b:	75 02                	jne    409b9f <_ZN3MapISsbE8iterator17findLeftmostChildEv+0x29>
  409b9d:	eb 55                	jmp    409bf4 <_ZN3MapISsbE8iterator17findLeftmostChildEv+0x7e>
  409b9f:	eb 46                	jmp    409be7 <_ZN3MapISsbE8iterator17findLeftmostChildEv+0x71>
  409ba1:	48 c7 45 f0 00 00 00 	movq   $0x0,-0x10(%rbp)
  409ba8:	00 
  409ba9:	48 c7 45 f8 00 00 00 	movq   $0x0,-0x8(%rbp)
  409bb0:	00 
  409bb1:	48 8b 45 e8          	mov    -0x18(%rbp),%rax
  409bb5:	48 8b 40 10          	mov    0x10(%rax),%rax
  409bb9:	48 89 45 f0          	mov    %rax,-0x10(%rbp)
  409bbd:	48 8b 45 d8          	mov    -0x28(%rbp),%rax
  409bc1:	48 8d 48 10          	lea    0x10(%rax),%rcx
  409bc5:	48 8b 55 f0          	mov    -0x10(%rbp),%rdx
  409bc9:	48 8b 45 f8          	mov    -0x8(%rbp),%rax
  409bcd:	48 89 d6             	mov    %rdx,%rsi
  409bd0:	48 89 c2             	mov    %rax,%rdx
  409bd3:	48 89 cf             	mov    %rcx,%rdi
  409bd6:	e8 5d ff ff ff       	callq  409b38 <_ZN5StackIN3MapISsbE8iterator10NodeMarkerEE4pushES3_>
  409bdb:	48 8b 45 e8          	mov    -0x18(%rbp),%rax
  409bdf:	48 8b 40 10          	mov    0x10(%rax),%rax
  409be3:	48 89 45 e8          	mov    %rax,-0x18(%rbp)
  409be7:	48 8b 45 e8          	mov    -0x18(%rbp),%rax
  409beb:	48 8b 40 10          	mov    0x10(%rax),%rax
  409bef:	48 85 c0             	test   %rax,%rax
  409bf2:	75 ad                	jne    409ba1 <_ZN3MapISsbE8iterator17findLeftmostChildEv+0x2b>
  409bf4:	c9                   	leaveq 
  409bf5:	c3                   	retq   

0000000000409bf6 <_ZN6VectorIPN7Lexicon4EdgeEE6insertEiS2_>:
  409bf6:	55                   	push   %rbp
  409bf7:	48 89 e5             	mov    %rsp,%rbp
  409bfa:	53                   	push   %rbx
  409bfb:	48 83 ec 48          	sub    $0x48,%rsp
  409bff:	48 89 7d c8          	mov    %rdi,-0x38(%rbp)
  409c03:	89 75 c4             	mov    %esi,-0x3c(%rbp)
  409c06:	48 89 55 b8          	mov    %rdx,-0x48(%rbp)
  409c0a:	48 8b 45 c8          	mov    -0x38(%rbp),%rax
  409c0e:	8b 50 14             	mov    0x14(%rax),%edx
  409c11:	48 8b 45 c8          	mov    -0x38(%rbp),%rax
  409c15:	8b 40 10             	mov    0x10(%rax),%eax
  409c18:	39 c2                	cmp    %eax,%edx
  409c1a:	75 0c                	jne    409c28 <_ZN6VectorIPN7Lexicon4EdgeEE6insertEiS2_+0x32>
  409c1c:	48 8b 45 c8          	mov    -0x38(%rbp),%rax
  409c20:	48 89 c7             	mov    %rax,%rdi
  409c23:	e8 04 05 00 00       	callq  40a12c <_ZN6VectorIPN7Lexicon4EdgeEE14expandCapacityEv>
  409c28:	83 7d c4 00          	cmpl   $0x0,-0x3c(%rbp)
  409c2c:	78 0c                	js     409c3a <_ZN6VectorIPN7Lexicon4EdgeEE6insertEiS2_+0x44>
  409c2e:	48 8b 45 c8          	mov    -0x38(%rbp),%rax
  409c32:	8b 40 14             	mov    0x14(%rax),%eax
  409c35:	3b 45 c4             	cmp    -0x3c(%rbp),%eax
  409c38:	7d 45                	jge    409c7f <_ZN6VectorIPN7Lexicon4EdgeEE6insertEiS2_+0x89>
  409c3a:	48 8d 45 db          	lea    -0x25(%rbp),%rax
  409c3e:	48 89 c7             	mov    %rax,%rdi
  409c41:	e8 2a 8c ff ff       	callq  402870 <_ZNSaIcEC1Ev@plt>
  409c46:	48 8d 55 db          	lea    -0x25(%rbp),%rdx
  409c4a:	48 8d 45 e0          	lea    -0x20(%rbp),%rax
  409c4e:	be b3 c4 40 00       	mov    $0x40c4b3,%esi
  409c53:	48 89 c7             	mov    %rax,%rdi
  409c56:	e8 c5 89 ff ff       	callq  402620 <_ZNSsC1EPKcRKSaIcE@plt>
  409c5b:	48 8d 45 e0          	lea    -0x20(%rbp),%rax
  409c5f:	48 89 c7             	mov    %rax,%rdi
  409c62:	e8 2e 25 00 00       	callq  40c195 <_Z5errorSs>
  409c67:	48 8d 45 e0          	lea    -0x20(%rbp),%rax
  409c6b:	48 89 c7             	mov    %rax,%rdi
  409c6e:	e8 2d 89 ff ff       	callq  4025a0 <_ZNSsD1Ev@plt>
  409c73:	48 8d 45 db          	lea    -0x25(%rbp),%rax
  409c77:	48 89 c7             	mov    %rax,%rdi
  409c7a:	e8 b1 8a ff ff       	callq  402730 <_ZNSaIcED1Ev@plt>
  409c7f:	48 8b 45 c8          	mov    -0x38(%rbp),%rax
  409c83:	8b 40 14             	mov    0x14(%rax),%eax
  409c86:	89 45 dc             	mov    %eax,-0x24(%rbp)
  409c89:	eb 38                	jmp    409cc3 <_ZN6VectorIPN7Lexicon4EdgeEE6insertEiS2_+0xcd>
  409c8b:	48 8b 45 c8          	mov    -0x38(%rbp),%rax
  409c8f:	48 8b 40 08          	mov    0x8(%rax),%rax
  409c93:	8b 55 dc             	mov    -0x24(%rbp),%edx
  409c96:	48 63 d2             	movslq %edx,%rdx
  409c99:	48 c1 e2 03          	shl    $0x3,%rdx
  409c9d:	48 01 c2             	add    %rax,%rdx
  409ca0:	48 8b 45 c8          	mov    -0x38(%rbp),%rax
  409ca4:	48 8b 40 08          	mov    0x8(%rax),%rax
  409ca8:	8b 4d dc             	mov    -0x24(%rbp),%ecx
  409cab:	48 63 c9             	movslq %ecx,%rcx
  409cae:	48 c1 e1 03          	shl    $0x3,%rcx
  409cb2:	48 83 e9 08          	sub    $0x8,%rcx
  409cb6:	48 01 c8             	add    %rcx,%rax
  409cb9:	48 8b 00             	mov    (%rax),%rax
  409cbc:	48 89 02             	mov    %rax,(%rdx)
  409cbf:	83 6d dc 01          	subl   $0x1,-0x24(%rbp)
  409cc3:	8b 45 dc             	mov    -0x24(%rbp),%eax
  409cc6:	3b 45 c4             	cmp    -0x3c(%rbp),%eax
  409cc9:	7f c0                	jg     409c8b <_ZN6VectorIPN7Lexicon4EdgeEE6insertEiS2_+0x95>
  409ccb:	48 8b 45 c8          	mov    -0x38(%rbp),%rax
  409ccf:	48 8b 40 08          	mov    0x8(%rax),%rax
  409cd3:	8b 55 c4             	mov    -0x3c(%rbp),%edx
  409cd6:	48 63 d2             	movslq %edx,%rdx
  409cd9:	48 c1 e2 03          	shl    $0x3,%rdx
  409cdd:	48 01 c2             	add    %rax,%rdx
  409ce0:	48 8b 45 b8          	mov    -0x48(%rbp),%rax
  409ce4:	48 89 02             	mov    %rax,(%rdx)
  409ce7:	48 8b 45 c8          	mov    -0x38(%rbp),%rax
  409ceb:	8b 40 14             	mov    0x14(%rax),%eax
  409cee:	8d 50 01             	lea    0x1(%rax),%edx
  409cf1:	48 8b 45 c8          	mov    -0x38(%rbp),%rax
  409cf5:	89 50 14             	mov    %edx,0x14(%rax)
  409cf8:	eb 2b                	jmp    409d25 <_ZN6VectorIPN7Lexicon4EdgeEE6insertEiS2_+0x12f>
  409cfa:	48 89 c3             	mov    %rax,%rbx
  409cfd:	48 8d 45 e0          	lea    -0x20(%rbp),%rax
  409d01:	48 89 c7             	mov    %rax,%rdi
  409d04:	e8 97 88 ff ff       	callq  4025a0 <_ZNSsD1Ev@plt>
  409d09:	eb 03                	jmp    409d0e <_ZN6VectorIPN7Lexicon4EdgeEE6insertEiS2_+0x118>
  409d0b:	48 89 c3             	mov    %rax,%rbx
  409d0e:	48 8d 45 db          	lea    -0x25(%rbp),%rax
  409d12:	48 89 c7             	mov    %rax,%rdi
  409d15:	e8 16 8a ff ff       	callq  402730 <_ZNSaIcED1Ev@plt>
  409d1a:	48 89 d8             	mov    %rbx,%rax
  409d1d:	48 89 c7             	mov    %rax,%rdi
  409d20:	e8 ab 8b ff ff       	callq  4028d0 <_Unwind_Resume@plt>
  409d25:	48 83 c4 48          	add    $0x48,%rsp
  409d29:	5b                   	pop    %rbx
  409d2a:	5d                   	pop    %rbp
  409d2b:	c3                   	retq   

0000000000409d2c <_ZN6VectorIN3MapISsbE8iterator10NodeMarkerEEC1Ev>:
  409d2c:	55                   	push   %rbp
  409d2d:	48 89 e5             	mov    %rsp,%rbp
  409d30:	48 89 7d f8          	mov    %rdi,-0x8(%rbp)
  409d34:	48 8b 45 f8          	mov    -0x8(%rbp),%rax
  409d38:	48 c7 00 30 c6 40 00 	movq   $0x40c630,(%rax)
  409d3f:	48 8b 45 f8          	mov    -0x8(%rbp),%rax
  409d43:	c7 40 10 00 00 00 00 	movl   $0x0,0x10(%rax)
  409d4a:	48 8b 45 f8          	mov    -0x8(%rbp),%rax
  409d4e:	8b 50 10             	mov    0x10(%rax),%edx
  409d51:	48 8b 45 f8          	mov    -0x8(%rbp),%rax
  409d55:	89 50 14             	mov    %edx,0x14(%rax)
  409d58:	48 8b 45 f8          	mov    -0x8(%rbp),%rax
  409d5c:	48 c7 40 08 00 00 00 	movq   $0x0,0x8(%rax)
  409d63:	00 
  409d64:	5d                   	pop    %rbp
  409d65:	c3                   	retq   

0000000000409d66 <_ZNK3MapISsbE11compareKeysERKSsS2_>:
  409d66:	55                   	push   %rbp
  409d67:	48 89 e5             	mov    %rsp,%rbp
  409d6a:	48 83 ec 20          	sub    $0x20,%rsp
  409d6e:	48 89 7d f8          	mov    %rdi,-0x8(%rbp)
  409d72:	48 89 75 f0          	mov    %rsi,-0x10(%rbp)
  409d76:	48 89 55 e8          	mov    %rdx,-0x18(%rbp)
  409d7a:	48 8b 45 f8          	mov    -0x8(%rbp),%rax
  409d7e:	48 8b 40 18          	mov    0x18(%rax),%rax
  409d82:	48 8b 00             	mov    (%rax),%rax
  409d85:	48 83 c0 10          	add    $0x10,%rax
  409d89:	48 8b 00             	mov    (%rax),%rax
  409d8c:	48 8b 55 f8          	mov    -0x8(%rbp),%rdx
  409d90:	48 8b 4a 18          	mov    0x18(%rdx),%rcx
  409d94:	48 8b 55 e8          	mov    -0x18(%rbp),%rdx
  409d98:	48 8b 75 f0          	mov    -0x10(%rbp),%rsi
  409d9c:	48 89 cf             	mov    %rcx,%rdi
  409d9f:	ff d0                	callq  *%rax
  409da1:	84 c0                	test   %al,%al
  409da3:	74 07                	je     409dac <_ZNK3MapISsbE11compareKeysERKSsS2_+0x46>
  409da5:	b8 ff ff ff ff       	mov    $0xffffffff,%eax
  409daa:	eb 37                	jmp    409de3 <_ZNK3MapISsbE11compareKeysERKSsS2_+0x7d>
  409dac:	48 8b 45 f8          	mov    -0x8(%rbp),%rax
  409db0:	48 8b 40 18          	mov    0x18(%rax),%rax
  409db4:	48 8b 00             	mov    (%rax),%rax
  409db7:	48 83 c0 10          	add    $0x10,%rax
  409dbb:	48 8b 00             	mov    (%rax),%rax
  409dbe:	48 8b 55 f8          	mov    -0x8(%rbp),%rdx
  409dc2:	48 8b 4a 18          	mov    0x18(%rdx),%rcx
  409dc6:	48 8b 55 f0          	mov    -0x10(%rbp),%rdx
  409dca:	48 8b 75 e8          	mov    -0x18(%rbp),%rsi
  409dce:	48 89 cf             	mov    %rcx,%rdi
  409dd1:	ff d0                	callq  *%rax
  409dd3:	84 c0                	test   %al,%al
  409dd5:	74 07                	je     409dde <_ZNK3MapISsbE11compareKeysERKSsS2_+0x78>
  409dd7:	b8 01 00 00 00       	mov    $0x1,%eax
  409ddc:	eb 05                	jmp    409de3 <_ZNK3MapISsbE11compareKeysERKSsS2_+0x7d>
  409dde:	b8 00 00 00 00       	mov    $0x0,%eax
  409de3:	c9                   	leaveq 
  409de4:	c3                   	retq   
  409de5:	90                   	nop

0000000000409de6 <_ZN3MapISsbE8updateBFERPNS0_7BSTNodeEi>:
  409de6:	55                   	push   %rbp
  409de7:	48 89 e5             	mov    %rsp,%rbp
  409dea:	48 83 ec 20          	sub    $0x20,%rsp
  409dee:	48 89 7d f8          	mov    %rdi,-0x8(%rbp)
  409df2:	48 89 75 f0          	mov    %rsi,-0x10(%rbp)
  409df6:	89 55 ec             	mov    %edx,-0x14(%rbp)
  409df9:	48 8b 45 f0          	mov    -0x10(%rbp),%rax
  409dfd:	48 8b 00             	mov    (%rax),%rax
  409e00:	48 8b 55 f0          	mov    -0x10(%rbp),%rdx
  409e04:	48 8b 12             	mov    (%rdx),%rdx
  409e07:	8b 4a 20             	mov    0x20(%rdx),%ecx
  409e0a:	8b 55 ec             	mov    -0x14(%rbp),%edx
  409e0d:	01 ca                	add    %ecx,%edx
  409e0f:	89 50 20             	mov    %edx,0x20(%rax)
  409e12:	48 8b 45 f0          	mov    -0x10(%rbp),%rax
  409e16:	48 8b 00             	mov    (%rax),%rax
  409e19:	8b 40 20             	mov    0x20(%rax),%eax
  409e1c:	83 f8 ff             	cmp    $0xffffffff,%eax
  409e1f:	7d 15                	jge    409e36 <_ZN3MapISsbE8updateBFERPNS0_7BSTNodeEi+0x50>
  409e21:	48 8b 55 f0          	mov    -0x10(%rbp),%rdx
  409e25:	48 8b 45 f8          	mov    -0x8(%rbp),%rax
  409e29:	48 89 d6             	mov    %rdx,%rsi
  409e2c:	48 89 c7             	mov    %rax,%rdi
  409e2f:	e8 e4 03 00 00       	callq  40a218 <_ZN3MapISsbE16fixLeftImbalanceERPNS0_7BSTNodeE>
  409e34:	eb 22                	jmp    409e58 <_ZN3MapISsbE8updateBFERPNS0_7BSTNodeEi+0x72>
  409e36:	48 8b 45 f0          	mov    -0x10(%rbp),%rax
  409e3a:	48 8b 00             	mov    (%rax),%rax
  409e3d:	8b 40 20             	mov    0x20(%rax),%eax
  409e40:	83 f8 01             	cmp    $0x1,%eax
  409e43:	7e 13                	jle    409e58 <_ZN3MapISsbE8updateBFERPNS0_7BSTNodeEi+0x72>
  409e45:	48 8b 55 f0          	mov    -0x10(%rbp),%rdx
  409e49:	48 8b 45 f8          	mov    -0x8(%rbp),%rax
  409e4d:	48 89 d6             	mov    %rdx,%rsi
  409e50:	48 89 c7             	mov    %rax,%rdi
  409e53:	e8 34 05 00 00       	callq  40a38c <_ZN3MapISsbE17fixRightImbalanceERPNS0_7BSTNodeE>
  409e58:	c9                   	leaveq 
  409e59:	c3                   	retq   

0000000000409e5a <_ZNK6VectorIN3MapISsbE8iterator10NodeMarkerEE4sizeEv>:
  409e5a:	55                   	push   %rbp
  409e5b:	48 89 e5             	mov    %rsp,%rbp
  409e5e:	48 89 7d f8          	mov    %rdi,-0x8(%rbp)
  409e62:	48 8b 45 f8          	mov    -0x8(%rbp),%rax
  409e66:	8b 40 14             	mov    0x14(%rax),%eax
  409e69:	5d                   	pop    %rbp
  409e6a:	c3                   	retq   
  409e6b:	90                   	nop

0000000000409e6c <_ZNK6VectorIN3MapISsbE8iterator10NodeMarkerEE3getEi>:
  409e6c:	55                   	push   %rbp
  409e6d:	48 89 e5             	mov    %rsp,%rbp
  409e70:	53                   	push   %rbx
  409e71:	48 83 ec 38          	sub    $0x38,%rsp
  409e75:	48 89 7d c8          	mov    %rdi,-0x38(%rbp)
  409e79:	89 75 c4             	mov    %esi,-0x3c(%rbp)
  409e7c:	83 7d c4 00          	cmpl   $0x0,-0x3c(%rbp)
  409e80:	78 0c                	js     409e8e <_ZNK6VectorIN3MapISsbE8iterator10NodeMarkerEE3getEi+0x22>
  409e82:	48 8b 45 c8          	mov    -0x38(%rbp),%rax
  409e86:	8b 40 14             	mov    0x14(%rax),%eax
  409e89:	3b 45 c4             	cmp    -0x3c(%rbp),%eax
  409e8c:	7f 45                	jg     409ed3 <_ZNK6VectorIN3MapISsbE8iterator10NodeMarkerEE3getEi+0x67>
  409e8e:	48 8d 45 df          	lea    -0x21(%rbp),%rax
  409e92:	48 89 c7             	mov    %rax,%rdi
  409e95:	e8 d6 89 ff ff       	callq  402870 <_ZNSaIcEC1Ev@plt>
  409e9a:	48 8d 55 df          	lea    -0x21(%rbp),%rdx
  409e9e:	48 8d 45 e0          	lea    -0x20(%rbp),%rax
  409ea2:	be ce c4 40 00       	mov    $0x40c4ce,%esi
  409ea7:	48 89 c7             	mov    %rax,%rdi
  409eaa:	e8 71 87 ff ff       	callq  402620 <_ZNSsC1EPKcRKSaIcE@plt>
  409eaf:	48 8d 45 e0          	lea    -0x20(%rbp),%rax
  409eb3:	48 89 c7             	mov    %rax,%rdi
  409eb6:	e8 da 22 00 00       	callq  40c195 <_Z5errorSs>
  409ebb:	48 8d 45 e0          	lea    -0x20(%rbp),%rax
  409ebf:	48 89 c7             	mov    %rax,%rdi
  409ec2:	e8 d9 86 ff ff       	callq  4025a0 <_ZNSsD1Ev@plt>
  409ec7:	48 8d 45 df          	lea    -0x21(%rbp),%rax
  409ecb:	48 89 c7             	mov    %rax,%rdi
  409ece:	e8 5d 88 ff ff       	callq  402730 <_ZNSaIcED1Ev@plt>
  409ed3:	48 8b 45 c8          	mov    -0x38(%rbp),%rax
  409ed7:	48 8b 40 08          	mov    0x8(%rax),%rax
  409edb:	8b 55 c4             	mov    -0x3c(%rbp),%edx
  409ede:	48 63 d2             	movslq %edx,%rdx
  409ee1:	48 c1 e2 04          	shl    $0x4,%rdx
  409ee5:	48 01 d0             	add    %rdx,%rax
  409ee8:	eb 2b                	jmp    409f15 <_ZNK6VectorIN3MapISsbE8iterator10NodeMarkerEE3getEi+0xa9>
  409eea:	48 89 c3             	mov    %rax,%rbx
  409eed:	48 8d 45 e0          	lea    -0x20(%rbp),%rax
  409ef1:	48 89 c7             	mov    %rax,%rdi
  409ef4:	e8 a7 86 ff ff       	callq  4025a0 <_ZNSsD1Ev@plt>
  409ef9:	eb 03                	jmp    409efe <_ZNK6VectorIN3MapISsbE8iterator10NodeMarkerEE3getEi+0x92>
  409efb:	48 89 c3             	mov    %rax,%rbx
  409efe:	48 8d 45 df          	lea    -0x21(%rbp),%rax
  409f02:	48 89 c7             	mov    %rax,%rdi
  409f05:	e8 26 88 ff ff       	callq  402730 <_ZNSaIcED1Ev@plt>
  409f0a:	48 89 d8             	mov    %rbx,%rax
  409f0d:	48 89 c7             	mov    %rax,%rdi
  409f10:	e8 bb 89 ff ff       	callq  4028d0 <_Unwind_Resume@plt>
  409f15:	48 83 c4 38          	add    $0x38,%rsp
  409f19:	5b                   	pop    %rbx
  409f1a:	5d                   	pop    %rbp
  409f1b:	c3                   	retq   

0000000000409f1c <_ZN6VectorIN3MapISsbE8iterator10NodeMarkerEEixEi>:
  409f1c:	55                   	push   %rbp
  409f1d:	48 89 e5             	mov    %rsp,%rbp
  409f20:	53                   	push   %rbx
  409f21:	48 83 ec 38          	sub    $0x38,%rsp
  409f25:	48 89 7d c8          	mov    %rdi,-0x38(%rbp)
  409f29:	89 75 c4             	mov    %esi,-0x3c(%rbp)
  409f2c:	83 7d c4 00          	cmpl   $0x0,-0x3c(%rbp)
  409f30:	78 0c                	js     409f3e <_ZN6VectorIN3MapISsbE8iterator10NodeMarkerEEixEi+0x22>
  409f32:	48 8b 45 c8          	mov    -0x38(%rbp),%rax
  409f36:	8b 40 14             	mov    0x14(%rax),%eax
  409f39:	3b 45 c4             	cmp    -0x3c(%rbp),%eax
  409f3c:	7f 45                	jg     409f83 <_ZN6VectorIN3MapISsbE8iterator10NodeMarkerEEixEi+0x67>
  409f3e:	48 8d 45 df          	lea    -0x21(%rbp),%rax
  409f42:	48 89 c7             	mov    %rax,%rdi
  409f45:	e8 26 89 ff ff       	callq  402870 <_ZNSaIcEC1Ev@plt>
  409f4a:	48 8d 55 df          	lea    -0x21(%rbp),%rdx
  409f4e:	48 8d 45 e0          	lea    -0x20(%rbp),%rax
  409f52:	be 4e c4 40 00       	mov    $0x40c44e,%esi
  409f57:	48 89 c7             	mov    %rax,%rdi
  409f5a:	e8 c1 86 ff ff       	callq  402620 <_ZNSsC1EPKcRKSaIcE@plt>
  409f5f:	48 8d 45 e0          	lea    -0x20(%rbp),%rax
  409f63:	48 89 c7             	mov    %rax,%rdi
  409f66:	e8 2a 22 00 00       	callq  40c195 <_Z5errorSs>
  409f6b:	48 8d 45 e0          	lea    -0x20(%rbp),%rax
  409f6f:	48 89 c7             	mov    %rax,%rdi
  409f72:	e8 29 86 ff ff       	callq  4025a0 <_ZNSsD1Ev@plt>
  409f77:	48 8d 45 df          	lea    -0x21(%rbp),%rax
  409f7b:	48 89 c7             	mov    %rax,%rdi
  409f7e:	e8 ad 87 ff ff       	callq  402730 <_ZNSaIcED1Ev@plt>
  409f83:	48 8b 45 c8          	mov    -0x38(%rbp),%rax
  409f87:	48 8b 40 08          	mov    0x8(%rax),%rax
  409f8b:	8b 55 c4             	mov    -0x3c(%rbp),%edx
  409f8e:	48 63 d2             	movslq %edx,%rdx
  409f91:	48 c1 e2 04          	shl    $0x4,%rdx
  409f95:	48 01 d0             	add    %rdx,%rax
  409f98:	eb 2b                	jmp    409fc5 <_ZN6VectorIN3MapISsbE8iterator10NodeMarkerEEixEi+0xa9>
  409f9a:	48 89 c3             	mov    %rax,%rbx
  409f9d:	48 8d 45 e0          	lea    -0x20(%rbp),%rax
  409fa1:	48 89 c7             	mov    %rax,%rdi
  409fa4:	e8 f7 85 ff ff       	callq  4025a0 <_ZNSsD1Ev@plt>
  409fa9:	eb 03                	jmp    409fae <_ZN6VectorIN3MapISsbE8iterator10NodeMarkerEEixEi+0x92>
  409fab:	48 89 c3             	mov    %rax,%rbx
  409fae:	48 8d 45 df          	lea    -0x21(%rbp),%rax
  409fb2:	48 89 c7             	mov    %rax,%rdi
  409fb5:	e8 76 87 ff ff       	callq  402730 <_ZNSaIcED1Ev@plt>
  409fba:	48 89 d8             	mov    %rbx,%rax
  409fbd:	48 89 c7             	mov    %rax,%rdi
  409fc0:	e8 0b 89 ff ff       	callq  4028d0 <_Unwind_Resume@plt>
  409fc5:	48 83 c4 38          	add    $0x38,%rsp
  409fc9:	5b                   	pop    %rbx
  409fca:	5d                   	pop    %rbp
  409fcb:	c3                   	retq   

0000000000409fcc <_ZN6VectorIN3MapISsbE8iterator10NodeMarkerEE6removeEi>:
  409fcc:	55                   	push   %rbp
  409fcd:	48 89 e5             	mov    %rsp,%rbp
  409fd0:	53                   	push   %rbx
  409fd1:	48 83 ec 38          	sub    $0x38,%rsp
  409fd5:	48 89 7d c8          	mov    %rdi,-0x38(%rbp)
  409fd9:	89 75 c4             	mov    %esi,-0x3c(%rbp)
  409fdc:	83 7d c4 00          	cmpl   $0x0,-0x3c(%rbp)
  409fe0:	78 0c                	js     409fee <_ZN6VectorIN3MapISsbE8iterator10NodeMarkerEE6removeEi+0x22>
  409fe2:	48 8b 45 c8          	mov    -0x38(%rbp),%rax
  409fe6:	8b 40 14             	mov    0x14(%rax),%eax
  409fe9:	3b 45 c4             	cmp    -0x3c(%rbp),%eax
  409fec:	7f 45                	jg     40a033 <_ZN6VectorIN3MapISsbE8iterator10NodeMarkerEE6removeEi+0x67>
  409fee:	48 8d 45 db          	lea    -0x25(%rbp),%rax
  409ff2:	48 89 c7             	mov    %rax,%rdi
  409ff5:	e8 76 88 ff ff       	callq  402870 <_ZNSaIcEC1Ev@plt>
  409ffa:	48 8d 55 db          	lea    -0x25(%rbp),%rdx
  409ffe:	48 8d 45 e0          	lea    -0x20(%rbp),%rax
  40a002:	be 6b c4 40 00       	mov    $0x40c46b,%esi
  40a007:	48 89 c7             	mov    %rax,%rdi
  40a00a:	e8 11 86 ff ff       	callq  402620 <_ZNSsC1EPKcRKSaIcE@plt>
  40a00f:	48 8d 45 e0          	lea    -0x20(%rbp),%rax
  40a013:	48 89 c7             	mov    %rax,%rdi
  40a016:	e8 7a 21 00 00       	callq  40c195 <_Z5errorSs>
  40a01b:	48 8d 45 e0          	lea    -0x20(%rbp),%rax
  40a01f:	48 89 c7             	mov    %rax,%rdi
  40a022:	e8 79 85 ff ff       	callq  4025a0 <_ZNSsD1Ev@plt>
  40a027:	48 8d 45 db          	lea    -0x25(%rbp),%rax
  40a02b:	48 89 c7             	mov    %rax,%rdi
  40a02e:	e8 fd 86 ff ff       	callq  402730 <_ZNSaIcED1Ev@plt>
  40a033:	8b 45 c4             	mov    -0x3c(%rbp),%eax
  40a036:	89 45 dc             	mov    %eax,-0x24(%rbp)
  40a039:	eb 41                	jmp    40a07c <_ZN6VectorIN3MapISsbE8iterator10NodeMarkerEE6removeEi+0xb0>
  40a03b:	48 8b 45 c8          	mov    -0x38(%rbp),%rax
  40a03f:	48 8b 40 08          	mov    0x8(%rax),%rax
  40a043:	8b 55 dc             	mov    -0x24(%rbp),%edx
  40a046:	48 63 d2             	movslq %edx,%rdx
  40a049:	48 c1 e2 04          	shl    $0x4,%rdx
  40a04d:	48 8d 0c 10          	lea    (%rax,%rdx,1),%rcx
  40a051:	48 8b 45 c8          	mov    -0x38(%rbp),%rax
  40a055:	48 8b 40 08          	mov    0x8(%rax),%rax
  40a059:	8b 55 dc             	mov    -0x24(%rbp),%edx
  40a05c:	48 63 d2             	movslq %edx,%rdx
  40a05f:	48 83 c2 01          	add    $0x1,%rdx
  40a063:	48 c1 e2 04          	shl    $0x4,%rdx
  40a067:	48 01 d0             	add    %rdx,%rax
  40a06a:	48 8b 50 08          	mov    0x8(%rax),%rdx
  40a06e:	48 8b 00             	mov    (%rax),%rax
  40a071:	48 89 01             	mov    %rax,(%rcx)
  40a074:	48 89 51 08          	mov    %rdx,0x8(%rcx)
  40a078:	83 45 dc 01          	addl   $0x1,-0x24(%rbp)
  40a07c:	48 8b 45 c8          	mov    -0x38(%rbp),%rax
  40a080:	8b 40 14             	mov    0x14(%rax),%eax
  40a083:	83 e8 01             	sub    $0x1,%eax
  40a086:	3b 45 dc             	cmp    -0x24(%rbp),%eax
  40a089:	7f b0                	jg     40a03b <_ZN6VectorIN3MapISsbE8iterator10NodeMarkerEE6removeEi+0x6f>
  40a08b:	48 8b 45 c8          	mov    -0x38(%rbp),%rax
  40a08f:	8b 40 14             	mov    0x14(%rax),%eax
  40a092:	8d 50 ff             	lea    -0x1(%rax),%edx
  40a095:	48 8b 45 c8          	mov    -0x38(%rbp),%rax
  40a099:	89 50 14             	mov    %edx,0x14(%rax)
  40a09c:	eb 2b                	jmp    40a0c9 <_ZN6VectorIN3MapISsbE8iterator10NodeMarkerEE6removeEi+0xfd>
  40a09e:	48 89 c3             	mov    %rax,%rbx
  40a0a1:	48 8d 45 e0          	lea    -0x20(%rbp),%rax
  40a0a5:	48 89 c7             	mov    %rax,%rdi
  40a0a8:	e8 f3 84 ff ff       	callq  4025a0 <_ZNSsD1Ev@plt>
  40a0ad:	eb 03                	jmp    40a0b2 <_ZN6VectorIN3MapISsbE8iterator10NodeMarkerEE6removeEi+0xe6>
  40a0af:	48 89 c3             	mov    %rax,%rbx
  40a0b2:	48 8d 45 db          	lea    -0x25(%rbp),%rax
  40a0b6:	48 89 c7             	mov    %rax,%rdi
  40a0b9:	e8 72 86 ff ff       	callq  402730 <_ZNSaIcED1Ev@plt>
  40a0be:	48 89 d8             	mov    %rbx,%rax
  40a0c1:	48 89 c7             	mov    %rax,%rdi
  40a0c4:	e8 07 88 ff ff       	callq  4028d0 <_Unwind_Resume@plt>
  40a0c9:	48 83 c4 38          	add    $0x38,%rsp
  40a0cd:	5b                   	pop    %rbx
  40a0ce:	5d                   	pop    %rbp
  40a0cf:	c3                   	retq   

000000000040a0d0 <_ZNK5StackIN3MapISsbE8iterator10NodeMarkerEE4sizeEv>:
  40a0d0:	55                   	push   %rbp
  40a0d1:	48 89 e5             	mov    %rsp,%rbp
  40a0d4:	48 83 ec 10          	sub    $0x10,%rsp
  40a0d8:	48 89 7d f8          	mov    %rdi,-0x8(%rbp)
  40a0dc:	48 8b 45 f8          	mov    -0x8(%rbp),%rax
  40a0e0:	48 83 c0 08          	add    $0x8,%rax
  40a0e4:	48 89 c7             	mov    %rax,%rdi
  40a0e7:	e8 6e fd ff ff       	callq  409e5a <_ZNK6VectorIN3MapISsbE8iterator10NodeMarkerEE4sizeEv>
  40a0ec:	c9                   	leaveq 
  40a0ed:	c3                   	retq   

000000000040a0ee <_ZN6VectorIN3MapISsbE8iterator10NodeMarkerEE3addES3_>:
  40a0ee:	55                   	push   %rbp
  40a0ef:	48 89 e5             	mov    %rsp,%rbp
  40a0f2:	48 83 ec 20          	sub    $0x20,%rsp
  40a0f6:	48 89 7d f8          	mov    %rdi,-0x8(%rbp)
  40a0fa:	48 89 f0             	mov    %rsi,%rax
  40a0fd:	48 89 d1             	mov    %rdx,%rcx
  40a100:	48 89 ca             	mov    %rcx,%rdx
  40a103:	48 89 45 e0          	mov    %rax,-0x20(%rbp)
  40a107:	48 89 55 e8          	mov    %rdx,-0x18(%rbp)
  40a10b:	48 8b 45 f8          	mov    -0x8(%rbp),%rax
  40a10f:	8b 70 14             	mov    0x14(%rax),%esi
  40a112:	48 8b 45 e0          	mov    -0x20(%rbp),%rax
  40a116:	48 8b 55 e8          	mov    -0x18(%rbp),%rdx
  40a11a:	48 8b 7d f8          	mov    -0x8(%rbp),%rdi
  40a11e:	48 89 d1             	mov    %rdx,%rcx
  40a121:	48 89 c2             	mov    %rax,%rdx
  40a124:	e8 d7 03 00 00       	callq  40a500 <_ZN6VectorIN3MapISsbE8iterator10NodeMarkerEE6insertEiS3_>
  40a129:	c9                   	leaveq 
  40a12a:	c3                   	retq   
  40a12b:	90                   	nop

000000000040a12c <_ZN6VectorIPN7Lexicon4EdgeEE14expandCapacityEv>:
  40a12c:	55                   	push   %rbp
  40a12d:	48 89 e5             	mov    %rsp,%rbp
  40a130:	48 83 ec 30          	sub    $0x30,%rsp
  40a134:	48 89 7d d8          	mov    %rdi,-0x28(%rbp)
  40a138:	48 8b 45 d8          	mov    -0x28(%rbp),%rax
  40a13c:	8b 40 10             	mov    0x10(%rax),%eax
  40a13f:	01 c0                	add    %eax,%eax
  40a141:	89 45 f0             	mov    %eax,-0x10(%rbp)
  40a144:	c7 45 ec 01 00 00 00 	movl   $0x1,-0x14(%rbp)
  40a14b:	48 8d 55 f0          	lea    -0x10(%rbp),%rdx
  40a14f:	48 8d 45 ec          	lea    -0x14(%rbp),%rax
  40a153:	48 89 d6             	mov    %rdx,%rsi
  40a156:	48 89 c7             	mov    %rax,%rdi
  40a159:	e8 ee 04 00 00       	callq  40a64c <_ZSt3maxIiERKT_S2_S2_>
  40a15e:	8b 10                	mov    (%rax),%edx
  40a160:	48 8b 45 d8          	mov    -0x28(%rbp),%rax
  40a164:	89 50 10             	mov    %edx,0x10(%rax)
  40a167:	48 8b 45 d8          	mov    -0x28(%rbp),%rax
  40a16b:	8b 40 10             	mov    0x10(%rax),%eax
  40a16e:	48 98                	cltq   
  40a170:	48 ba 00 00 00 00 00 	movabs $0xfe0000000000000,%rdx
  40a177:	00 e0 0f 
  40a17a:	48 39 d0             	cmp    %rdx,%rax
  40a17d:	77 06                	ja     40a185 <_ZN6VectorIPN7Lexicon4EdgeEE14expandCapacityEv+0x59>
  40a17f:	48 c1 e0 03          	shl    $0x3,%rax
  40a183:	eb 07                	jmp    40a18c <_ZN6VectorIPN7Lexicon4EdgeEE14expandCapacityEv+0x60>
  40a185:	48 c7 c0 ff ff ff ff 	mov    $0xffffffffffffffff,%rax
  40a18c:	48 89 c7             	mov    %rax,%rdi
  40a18f:	e8 bc 82 ff ff       	callq  402450 <_Znam@plt>
  40a194:	48 89 45 f8          	mov    %rax,-0x8(%rbp)
  40a198:	c7 45 f4 00 00 00 00 	movl   $0x0,-0xc(%rbp)
  40a19f:	eb 33                	jmp    40a1d4 <_ZN6VectorIPN7Lexicon4EdgeEE14expandCapacityEv+0xa8>
  40a1a1:	8b 45 f4             	mov    -0xc(%rbp),%eax
  40a1a4:	48 98                	cltq   
  40a1a6:	48 8d 14 c5 00 00 00 	lea    0x0(,%rax,8),%rdx
  40a1ad:	00 
  40a1ae:	48 8b 45 f8          	mov    -0x8(%rbp),%rax
  40a1b2:	48 01 c2             	add    %rax,%rdx
  40a1b5:	48 8b 45 d8          	mov    -0x28(%rbp),%rax
  40a1b9:	48 8b 40 08          	mov    0x8(%rax),%rax
  40a1bd:	8b 4d f4             	mov    -0xc(%rbp),%ecx
  40a1c0:	48 63 c9             	movslq %ecx,%rcx
  40a1c3:	48 c1 e1 03          	shl    $0x3,%rcx
  40a1c7:	48 01 c8             	add    %rcx,%rax
  40a1ca:	48 8b 00             	mov    (%rax),%rax
  40a1cd:	48 89 02             	mov    %rax,(%rdx)
  40a1d0:	83 45 f4 01          	addl   $0x1,-0xc(%rbp)
  40a1d4:	48 8b 45 d8          	mov    -0x28(%rbp),%rax
  40a1d8:	8b 40 14             	mov    0x14(%rax),%eax
  40a1db:	3b 45 f4             	cmp    -0xc(%rbp),%eax
  40a1de:	7f c1                	jg     40a1a1 <_ZN6VectorIPN7Lexicon4EdgeEE14expandCapacityEv+0x75>
  40a1e0:	48 8b 45 d8          	mov    -0x28(%rbp),%rax
  40a1e4:	48 8b 40 08          	mov    0x8(%rax),%rax
  40a1e8:	48 85 c0             	test   %rax,%rax
  40a1eb:	74 1d                	je     40a20a <_ZN6VectorIPN7Lexicon4EdgeEE14expandCapacityEv+0xde>
  40a1ed:	48 8b 45 d8          	mov    -0x28(%rbp),%rax
  40a1f1:	48 8b 40 08          	mov    0x8(%rax),%rax
  40a1f5:	48 85 c0             	test   %rax,%rax
  40a1f8:	74 10                	je     40a20a <_ZN6VectorIPN7Lexicon4EdgeEE14expandCapacityEv+0xde>
  40a1fa:	48 8b 45 d8          	mov    -0x28(%rbp),%rax
  40a1fe:	48 8b 40 08          	mov    0x8(%rax),%rax
  40a202:	48 89 c7             	mov    %rax,%rdi
  40a205:	e8 76 85 ff ff       	callq  402780 <_ZdaPv@plt>
  40a20a:	48 8b 45 d8          	mov    -0x28(%rbp),%rax
  40a20e:	48 8b 55 f8          	mov    -0x8(%rbp),%rdx
  40a212:	48 89 50 08          	mov    %rdx,0x8(%rax)
  40a216:	c9                   	leaveq 
  40a217:	c3                   	retq   

000000000040a218 <_ZN3MapISsbE16fixLeftImbalanceERPNS0_7BSTNodeE>:
  40a218:	55                   	push   %rbp
  40a219:	48 89 e5             	mov    %rsp,%rbp
  40a21c:	48 83 ec 20          	sub    $0x20,%rsp
  40a220:	48 89 7d e8          	mov    %rdi,-0x18(%rbp)
  40a224:	48 89 75 e0          	mov    %rsi,-0x20(%rbp)
  40a228:	48 8b 45 e0          	mov    -0x20(%rbp),%rax
  40a22c:	48 8b 00             	mov    (%rax),%rax
  40a22f:	48 8b 40 10          	mov    0x10(%rax),%rax
  40a233:	48 89 45 f8          	mov    %rax,-0x8(%rbp)
  40a237:	48 8b 45 f8          	mov    -0x8(%rbp),%rax
  40a23b:	8b 40 20             	mov    0x20(%rax),%eax
  40a23e:	83 f8 01             	cmp    $0x1,%eax
  40a241:	0f 85 d1 00 00 00    	jne    40a318 <_ZN3MapISsbE16fixLeftImbalanceERPNS0_7BSTNodeE+0x100>
  40a247:	48 8b 45 f8          	mov    -0x8(%rbp),%rax
  40a24b:	48 8b 40 18          	mov    0x18(%rax),%rax
  40a24f:	8b 40 20             	mov    0x20(%rax),%eax
  40a252:	89 45 f4             	mov    %eax,-0xc(%rbp)
  40a255:	48 8b 45 e0          	mov    -0x20(%rbp),%rax
  40a259:	48 8b 00             	mov    (%rax),%rax
  40a25c:	48 8d 50 10          	lea    0x10(%rax),%rdx
  40a260:	48 8b 45 e8          	mov    -0x18(%rbp),%rax
  40a264:	48 89 d6             	mov    %rdx,%rsi
  40a267:	48 89 c7             	mov    %rax,%rdi
  40a26a:	e8 05 04 00 00       	callq  40a674 <_ZN3MapISsbE10rotateLeftERPNS0_7BSTNodeE>
  40a26f:	48 8b 55 e0          	mov    -0x20(%rbp),%rdx
  40a273:	48 8b 45 e8          	mov    -0x18(%rbp),%rax
  40a277:	48 89 d6             	mov    %rdx,%rsi
  40a27a:	48 89 c7             	mov    %rax,%rdi
  40a27d:	e8 3c 04 00 00       	callq  40a6be <_ZN3MapISsbE11rotateRightERPNS0_7BSTNodeE>
  40a282:	48 8b 45 e0          	mov    -0x20(%rbp),%rax
  40a286:	48 8b 00             	mov    (%rax),%rax
  40a289:	c7 40 20 00 00 00 00 	movl   $0x0,0x20(%rax)
  40a290:	8b 45 f4             	mov    -0xc(%rbp),%eax
  40a293:	85 c0                	test   %eax,%eax
  40a295:	74 35                	je     40a2cc <_ZN3MapISsbE16fixLeftImbalanceERPNS0_7BSTNodeE+0xb4>
  40a297:	83 f8 01             	cmp    $0x1,%eax
  40a29a:	74 55                	je     40a2f1 <_ZN3MapISsbE16fixLeftImbalanceERPNS0_7BSTNodeE+0xd9>
  40a29c:	83 f8 ff             	cmp    $0xffffffff,%eax
  40a29f:	74 05                	je     40a2a6 <_ZN3MapISsbE16fixLeftImbalanceERPNS0_7BSTNodeE+0x8e>
  40a2a1:	e9 e4 00 00 00       	jmpq   40a38a <_ZN3MapISsbE16fixLeftImbalanceERPNS0_7BSTNodeE+0x172>
  40a2a6:	48 8b 45 e0          	mov    -0x20(%rbp),%rax
  40a2aa:	48 8b 00             	mov    (%rax),%rax
  40a2ad:	48 8b 40 10          	mov    0x10(%rax),%rax
  40a2b1:	c7 40 20 00 00 00 00 	movl   $0x0,0x20(%rax)
  40a2b8:	48 8b 45 e0          	mov    -0x20(%rbp),%rax
  40a2bc:	48 8b 00             	mov    (%rax),%rax
  40a2bf:	48 8b 40 18          	mov    0x18(%rax),%rax
  40a2c3:	c7 40 20 01 00 00 00 	movl   $0x1,0x20(%rax)
  40a2ca:	eb 4a                	jmp    40a316 <_ZN3MapISsbE16fixLeftImbalanceERPNS0_7BSTNodeE+0xfe>
  40a2cc:	48 8b 45 e0          	mov    -0x20(%rbp),%rax
  40a2d0:	48 8b 00             	mov    (%rax),%rax
  40a2d3:	48 8b 50 10          	mov    0x10(%rax),%rdx
  40a2d7:	48 8b 45 e0          	mov    -0x20(%rbp),%rax
  40a2db:	48 8b 00             	mov    (%rax),%rax
  40a2de:	48 8b 40 18          	mov    0x18(%rax),%rax
  40a2e2:	c7 40 20 00 00 00 00 	movl   $0x0,0x20(%rax)
  40a2e9:	8b 40 20             	mov    0x20(%rax),%eax
  40a2ec:	89 42 20             	mov    %eax,0x20(%rdx)
  40a2ef:	eb 25                	jmp    40a316 <_ZN3MapISsbE16fixLeftImbalanceERPNS0_7BSTNodeE+0xfe>
  40a2f1:	48 8b 45 e0          	mov    -0x20(%rbp),%rax
  40a2f5:	48 8b 00             	mov    (%rax),%rax
  40a2f8:	48 8b 40 10          	mov    0x10(%rax),%rax
  40a2fc:	c7 40 20 ff ff ff ff 	movl   $0xffffffff,0x20(%rax)
  40a303:	48 8b 45 e0          	mov    -0x20(%rbp),%rax
  40a307:	48 8b 00             	mov    (%rax),%rax
  40a30a:	48 8b 40 18          	mov    0x18(%rax),%rax
  40a30e:	c7 40 20 00 00 00 00 	movl   $0x0,0x20(%rax)
  40a315:	90                   	nop
  40a316:	eb 72                	jmp    40a38a <_ZN3MapISsbE16fixLeftImbalanceERPNS0_7BSTNodeE+0x172>
  40a318:	48 8b 45 f8          	mov    -0x8(%rbp),%rax
  40a31c:	8b 40 20             	mov    0x20(%rax),%eax
  40a31f:	85 c0                	test   %eax,%eax
  40a321:	75 35                	jne    40a358 <_ZN3MapISsbE16fixLeftImbalanceERPNS0_7BSTNodeE+0x140>
  40a323:	48 8b 55 e0          	mov    -0x20(%rbp),%rdx
  40a327:	48 8b 45 e8          	mov    -0x18(%rbp),%rax
  40a32b:	48 89 d6             	mov    %rdx,%rsi
  40a32e:	48 89 c7             	mov    %rax,%rdi
  40a331:	e8 88 03 00 00       	callq  40a6be <_ZN3MapISsbE11rotateRightERPNS0_7BSTNodeE>
  40a336:	48 8b 45 e0          	mov    -0x20(%rbp),%rax
  40a33a:	48 8b 00             	mov    (%rax),%rax
  40a33d:	c7 40 20 01 00 00 00 	movl   $0x1,0x20(%rax)
  40a344:	48 8b 45 e0          	mov    -0x20(%rbp),%rax
  40a348:	48 8b 00             	mov    (%rax),%rax
  40a34b:	48 8b 40 18          	mov    0x18(%rax),%rax
  40a34f:	c7 40 20 ff ff ff ff 	movl   $0xffffffff,0x20(%rax)
  40a356:	eb 32                	jmp    40a38a <_ZN3MapISsbE16fixLeftImbalanceERPNS0_7BSTNodeE+0x172>
  40a358:	48 8b 55 e0          	mov    -0x20(%rbp),%rdx
  40a35c:	48 8b 45 e8          	mov    -0x18(%rbp),%rax
  40a360:	48 89 d6             	mov    %rdx,%rsi
  40a363:	48 89 c7             	mov    %rax,%rdi
  40a366:	e8 53 03 00 00       	callq  40a6be <_ZN3MapISsbE11rotateRightERPNS0_7BSTNodeE>
  40a36b:	48 8b 45 e0          	mov    -0x20(%rbp),%rax
  40a36f:	48 8b 00             	mov    (%rax),%rax
  40a372:	48 8b 50 18          	mov    0x18(%rax),%rdx
  40a376:	48 8b 45 e0          	mov    -0x20(%rbp),%rax
  40a37a:	48 8b 00             	mov    (%rax),%rax
  40a37d:	c7 40 20 00 00 00 00 	movl   $0x0,0x20(%rax)
  40a384:	8b 40 20             	mov    0x20(%rax),%eax
  40a387:	89 42 20             	mov    %eax,0x20(%rdx)
  40a38a:	c9                   	leaveq 
  40a38b:	c3                   	retq   

000000000040a38c <_ZN3MapISsbE17fixRightImbalanceERPNS0_7BSTNodeE>:
  40a38c:	55                   	push   %rbp
  40a38d:	48 89 e5             	mov    %rsp,%rbp
  40a390:	48 83 ec 20          	sub    $0x20,%rsp
  40a394:	48 89 7d e8          	mov    %rdi,-0x18(%rbp)
  40a398:	48 89 75 e0          	mov    %rsi,-0x20(%rbp)
  40a39c:	48 8b 45 e0          	mov    -0x20(%rbp),%rax
  40a3a0:	48 8b 00             	mov    (%rax),%rax
  40a3a3:	48 8b 40 18          	mov    0x18(%rax),%rax
  40a3a7:	48 89 45 f8          	mov    %rax,-0x8(%rbp)
  40a3ab:	48 8b 45 f8          	mov    -0x8(%rbp),%rax
  40a3af:	8b 40 20             	mov    0x20(%rax),%eax
  40a3b2:	83 f8 ff             	cmp    $0xffffffff,%eax
  40a3b5:	0f 85 d1 00 00 00    	jne    40a48c <_ZN3MapISsbE17fixRightImbalanceERPNS0_7BSTNodeE+0x100>
  40a3bb:	48 8b 45 f8          	mov    -0x8(%rbp),%rax
  40a3bf:	48 8b 40 10          	mov    0x10(%rax),%rax
  40a3c3:	8b 40 20             	mov    0x20(%rax),%eax
  40a3c6:	89 45 f4             	mov    %eax,-0xc(%rbp)
  40a3c9:	48 8b 45 e0          	mov    -0x20(%rbp),%rax
  40a3cd:	48 8b 00             	mov    (%rax),%rax
  40a3d0:	48 8d 50 18          	lea    0x18(%rax),%rdx
  40a3d4:	48 8b 45 e8          	mov    -0x18(%rbp),%rax
  40a3d8:	48 89 d6             	mov    %rdx,%rsi
  40a3db:	48 89 c7             	mov    %rax,%rdi
  40a3de:	e8 db 02 00 00       	callq  40a6be <_ZN3MapISsbE11rotateRightERPNS0_7BSTNodeE>
  40a3e3:	48 8b 55 e0          	mov    -0x20(%rbp),%rdx
  40a3e7:	48 8b 45 e8          	mov    -0x18(%rbp),%rax
  40a3eb:	48 89 d6             	mov    %rdx,%rsi
  40a3ee:	48 89 c7             	mov    %rax,%rdi
  40a3f1:	e8 7e 02 00 00       	callq  40a674 <_ZN3MapISsbE10rotateLeftERPNS0_7BSTNodeE>
  40a3f6:	48 8b 45 e0          	mov    -0x20(%rbp),%rax
  40a3fa:	48 8b 00             	mov    (%rax),%rax
  40a3fd:	c7 40 20 00 00 00 00 	movl   $0x0,0x20(%rax)
  40a404:	8b 45 f4             	mov    -0xc(%rbp),%eax
  40a407:	85 c0                	test   %eax,%eax
  40a409:	74 35                	je     40a440 <_ZN3MapISsbE17fixRightImbalanceERPNS0_7BSTNodeE+0xb4>
  40a40b:	83 f8 01             	cmp    $0x1,%eax
  40a40e:	74 55                	je     40a465 <_ZN3MapISsbE17fixRightImbalanceERPNS0_7BSTNodeE+0xd9>
  40a410:	83 f8 ff             	cmp    $0xffffffff,%eax
  40a413:	74 05                	je     40a41a <_ZN3MapISsbE17fixRightImbalanceERPNS0_7BSTNodeE+0x8e>
  40a415:	e9 e4 00 00 00       	jmpq   40a4fe <_ZN3MapISsbE17fixRightImbalanceERPNS0_7BSTNodeE+0x172>
  40a41a:	48 8b 45 e0          	mov    -0x20(%rbp),%rax
  40a41e:	48 8b 00             	mov    (%rax),%rax
  40a421:	48 8b 40 10          	mov    0x10(%rax),%rax
  40a425:	c7 40 20 00 00 00 00 	movl   $0x0,0x20(%rax)
  40a42c:	48 8b 45 e0          	mov    -0x20(%rbp),%rax
  40a430:	48 8b 00             	mov    (%rax),%rax
  40a433:	48 8b 40 18          	mov    0x18(%rax),%rax
  40a437:	c7 40 20 01 00 00 00 	movl   $0x1,0x20(%rax)
  40a43e:	eb 4a                	jmp    40a48a <_ZN3MapISsbE17fixRightImbalanceERPNS0_7BSTNodeE+0xfe>
  40a440:	48 8b 45 e0          	mov    -0x20(%rbp),%rax
  40a444:	48 8b 00             	mov    (%rax),%rax
  40a447:	48 8b 50 10          	mov    0x10(%rax),%rdx
  40a44b:	48 8b 45 e0          	mov    -0x20(%rbp),%rax
  40a44f:	48 8b 00             	mov    (%rax),%rax
  40a452:	48 8b 40 18          	mov    0x18(%rax),%rax
  40a456:	c7 40 20 00 00 00 00 	movl   $0x0,0x20(%rax)
  40a45d:	8b 40 20             	mov    0x20(%rax),%eax
  40a460:	89 42 20             	mov    %eax,0x20(%rdx)
  40a463:	eb 25                	jmp    40a48a <_ZN3MapISsbE17fixRightImbalanceERPNS0_7BSTNodeE+0xfe>
  40a465:	48 8b 45 e0          	mov    -0x20(%rbp),%rax
  40a469:	48 8b 00             	mov    (%rax),%rax
  40a46c:	48 8b 40 10          	mov    0x10(%rax),%rax
  40a470:	c7 40 20 ff ff ff ff 	movl   $0xffffffff,0x20(%rax)
  40a477:	48 8b 45 e0          	mov    -0x20(%rbp),%rax
  40a47b:	48 8b 00             	mov    (%rax),%rax
  40a47e:	48 8b 40 18          	mov    0x18(%rax),%rax
  40a482:	c7 40 20 00 00 00 00 	movl   $0x0,0x20(%rax)
  40a489:	90                   	nop
  40a48a:	eb 72                	jmp    40a4fe <_ZN3MapISsbE17fixRightImbalanceERPNS0_7BSTNodeE+0x172>
  40a48c:	48 8b 45 f8          	mov    -0x8(%rbp),%rax
  40a490:	8b 40 20             	mov    0x20(%rax),%eax
  40a493:	85 c0                	test   %eax,%eax
  40a495:	75 35                	jne    40a4cc <_ZN3MapISsbE17fixRightImbalanceERPNS0_7BSTNodeE+0x140>
  40a497:	48 8b 55 e0          	mov    -0x20(%rbp),%rdx
  40a49b:	48 8b 45 e8          	mov    -0x18(%rbp),%rax
  40a49f:	48 89 d6             	mov    %rdx,%rsi
  40a4a2:	48 89 c7             	mov    %rax,%rdi
  40a4a5:	e8 ca 01 00 00       	callq  40a674 <_ZN3MapISsbE10rotateLeftERPNS0_7BSTNodeE>
  40a4aa:	48 8b 45 e0          	mov    -0x20(%rbp),%rax
  40a4ae:	48 8b 00             	mov    (%rax),%rax
  40a4b1:	c7 40 20 ff ff ff ff 	movl   $0xffffffff,0x20(%rax)
  40a4b8:	48 8b 45 e0          	mov    -0x20(%rbp),%rax
  40a4bc:	48 8b 00             	mov    (%rax),%rax
  40a4bf:	48 8b 40 10          	mov    0x10(%rax),%rax
  40a4c3:	c7 40 20 01 00 00 00 	movl   $0x1,0x20(%rax)
  40a4ca:	eb 32                	jmp    40a4fe <_ZN3MapISsbE17fixRightImbalanceERPNS0_7BSTNodeE+0x172>
  40a4cc:	48 8b 55 e0          	mov    -0x20(%rbp),%rdx
  40a4d0:	48 8b 45 e8          	mov    -0x18(%rbp),%rax
  40a4d4:	48 89 d6             	mov    %rdx,%rsi
  40a4d7:	48 89 c7             	mov    %rax,%rdi
  40a4da:	e8 95 01 00 00       	callq  40a674 <_ZN3MapISsbE10rotateLeftERPNS0_7BSTNodeE>
  40a4df:	48 8b 45 e0          	mov    -0x20(%rbp),%rax
  40a4e3:	48 8b 00             	mov    (%rax),%rax
  40a4e6:	48 8b 50 10          	mov    0x10(%rax),%rdx
  40a4ea:	48 8b 45 e0          	mov    -0x20(%rbp),%rax
  40a4ee:	48 8b 00             	mov    (%rax),%rax
  40a4f1:	c7 40 20 00 00 00 00 	movl   $0x0,0x20(%rax)
  40a4f8:	8b 40 20             	mov    0x20(%rax),%eax
  40a4fb:	89 42 20             	mov    %eax,0x20(%rdx)
  40a4fe:	c9                   	leaveq 
  40a4ff:	c3                   	retq   

000000000040a500 <_ZN6VectorIN3MapISsbE8iterator10NodeMarkerEE6insertEiS3_>:
  40a500:	55                   	push   %rbp
  40a501:	48 89 e5             	mov    %rsp,%rbp
  40a504:	53                   	push   %rbx
  40a505:	48 83 ec 48          	sub    $0x48,%rsp
  40a509:	48 89 7d c8          	mov    %rdi,-0x38(%rbp)
  40a50d:	89 75 c4             	mov    %esi,-0x3c(%rbp)
  40a510:	48 89 55 b0          	mov    %rdx,-0x50(%rbp)
  40a514:	48 89 4d b8          	mov    %rcx,-0x48(%rbp)
  40a518:	48 8b 45 c8          	mov    -0x38(%rbp),%rax
  40a51c:	8b 50 14             	mov    0x14(%rax),%edx
  40a51f:	48 8b 45 c8          	mov    -0x38(%rbp),%rax
  40a523:	8b 40 10             	mov    0x10(%rax),%eax
  40a526:	39 c2                	cmp    %eax,%edx
  40a528:	75 0c                	jne    40a536 <_ZN6VectorIN3MapISsbE8iterator10NodeMarkerEE6insertEiS3_+0x36>
  40a52a:	48 8b 45 c8          	mov    -0x38(%rbp),%rax
  40a52e:	48 89 c7             	mov    %rax,%rdi
  40a531:	e8 d2 01 00 00       	callq  40a708 <_ZN6VectorIN3MapISsbE8iterator10NodeMarkerEE14expandCapacityEv>
  40a536:	83 7d c4 00          	cmpl   $0x0,-0x3c(%rbp)
  40a53a:	78 0c                	js     40a548 <_ZN6VectorIN3MapISsbE8iterator10NodeMarkerEE6insertEiS3_+0x48>
  40a53c:	48 8b 45 c8          	mov    -0x38(%rbp),%rax
  40a540:	8b 40 14             	mov    0x14(%rax),%eax
  40a543:	3b 45 c4             	cmp    -0x3c(%rbp),%eax
  40a546:	7d 45                	jge    40a58d <_ZN6VectorIN3MapISsbE8iterator10NodeMarkerEE6insertEiS3_+0x8d>
  40a548:	48 8d 45 db          	lea    -0x25(%rbp),%rax
  40a54c:	48 89 c7             	mov    %rax,%rdi
  40a54f:	e8 1c 83 ff ff       	callq  402870 <_ZNSaIcEC1Ev@plt>
  40a554:	48 8d 55 db          	lea    -0x25(%rbp),%rdx
  40a558:	48 8d 45 e0          	lea    -0x20(%rbp),%rax
  40a55c:	be b3 c4 40 00       	mov    $0x40c4b3,%esi
  40a561:	48 89 c7             	mov    %rax,%rdi
  40a564:	e8 b7 80 ff ff       	callq  402620 <_ZNSsC1EPKcRKSaIcE@plt>
  40a569:	48 8d 45 e0          	lea    -0x20(%rbp),%rax
  40a56d:	48 89 c7             	mov    %rax,%rdi
  40a570:	e8 20 1c 00 00       	callq  40c195 <_Z5errorSs>
  40a575:	48 8d 45 e0          	lea    -0x20(%rbp),%rax
  40a579:	48 89 c7             	mov    %rax,%rdi
  40a57c:	e8 1f 80 ff ff       	callq  4025a0 <_ZNSsD1Ev@plt>
  40a581:	48 8d 45 db          	lea    -0x25(%rbp),%rax
  40a585:	48 89 c7             	mov    %rax,%rdi
  40a588:	e8 a3 81 ff ff       	callq  402730 <_ZNSaIcED1Ev@plt>
  40a58d:	48 8b 45 c8          	mov    -0x38(%rbp),%rax
  40a591:	8b 40 14             	mov    0x14(%rax),%eax
  40a594:	89 45 dc             	mov    %eax,-0x24(%rbp)
  40a597:	eb 41                	jmp    40a5da <_ZN6VectorIN3MapISsbE8iterator10NodeMarkerEE6insertEiS3_+0xda>
  40a599:	48 8b 45 c8          	mov    -0x38(%rbp),%rax
  40a59d:	48 8b 40 08          	mov    0x8(%rax),%rax
  40a5a1:	8b 55 dc             	mov    -0x24(%rbp),%edx
  40a5a4:	48 63 d2             	movslq %edx,%rdx
  40a5a7:	48 c1 e2 04          	shl    $0x4,%rdx
  40a5ab:	48 8d 0c 10          	lea    (%rax,%rdx,1),%rcx
  40a5af:	48 8b 45 c8          	mov    -0x38(%rbp),%rax
  40a5b3:	48 8b 40 08          	mov    0x8(%rax),%rax
  40a5b7:	8b 55 dc             	mov    -0x24(%rbp),%edx
  40a5ba:	48 63 d2             	movslq %edx,%rdx
  40a5bd:	48 c1 e2 04          	shl    $0x4,%rdx
  40a5c1:	48 83 ea 10          	sub    $0x10,%rdx
  40a5c5:	48 01 d0             	add    %rdx,%rax
  40a5c8:	48 8b 50 08          	mov    0x8(%rax),%rdx
  40a5cc:	48 8b 00             	mov    (%rax),%rax
  40a5cf:	48 89 01             	mov    %rax,(%rcx)
  40a5d2:	48 89 51 08          	mov    %rdx,0x8(%rcx)
  40a5d6:	83 6d dc 01          	subl   $0x1,-0x24(%rbp)
  40a5da:	8b 45 dc             	mov    -0x24(%rbp),%eax
  40a5dd:	3b 45 c4             	cmp    -0x3c(%rbp),%eax
  40a5e0:	7f b7                	jg     40a599 <_ZN6VectorIN3MapISsbE8iterator10NodeMarkerEE6insertEiS3_+0x99>
  40a5e2:	48 8b 45 c8          	mov    -0x38(%rbp),%rax
  40a5e6:	48 8b 40 08          	mov    0x8(%rax),%rax
  40a5ea:	8b 55 c4             	mov    -0x3c(%rbp),%edx
  40a5ed:	48 63 d2             	movslq %edx,%rdx
  40a5f0:	48 c1 e2 04          	shl    $0x4,%rdx
  40a5f4:	48 8d 0c 10          	lea    (%rax,%rdx,1),%rcx
  40a5f8:	48 8b 45 b0          	mov    -0x50(%rbp),%rax
  40a5fc:	48 8b 55 b8          	mov    -0x48(%rbp),%rdx
  40a600:	48 89 01             	mov    %rax,(%rcx)
  40a603:	48 89 51 08          	mov    %rdx,0x8(%rcx)
  40a607:	48 8b 45 c8          	mov    -0x38(%rbp),%rax
  40a60b:	8b 40 14             	mov    0x14(%rax),%eax
  40a60e:	8d 50 01             	lea    0x1(%rax),%edx
  40a611:	48 8b 45 c8          	mov    -0x38(%rbp),%rax
  40a615:	89 50 14             	mov    %edx,0x14(%rax)
  40a618:	eb 2b                	jmp    40a645 <_ZN6VectorIN3MapISsbE8iterator10NodeMarkerEE6insertEiS3_+0x145>
  40a61a:	48 89 c3             	mov    %rax,%rbx
  40a61d:	48 8d 45 e0          	lea    -0x20(%rbp),%rax
  40a621:	48 89 c7             	mov    %rax,%rdi
  40a624:	e8 77 7f ff ff       	callq  4025a0 <_ZNSsD1Ev@plt>
  40a629:	eb 03                	jmp    40a62e <_ZN6VectorIN3MapISsbE8iterator10NodeMarkerEE6insertEiS3_+0x12e>
  40a62b:	48 89 c3             	mov    %rax,%rbx
  40a62e:	48 8d 45 db          	lea    -0x25(%rbp),%rax
  40a632:	48 89 c7             	mov    %rax,%rdi
  40a635:	e8 f6 80 ff ff       	callq  402730 <_ZNSaIcED1Ev@plt>
  40a63a:	48 89 d8             	mov    %rbx,%rax
  40a63d:	48 89 c7             	mov    %rax,%rdi
  40a640:	e8 8b 82 ff ff       	callq  4028d0 <_Unwind_Resume@plt>
  40a645:	48 83 c4 48          	add    $0x48,%rsp
  40a649:	5b                   	pop    %rbx
  40a64a:	5d                   	pop    %rbp
  40a64b:	c3                   	retq   

000000000040a64c <_ZSt3maxIiERKT_S2_S2_>:
  40a64c:	55                   	push   %rbp
  40a64d:	48 89 e5             	mov    %rsp,%rbp
  40a650:	48 89 7d f8          	mov    %rdi,-0x8(%rbp)
  40a654:	48 89 75 f0          	mov    %rsi,-0x10(%rbp)
  40a658:	48 8b 45 f8          	mov    -0x8(%rbp),%rax
  40a65c:	8b 10                	mov    (%rax),%edx
  40a65e:	48 8b 45 f0          	mov    -0x10(%rbp),%rax
  40a662:	8b 00                	mov    (%rax),%eax
  40a664:	39 c2                	cmp    %eax,%edx
  40a666:	7d 06                	jge    40a66e <_ZSt3maxIiERKT_S2_S2_+0x22>
  40a668:	48 8b 45 f0          	mov    -0x10(%rbp),%rax
  40a66c:	eb 04                	jmp    40a672 <_ZSt3maxIiERKT_S2_S2_+0x26>
  40a66e:	48 8b 45 f8          	mov    -0x8(%rbp),%rax
  40a672:	5d                   	pop    %rbp
  40a673:	c3                   	retq   

000000000040a674 <_ZN3MapISsbE10rotateLeftERPNS0_7BSTNodeE>:
  40a674:	55                   	push   %rbp
  40a675:	48 89 e5             	mov    %rsp,%rbp
  40a678:	48 89 7d e8          	mov    %rdi,-0x18(%rbp)
  40a67c:	48 89 75 e0          	mov    %rsi,-0x20(%rbp)
  40a680:	48 8b 45 e0          	mov    -0x20(%rbp),%rax
  40a684:	48 8b 00             	mov    (%rax),%rax
  40a687:	48 8b 40 18          	mov    0x18(%rax),%rax
  40a68b:	48 89 45 f8          	mov    %rax,-0x8(%rbp)
  40a68f:	48 8b 45 e0          	mov    -0x20(%rbp),%rax
  40a693:	48 8b 00             	mov    (%rax),%rax
  40a696:	48 8b 55 f8          	mov    -0x8(%rbp),%rdx
  40a69a:	48 8b 52 10          	mov    0x10(%rdx),%rdx
  40a69e:	48 89 50 18          	mov    %rdx,0x18(%rax)
  40a6a2:	48 8b 45 e0          	mov    -0x20(%rbp),%rax
  40a6a6:	48 8b 10             	mov    (%rax),%rdx
  40a6a9:	48 8b 45 f8          	mov    -0x8(%rbp),%rax
  40a6ad:	48 89 50 10          	mov    %rdx,0x10(%rax)
  40a6b1:	48 8b 45 e0          	mov    -0x20(%rbp),%rax
  40a6b5:	48 8b 55 f8          	mov    -0x8(%rbp),%rdx
  40a6b9:	48 89 10             	mov    %rdx,(%rax)
  40a6bc:	5d                   	pop    %rbp
  40a6bd:	c3                   	retq   

000000000040a6be <_ZN3MapISsbE11rotateRightERPNS0_7BSTNodeE>:
  40a6be:	55                   	push   %rbp
  40a6bf:	48 89 e5             	mov    %rsp,%rbp
  40a6c2:	48 89 7d e8          	mov    %rdi,-0x18(%rbp)
  40a6c6:	48 89 75 e0          	mov    %rsi,-0x20(%rbp)
  40a6ca:	48 8b 45 e0          	mov    -0x20(%rbp),%rax
  40a6ce:	48 8b 00             	mov    (%rax),%rax
  40a6d1:	48 8b 40 10          	mov    0x10(%rax),%rax
  40a6d5:	48 89 45 f8          	mov    %rax,-0x8(%rbp)
  40a6d9:	48 8b 45 e0          	mov    -0x20(%rbp),%rax
  40a6dd:	48 8b 00             	mov    (%rax),%rax
  40a6e0:	48 8b 55 f8          	mov    -0x8(%rbp),%rdx
  40a6e4:	48 8b 52 18          	mov    0x18(%rdx),%rdx
  40a6e8:	48 89 50 10          	mov    %rdx,0x10(%rax)
  40a6ec:	48 8b 45 e0          	mov    -0x20(%rbp),%rax
  40a6f0:	48 8b 10             	mov    (%rax),%rdx
  40a6f3:	48 8b 45 f8          	mov    -0x8(%rbp),%rax
  40a6f7:	48 89 50 18          	mov    %rdx,0x18(%rax)
  40a6fb:	48 8b 45 e0          	mov    -0x20(%rbp),%rax
  40a6ff:	48 8b 55 f8          	mov    -0x8(%rbp),%rdx
  40a703:	48 89 10             	mov    %rdx,(%rax)
  40a706:	5d                   	pop    %rbp
  40a707:	c3                   	retq   

000000000040a708 <_ZN6VectorIN3MapISsbE8iterator10NodeMarkerEE14expandCapacityEv>:
  40a708:	55                   	push   %rbp
  40a709:	48 89 e5             	mov    %rsp,%rbp
  40a70c:	48 83 ec 30          	sub    $0x30,%rsp
  40a710:	48 89 7d d8          	mov    %rdi,-0x28(%rbp)
  40a714:	48 8b 45 d8          	mov    -0x28(%rbp),%rax
  40a718:	8b 40 10             	mov    0x10(%rax),%eax
  40a71b:	01 c0                	add    %eax,%eax
  40a71d:	89 45 f0             	mov    %eax,-0x10(%rbp)
  40a720:	c7 45 ec 01 00 00 00 	movl   $0x1,-0x14(%rbp)
  40a727:	48 8d 55 f0          	lea    -0x10(%rbp),%rdx
  40a72b:	48 8d 45 ec          	lea    -0x14(%rbp),%rax
  40a72f:	48 89 d6             	mov    %rdx,%rsi
  40a732:	48 89 c7             	mov    %rax,%rdi
  40a735:	e8 12 ff ff ff       	callq  40a64c <_ZSt3maxIiERKT_S2_S2_>
  40a73a:	8b 10                	mov    (%rax),%edx
  40a73c:	48 8b 45 d8          	mov    -0x28(%rbp),%rax
  40a740:	89 50 10             	mov    %edx,0x10(%rax)
  40a743:	48 8b 45 d8          	mov    -0x28(%rbp),%rax
  40a747:	8b 40 10             	mov    0x10(%rax),%eax
  40a74a:	48 98                	cltq   
  40a74c:	48 ba 00 00 00 00 00 	movabs $0x7f0000000000000,%rdx
  40a753:	00 f0 07 
  40a756:	48 39 d0             	cmp    %rdx,%rax
  40a759:	77 06                	ja     40a761 <_ZN6VectorIN3MapISsbE8iterator10NodeMarkerEE14expandCapacityEv+0x59>
  40a75b:	48 c1 e0 04          	shl    $0x4,%rax
  40a75f:	eb 07                	jmp    40a768 <_ZN6VectorIN3MapISsbE8iterator10NodeMarkerEE14expandCapacityEv+0x60>
  40a761:	48 c7 c0 ff ff ff ff 	mov    $0xffffffffffffffff,%rax
  40a768:	48 89 c7             	mov    %rax,%rdi
  40a76b:	e8 e0 7c ff ff       	callq  402450 <_Znam@plt>
  40a770:	48 89 45 f8          	mov    %rax,-0x8(%rbp)
  40a774:	c7 45 f4 00 00 00 00 	movl   $0x0,-0xc(%rbp)
  40a77b:	eb 3b                	jmp    40a7b8 <_ZN6VectorIN3MapISsbE8iterator10NodeMarkerEE14expandCapacityEv+0xb0>
  40a77d:	8b 45 f4             	mov    -0xc(%rbp),%eax
  40a780:	48 98                	cltq   
  40a782:	48 c1 e0 04          	shl    $0x4,%rax
  40a786:	48 89 c2             	mov    %rax,%rdx
  40a789:	48 8b 45 f8          	mov    -0x8(%rbp),%rax
  40a78d:	48 8d 0c 02          	lea    (%rdx,%rax,1),%rcx
  40a791:	48 8b 45 d8          	mov    -0x28(%rbp),%rax
  40a795:	48 8b 40 08          	mov    0x8(%rax),%rax
  40a799:	8b 55 f4             	mov    -0xc(%rbp),%edx
  40a79c:	48 63 d2             	movslq %edx,%rdx
  40a79f:	48 c1 e2 04          	shl    $0x4,%rdx
  40a7a3:	48 01 d0             	add    %rdx,%rax
  40a7a6:	48 8b 50 08          	mov    0x8(%rax),%rdx
  40a7aa:	48 8b 00             	mov    (%rax),%rax
  40a7ad:	48 89 01             	mov    %rax,(%rcx)
  40a7b0:	48 89 51 08          	mov    %rdx,0x8(%rcx)
  40a7b4:	83 45 f4 01          	addl   $0x1,-0xc(%rbp)
  40a7b8:	48 8b 45 d8          	mov    -0x28(%rbp),%rax
  40a7bc:	8b 40 14             	mov    0x14(%rax),%eax
  40a7bf:	3b 45 f4             	cmp    -0xc(%rbp),%eax
  40a7c2:	7f b9                	jg     40a77d <_ZN6VectorIN3MapISsbE8iterator10NodeMarkerEE14expandCapacityEv+0x75>
  40a7c4:	48 8b 45 d8          	mov    -0x28(%rbp),%rax
  40a7c8:	48 8b 40 08          	mov    0x8(%rax),%rax
  40a7cc:	48 85 c0             	test   %rax,%rax
  40a7cf:	74 1d                	je     40a7ee <_ZN6VectorIN3MapISsbE8iterator10NodeMarkerEE14expandCapacityEv+0xe6>
  40a7d1:	48 8b 45 d8          	mov    -0x28(%rbp),%rax
  40a7d5:	48 8b 40 08          	mov    0x8(%rax),%rax
  40a7d9:	48 85 c0             	test   %rax,%rax
  40a7dc:	74 10                	je     40a7ee <_ZN6VectorIN3MapISsbE8iterator10NodeMarkerEE14expandCapacityEv+0xe6>
  40a7de:	48 8b 45 d8          	mov    -0x28(%rbp),%rax
  40a7e2:	48 8b 40 08          	mov    0x8(%rax),%rax
  40a7e6:	48 89 c7             	mov    %rax,%rdi
  40a7e9:	e8 92 7f ff ff       	callq  402780 <_ZdaPv@plt>
  40a7ee:	48 8b 45 d8          	mov    -0x28(%rbp),%rax
  40a7f2:	48 8b 55 f8          	mov    -0x8(%rbp),%rdx
  40a7f6:	48 89 50 08          	mov    %rdx,0x8(%rax)
  40a7fa:	c9                   	leaveq 
  40a7fb:	c3                   	retq   

000000000040a7fc <_ZN3MapISsbE18TemplateComparatorISt4lessISsEED1Ev>:
  40a7fc:	55                   	push   %rbp
  40a7fd:	48 89 e5             	mov    %rsp,%rbp
  40a800:	48 83 ec 10          	sub    $0x10,%rsp
  40a804:	48 89 7d f8          	mov    %rdi,-0x8(%rbp)
  40a808:	48 8b 45 f8          	mov    -0x8(%rbp),%rax
  40a80c:	48 c7 00 30 c5 40 00 	movq   $0x40c530,(%rax)
  40a813:	48 8b 45 f8          	mov    -0x8(%rbp),%rax
  40a817:	48 89 c7             	mov    %rax,%rdi
  40a81a:	e8 a5 ec ff ff       	callq  4094c4 <_ZN3MapISsbE10ComparatorD1Ev>
  40a81f:	b8 00 00 00 00       	mov    $0x0,%eax
  40a824:	85 c0                	test   %eax,%eax
  40a826:	74 0c                	je     40a834 <_ZN3MapISsbE18TemplateComparatorISt4lessISsEED1Ev+0x38>
  40a828:	48 8b 45 f8          	mov    -0x8(%rbp),%rax
  40a82c:	48 89 c7             	mov    %rax,%rdi
  40a82f:	e8 2c 7c ff ff       	callq  402460 <_ZdlPv@plt>
  40a834:	c9                   	leaveq 
  40a835:	c3                   	retq   

000000000040a836 <_ZN3MapISsbE18TemplateComparatorISt4lessISsEED0Ev>:
  40a836:	55                   	push   %rbp
  40a837:	48 89 e5             	mov    %rsp,%rbp
  40a83a:	48 83 ec 10          	sub    $0x10,%rsp
  40a83e:	48 89 7d f8          	mov    %rdi,-0x8(%rbp)
  40a842:	48 8b 45 f8          	mov    -0x8(%rbp),%rax
  40a846:	48 89 c7             	mov    %rax,%rdi
  40a849:	e8 ae ff ff ff       	callq  40a7fc <_ZN3MapISsbE18TemplateComparatorISt4lessISsEED1Ev>
  40a84e:	48 8b 45 f8          	mov    -0x8(%rbp),%rax
  40a852:	48 89 c7             	mov    %rax,%rdi
  40a855:	e8 06 7c ff ff       	callq  402460 <_ZdlPv@plt>
  40a85a:	c9                   	leaveq 
  40a85b:	c3                   	retq   

000000000040a85c <_ZN3_fe6CRangeI3SetISsEED1Ev>:
  40a85c:	55                   	push   %rbp
  40a85d:	48 89 e5             	mov    %rsp,%rbp
  40a860:	53                   	push   %rbx
  40a861:	48 83 ec 18          	sub    $0x18,%rsp
  40a865:	48 89 7d e8          	mov    %rdi,-0x18(%rbp)
  40a869:	48 8b 45 e8          	mov    -0x18(%rbp),%rax
  40a86d:	48 c7 00 b0 c5 40 00 	movq   $0x40c5b0,(%rax)
  40a874:	48 8b 45 e8          	mov    -0x18(%rbp),%rax
  40a878:	48 83 c0 78          	add    $0x78,%rax
  40a87c:	48 89 c7             	mov    %rax,%rdi
  40a87f:	e8 62 cf ff ff       	callq  4077e6 <_ZN3SetISsE8iteratorD1Ev>
  40a884:	48 8b 45 e8          	mov    -0x18(%rbp),%rax
  40a888:	48 83 c0 40          	add    $0x40,%rax
  40a88c:	48 89 c7             	mov    %rax,%rdi
  40a88f:	e8 52 cf ff ff       	callq  4077e6 <_ZN3SetISsE8iteratorD1Ev>
  40a894:	48 8b 45 e8          	mov    -0x18(%rbp),%rax
  40a898:	48 83 c0 08          	add    $0x8,%rax
  40a89c:	48 89 c7             	mov    %rax,%rdi
  40a89f:	e8 3c d9 ff ff       	callq  4081e0 <_ZN3SetISsED1Ev>
  40a8a4:	48 8b 45 e8          	mov    -0x18(%rbp),%rax
  40a8a8:	48 89 c7             	mov    %rax,%rdi
  40a8ab:	e8 60 ce ff ff       	callq  407710 <_ZN3_fe5RangeD1Ev>
  40a8b0:	b8 00 00 00 00       	mov    $0x0,%eax
  40a8b5:	85 c0                	test   %eax,%eax
  40a8b7:	74 52                	je     40a90b <_ZN3_fe6CRangeI3SetISsEED1Ev+0xaf>
  40a8b9:	48 8b 45 e8          	mov    -0x18(%rbp),%rax
  40a8bd:	48 89 c7             	mov    %rax,%rdi
  40a8c0:	e8 9b 7b ff ff       	callq  402460 <_ZdlPv@plt>
  40a8c5:	eb 44                	jmp    40a90b <_ZN3_fe6CRangeI3SetISsEED1Ev+0xaf>
  40a8c7:	48 89 c3             	mov    %rax,%rbx
  40a8ca:	48 8b 45 e8          	mov    -0x18(%rbp),%rax
  40a8ce:	48 83 c0 40          	add    $0x40,%rax
  40a8d2:	48 89 c7             	mov    %rax,%rdi
  40a8d5:	e8 0c cf ff ff       	callq  4077e6 <_ZN3SetISsE8iteratorD1Ev>
  40a8da:	eb 03                	jmp    40a8df <_ZN3_fe6CRangeI3SetISsEED1Ev+0x83>
  40a8dc:	48 89 c3             	mov    %rax,%rbx
  40a8df:	48 8b 45 e8          	mov    -0x18(%rbp),%rax
  40a8e3:	48 83 c0 08          	add    $0x8,%rax
  40a8e7:	48 89 c7             	mov    %rax,%rdi
  40a8ea:	e8 f1 d8 ff ff       	callq  4081e0 <_ZN3SetISsED1Ev>
  40a8ef:	eb 03                	jmp    40a8f4 <_ZN3_fe6CRangeI3SetISsEED1Ev+0x98>
  40a8f1:	48 89 c3             	mov    %rax,%rbx
  40a8f4:	48 8b 45 e8          	mov    -0x18(%rbp),%rax
  40a8f8:	48 89 c7             	mov    %rax,%rdi
  40a8fb:	e8 10 ce ff ff       	callq  407710 <_ZN3_fe5RangeD1Ev>
  40a900:	48 89 d8             	mov    %rbx,%rax
  40a903:	48 89 c7             	mov    %rax,%rdi
  40a906:	e8 c5 7f ff ff       	callq  4028d0 <_Unwind_Resume@plt>
  40a90b:	48 83 c4 18          	add    $0x18,%rsp
  40a90f:	5b                   	pop    %rbx
  40a910:	5d                   	pop    %rbp
  40a911:	c3                   	retq   

000000000040a912 <_ZN3_fe6CRangeI3SetISsEED0Ev>:
  40a912:	55                   	push   %rbp
  40a913:	48 89 e5             	mov    %rsp,%rbp
  40a916:	48 83 ec 10          	sub    $0x10,%rsp
  40a91a:	48 89 7d f8          	mov    %rdi,-0x8(%rbp)
  40a91e:	48 8b 45 f8          	mov    -0x8(%rbp),%rax
  40a922:	48 89 c7             	mov    %rax,%rdi
  40a925:	e8 32 ff ff ff       	callq  40a85c <_ZN3_fe6CRangeI3SetISsEED1Ev>
  40a92a:	48 8b 45 f8          	mov    -0x8(%rbp),%rax
  40a92e:	48 89 c7             	mov    %rax,%rdi
  40a931:	e8 2a 7b ff ff       	callq  402460 <_ZdlPv@plt>
  40a936:	c9                   	leaveq 
  40a937:	c3                   	retq   

000000000040a938 <_ZN3_fe6CRangeI7LexiconED1Ev>:
  40a938:	55                   	push   %rbp
  40a939:	48 89 e5             	mov    %rsp,%rbp
  40a93c:	53                   	push   %rbx
  40a93d:	48 83 ec 18          	sub    $0x18,%rsp
  40a941:	48 89 7d e8          	mov    %rdi,-0x18(%rbp)
  40a945:	48 8b 45 e8          	mov    -0x18(%rbp),%rax
  40a949:	48 c7 00 f0 c5 40 00 	movq   $0x40c5f0,(%rax)
  40a950:	48 8b 45 e8          	mov    -0x18(%rbp),%rax
  40a954:	48 05 20 01 00 00    	add    $0x120,%rax
  40a95a:	48 89 c7             	mov    %rax,%rdi
  40a95d:	e8 98 d2 ff ff       	callq  407bfa <_ZN7Lexicon8iteratorD1Ev>
  40a962:	48 8b 45 e8          	mov    -0x18(%rbp),%rax
  40a966:	48 83 c0 60          	add    $0x60,%rax
  40a96a:	48 89 c7             	mov    %rax,%rdi
  40a96d:	e8 88 d2 ff ff       	callq  407bfa <_ZN7Lexicon8iteratorD1Ev>
  40a972:	48 8b 45 e8          	mov    -0x18(%rbp),%rax
  40a976:	48 83 c0 08          	add    $0x8,%rax
  40a97a:	48 89 c7             	mov    %rax,%rdi
  40a97d:	e8 40 b8 ff ff       	callq  4061c2 <_ZN7LexiconD1Ev>
  40a982:	48 8b 45 e8          	mov    -0x18(%rbp),%rax
  40a986:	48 89 c7             	mov    %rax,%rdi
  40a989:	e8 82 cd ff ff       	callq  407710 <_ZN3_fe5RangeD1Ev>
  40a98e:	b8 00 00 00 00       	mov    $0x0,%eax
  40a993:	85 c0                	test   %eax,%eax
  40a995:	74 52                	je     40a9e9 <_ZN3_fe6CRangeI7LexiconED1Ev+0xb1>
  40a997:	48 8b 45 e8          	mov    -0x18(%rbp),%rax
  40a99b:	48 89 c7             	mov    %rax,%rdi
  40a99e:	e8 bd 7a ff ff       	callq  402460 <_ZdlPv@plt>
  40a9a3:	eb 44                	jmp    40a9e9 <_ZN3_fe6CRangeI7LexiconED1Ev+0xb1>
  40a9a5:	48 89 c3             	mov    %rax,%rbx
  40a9a8:	48 8b 45 e8          	mov    -0x18(%rbp),%rax
  40a9ac:	48 83 c0 60          	add    $0x60,%rax
  40a9b0:	48 89 c7             	mov    %rax,%rdi
  40a9b3:	e8 42 d2 ff ff       	callq  407bfa <_ZN7Lexicon8iteratorD1Ev>
  40a9b8:	eb 03                	jmp    40a9bd <_ZN3_fe6CRangeI7LexiconED1Ev+0x85>
  40a9ba:	48 89 c3             	mov    %rax,%rbx
  40a9bd:	48 8b 45 e8          	mov    -0x18(%rbp),%rax
  40a9c1:	48 83 c0 08          	add    $0x8,%rax
  40a9c5:	48 89 c7             	mov    %rax,%rdi
  40a9c8:	e8 f5 b7 ff ff       	callq  4061c2 <_ZN7LexiconD1Ev>
  40a9cd:	eb 03                	jmp    40a9d2 <_ZN3_fe6CRangeI7LexiconED1Ev+0x9a>
  40a9cf:	48 89 c3             	mov    %rax,%rbx
  40a9d2:	48 8b 45 e8          	mov    -0x18(%rbp),%rax
  40a9d6:	48 89 c7             	mov    %rax,%rdi
  40a9d9:	e8 32 cd ff ff       	callq  407710 <_ZN3_fe5RangeD1Ev>
  40a9de:	48 89 d8             	mov    %rbx,%rax
  40a9e1:	48 89 c7             	mov    %rax,%rdi
  40a9e4:	e8 e7 7e ff ff       	callq  4028d0 <_Unwind_Resume@plt>
  40a9e9:	48 83 c4 18          	add    $0x18,%rsp
  40a9ed:	5b                   	pop    %rbx
  40a9ee:	5d                   	pop    %rbp
  40a9ef:	c3                   	retq   

000000000040a9f0 <_ZN3_fe6CRangeI7LexiconED0Ev>:
  40a9f0:	55                   	push   %rbp
  40a9f1:	48 89 e5             	mov    %rsp,%rbp
  40a9f4:	48 83 ec 10          	sub    $0x10,%rsp
  40a9f8:	48 89 7d f8          	mov    %rdi,-0x8(%rbp)
  40a9fc:	48 8b 45 f8          	mov    -0x8(%rbp),%rax
  40aa00:	48 89 c7             	mov    %rax,%rdi
  40aa03:	e8 30 ff ff ff       	callq  40a938 <_ZN3_fe6CRangeI7LexiconED1Ev>
  40aa08:	48 8b 45 f8          	mov    -0x8(%rbp),%rax
  40aa0c:	48 89 c7             	mov    %rax,%rdi
  40aa0f:	e8 4c 7a ff ff       	callq  402460 <_ZdlPv@plt>
  40aa14:	c9                   	leaveq 
  40aa15:	c3                   	retq   

000000000040aa16 <_ZN3MapISsbE18TemplateComparatorISt4lessISsEE8lessThanERKSsS6_>:
  40aa16:	55                   	push   %rbp
  40aa17:	48 89 e5             	mov    %rsp,%rbp
  40aa1a:	48 83 ec 20          	sub    $0x20,%rsp
  40aa1e:	48 89 7d f8          	mov    %rdi,-0x8(%rbp)
  40aa22:	48 89 75 f0          	mov    %rsi,-0x10(%rbp)
  40aa26:	48 89 55 e8          	mov    %rdx,-0x18(%rbp)
  40aa2a:	48 8b 45 f8          	mov    -0x8(%rbp),%rax
  40aa2e:	48 8b 40 08          	mov    0x8(%rax),%rax
  40aa32:	48 8b 55 e8          	mov    -0x18(%rbp),%rdx
  40aa36:	48 8b 4d f0          	mov    -0x10(%rbp),%rcx
  40aa3a:	48 89 ce             	mov    %rcx,%rsi
  40aa3d:	48 89 c7             	mov    %rax,%rdi
  40aa40:	e8 53 00 00 00       	callq  40aa98 <_ZNKSt4lessISsEclERKSsS2_>
  40aa45:	c9                   	leaveq 
  40aa46:	c3                   	retq   
  40aa47:	90                   	nop

000000000040aa48 <_ZN3MapISsbE18TemplateComparatorISt4lessISsEE5cloneEv>:
  40aa48:	55                   	push   %rbp
  40aa49:	48 89 e5             	mov    %rsp,%rbp
  40aa4c:	41 54                	push   %r12
  40aa4e:	53                   	push   %rbx
  40aa4f:	48 83 ec 10          	sub    $0x10,%rsp
  40aa53:	48 89 7d e8          	mov    %rdi,-0x18(%rbp)
  40aa57:	41 89 c4             	mov    %eax,%r12d
  40aa5a:	bf 10 00 00 00       	mov    $0x10,%edi
  40aa5f:	e8 5c 7e ff ff       	callq  4028c0 <_Znwm@plt>
  40aa64:	48 89 c3             	mov    %rax,%rbx
  40aa67:	44 88 24 24          	mov    %r12b,(%rsp)
  40aa6b:	48 89 df             	mov    %rbx,%rdi
  40aa6e:	e8 f7 e9 ff ff       	callq  40946a <_ZN3MapISsbE18TemplateComparatorISt4lessISsEEC1ES3_>
  40aa73:	48 89 d8             	mov    %rbx,%rax
  40aa76:	eb 16                	jmp    40aa8e <_ZN3MapISsbE18TemplateComparatorISt4lessISsEE5cloneEv+0x46>
  40aa78:	49 89 c4             	mov    %rax,%r12
  40aa7b:	48 89 df             	mov    %rbx,%rdi
  40aa7e:	e8 dd 79 ff ff       	callq  402460 <_ZdlPv@plt>
  40aa83:	4c 89 e0             	mov    %r12,%rax
  40aa86:	48 89 c7             	mov    %rax,%rdi
  40aa89:	e8 42 7e ff ff       	callq  4028d0 <_Unwind_Resume@plt>
  40aa8e:	48 83 c4 10          	add    $0x10,%rsp
  40aa92:	5b                   	pop    %rbx
  40aa93:	41 5c                	pop    %r12
  40aa95:	5d                   	pop    %rbp
  40aa96:	c3                   	retq   
  40aa97:	90                   	nop

000000000040aa98 <_ZNKSt4lessISsEclERKSsS2_>:
  40aa98:	55                   	push   %rbp
  40aa99:	48 89 e5             	mov    %rsp,%rbp
  40aa9c:	48 83 ec 20          	sub    $0x20,%rsp
  40aaa0:	48 89 7d f8          	mov    %rdi,-0x8(%rbp)
  40aaa4:	48 89 75 f0          	mov    %rsi,-0x10(%rbp)
  40aaa8:	48 89 55 e8          	mov    %rdx,-0x18(%rbp)
  40aaac:	48 8b 55 e8          	mov    -0x18(%rbp),%rdx
  40aab0:	48 8b 45 f0          	mov    -0x10(%rbp),%rax
  40aab4:	48 89 d6             	mov    %rdx,%rsi
  40aab7:	48 89 c7             	mov    %rax,%rdi
  40aaba:	e8 69 d6 ff ff       	callq  408128 <_ZStltIcSt11char_traitsIcESaIcEEbRKSbIT_T0_T1_ES8_>
  40aabf:	c9                   	leaveq 
  40aac0:	c3                   	retq   

000000000040aac1 <_Z15integerToStringi>:
  40aac1:	55                   	push   %rbp
  40aac2:	48 89 e5             	mov    %rsp,%rbp
  40aac5:	53                   	push   %rbx
  40aac6:	48 81 ec 78 01 00 00 	sub    $0x178,%rsp
  40aacd:	48 89 bd 88 fe ff ff 	mov    %rdi,-0x178(%rbp)
  40aad4:	89 b5 84 fe ff ff    	mov    %esi,-0x17c(%rbp)
  40aada:	48 8d 85 90 fe ff ff 	lea    -0x170(%rbp),%rax
  40aae1:	be 10 00 00 00       	mov    $0x10,%esi
  40aae6:	48 89 c7             	mov    %rax,%rdi
  40aae9:	e8 a2 7d ff ff       	callq  402890 <_ZNSt19basic_ostringstreamIcSt11char_traitsIcESaIcEEC1ESt13_Ios_Openmode@plt>
  40aaee:	8b 95 84 fe ff ff    	mov    -0x17c(%rbp),%edx
  40aaf4:	48 8d 85 90 fe ff ff 	lea    -0x170(%rbp),%rax
  40aafb:	89 d6                	mov    %edx,%esi
  40aafd:	48 89 c7             	mov    %rax,%rdi
  40ab00:	e8 bb 78 ff ff       	callq  4023c0 <_ZNSolsEi@plt>
  40ab05:	48 8b 85 88 fe ff ff 	mov    -0x178(%rbp),%rax
  40ab0c:	48 8d 95 90 fe ff ff 	lea    -0x170(%rbp),%rdx
  40ab13:	48 89 d6             	mov    %rdx,%rsi
  40ab16:	48 89 c7             	mov    %rax,%rdi
  40ab19:	e8 d2 79 ff ff       	callq  4024f0 <_ZNKSt19basic_ostringstreamIcSt11char_traitsIcESaIcEE3strEv@plt>
  40ab1e:	90                   	nop
  40ab1f:	48 8d 85 90 fe ff ff 	lea    -0x170(%rbp),%rax
  40ab26:	48 89 c7             	mov    %rax,%rdi
  40ab29:	e8 c2 7b ff ff       	callq  4026f0 <_ZNSt19basic_ostringstreamIcSt11char_traitsIcESaIcEED1Ev@plt>
  40ab2e:	eb 1d                	jmp    40ab4d <_Z15integerToStringi+0x8c>
  40ab30:	48 89 c3             	mov    %rax,%rbx
  40ab33:	48 8d 85 90 fe ff ff 	lea    -0x170(%rbp),%rax
  40ab3a:	48 89 c7             	mov    %rax,%rdi
  40ab3d:	e8 ae 7b ff ff       	callq  4026f0 <_ZNSt19basic_ostringstreamIcSt11char_traitsIcESaIcEED1Ev@plt>
  40ab42:	48 89 d8             	mov    %rbx,%rax
  40ab45:	48 89 c7             	mov    %rax,%rdi
  40ab48:	e8 83 7d ff ff       	callq  4028d0 <_Unwind_Resume@plt>
  40ab4d:	48 8b 85 88 fe ff ff 	mov    -0x178(%rbp),%rax
  40ab54:	48 81 c4 78 01 00 00 	add    $0x178,%rsp
  40ab5b:	5b                   	pop    %rbx
  40ab5c:	5d                   	pop    %rbp
  40ab5d:	c3                   	retq   

000000000040ab5e <_Z15stringToIntegerSs>:
  40ab5e:	55                   	push   %rbp
  40ab5f:	48 89 e5             	mov    %rsp,%rbp
  40ab62:	53                   	push   %rbx
  40ab63:	48 81 ec b8 01 00 00 	sub    $0x1b8,%rsp
  40ab6a:	48 89 bd 48 fe ff ff 	mov    %rdi,-0x1b8(%rbp)
  40ab71:	48 8b 8d 48 fe ff ff 	mov    -0x1b8(%rbp),%rcx
  40ab78:	48 8d 85 80 fe ff ff 	lea    -0x180(%rbp),%rax
  40ab7f:	ba 08 00 00 00       	mov    $0x8,%edx
  40ab84:	48 89 ce             	mov    %rcx,%rsi
  40ab87:	48 89 c7             	mov    %rax,%rdi
  40ab8a:	e8 71 7c ff ff       	callq  402800 <_ZNSt19basic_istringstreamIcSt11char_traitsIcESaIcEEC1ERKSsSt13_Ios_Openmode@plt>
  40ab8f:	48 8d 95 5c fe ff ff 	lea    -0x1a4(%rbp),%rdx
  40ab96:	48 8d 85 80 fe ff ff 	lea    -0x180(%rbp),%rax
  40ab9d:	48 89 d6             	mov    %rdx,%rsi
  40aba0:	48 89 c7             	mov    %rax,%rdi
  40aba3:	e8 b8 7b ff ff       	callq  402760 <_ZNSirsERi@plt>
  40aba8:	be 20 29 40 00       	mov    $0x402920,%esi
  40abad:	48 89 c7             	mov    %rax,%rdi
  40abb0:	e8 ab 77 ff ff       	callq  402360 <_ZNSirsEPFRSiS_E@plt>
  40abb5:	48 8d 85 80 fe ff ff 	lea    -0x180(%rbp),%rax
  40abbc:	48 83 c0 60          	add    $0x60,%rax
  40abc0:	48 89 c7             	mov    %rax,%rdi
  40abc3:	e8 e8 7a ff ff       	callq  4026b0 <_ZNKSt9basic_iosIcSt11char_traitsIcEE4failEv@plt>
  40abc8:	84 c0                	test   %al,%al
  40abca:	75 1a                	jne    40abe6 <_Z15stringToIntegerSs+0x88>
  40abcc:	48 8d 85 80 fe ff ff 	lea    -0x180(%rbp),%rax
  40abd3:	48 83 c0 60          	add    $0x60,%rax
  40abd7:	48 89 c7             	mov    %rax,%rdi
  40abda:	e8 91 7a ff ff       	callq  402670 <_ZNKSt9basic_iosIcSt11char_traitsIcEE3eofEv@plt>
  40abdf:	83 f0 01             	xor    $0x1,%eax
  40abe2:	84 c0                	test   %al,%al
  40abe4:	74 07                	je     40abed <_Z15stringToIntegerSs+0x8f>
  40abe6:	b8 01 00 00 00       	mov    $0x1,%eax
  40abeb:	eb 05                	jmp    40abf2 <_Z15stringToIntegerSs+0x94>
  40abed:	b8 00 00 00 00       	mov    $0x0,%eax
  40abf2:	84 c0                	test   %al,%al
  40abf4:	74 66                	je     40ac5c <_Z15stringToIntegerSs+0xfe>
  40abf6:	48 8d 85 60 fe ff ff 	lea    -0x1a0(%rbp),%rax
  40abfd:	48 8b 95 48 fe ff ff 	mov    -0x1b8(%rbp),%rdx
  40ac04:	be 40 c9 40 00       	mov    $0x40c940,%esi
  40ac09:	48 89 c7             	mov    %rax,%rdi
  40ac0c:	e8 33 d6 ff ff       	callq  408244 <_ZStplIcSt11char_traitsIcESaIcEESbIT_T0_T1_EPKS3_RKS6_>
  40ac11:	48 8d 85 70 fe ff ff 	lea    -0x190(%rbp),%rax
  40ac18:	48 8d 8d 60 fe ff ff 	lea    -0x1a0(%rbp),%rcx
  40ac1f:	ba 6a c9 40 00       	mov    $0x40c96a,%edx
  40ac24:	48 89 ce             	mov    %rcx,%rsi
  40ac27:	48 89 c7             	mov    %rax,%rdi
  40ac2a:	e8 14 13 00 00       	callq  40bf43 <_ZStplIcSt11char_traitsIcESaIcEESbIT_T0_T1_ERKS6_PKS3_>
  40ac2f:	48 8d 85 70 fe ff ff 	lea    -0x190(%rbp),%rax
  40ac36:	48 89 c7             	mov    %rax,%rdi
  40ac39:	e8 57 15 00 00       	callq  40c195 <_Z5errorSs>
  40ac3e:	48 8d 85 70 fe ff ff 	lea    -0x190(%rbp),%rax
  40ac45:	48 89 c7             	mov    %rax,%rdi
  40ac48:	e8 53 79 ff ff       	callq  4025a0 <_ZNSsD1Ev@plt>
  40ac4d:	48 8d 85 60 fe ff ff 	lea    -0x1a0(%rbp),%rax
  40ac54:	48 89 c7             	mov    %rax,%rdi
  40ac57:	e8 44 79 ff ff       	callq  4025a0 <_ZNSsD1Ev@plt>
  40ac5c:	8b 9d 5c fe ff ff    	mov    -0x1a4(%rbp),%ebx
  40ac62:	48 8d 85 80 fe ff ff 	lea    -0x180(%rbp),%rax
  40ac69:	48 89 c7             	mov    %rax,%rdi
  40ac6c:	e8 1f 7a ff ff       	callq  402690 <_ZNSt19basic_istringstreamIcSt11char_traitsIcESaIcEED1Ev@plt>
  40ac71:	89 d8                	mov    %ebx,%eax
  40ac73:	eb 45                	jmp    40acba <_Z15stringToIntegerSs+0x15c>
  40ac75:	48 89 c3             	mov    %rax,%rbx
  40ac78:	48 8d 85 70 fe ff ff 	lea    -0x190(%rbp),%rax
  40ac7f:	48 89 c7             	mov    %rax,%rdi
  40ac82:	e8 19 79 ff ff       	callq  4025a0 <_ZNSsD1Ev@plt>
  40ac87:	eb 03                	jmp    40ac8c <_Z15stringToIntegerSs+0x12e>
  40ac89:	48 89 c3             	mov    %rax,%rbx
  40ac8c:	48 8d 85 60 fe ff ff 	lea    -0x1a0(%rbp),%rax
  40ac93:	48 89 c7             	mov    %rax,%rdi
  40ac96:	e8 05 79 ff ff       	callq  4025a0 <_ZNSsD1Ev@plt>
  40ac9b:	eb 03                	jmp    40aca0 <_Z15stringToIntegerSs+0x142>
  40ac9d:	48 89 c3             	mov    %rax,%rbx
  40aca0:	48 8d 85 80 fe ff ff 	lea    -0x180(%rbp),%rax
  40aca7:	48 89 c7             	mov    %rax,%rdi
  40acaa:	e8 e1 79 ff ff       	callq  402690 <_ZNSt19basic_istringstreamIcSt11char_traitsIcESaIcEED1Ev@plt>
  40acaf:	48 89 d8             	mov    %rbx,%rax
  40acb2:	48 89 c7             	mov    %rax,%rdi
  40acb5:	e8 16 7c ff ff       	callq  4028d0 <_Unwind_Resume@plt>
  40acba:	48 81 c4 b8 01 00 00 	add    $0x1b8,%rsp
  40acc1:	5b                   	pop    %rbx
  40acc2:	5d                   	pop    %rbp
  40acc3:	c3                   	retq   

000000000040acc4 <_Z12realToStringd>:
  40acc4:	55                   	push   %rbp
  40acc5:	48 89 e5             	mov    %rsp,%rbp
  40acc8:	53                   	push   %rbx
  40acc9:	48 81 ec 88 01 00 00 	sub    $0x188,%rsp
  40acd0:	48 89 bd 88 fe ff ff 	mov    %rdi,-0x178(%rbp)
  40acd7:	f2 0f 11 85 80 fe ff 	movsd  %xmm0,-0x180(%rbp)
  40acde:	ff 
  40acdf:	48 8d 85 90 fe ff ff 	lea    -0x170(%rbp),%rax
  40ace6:	be 10 00 00 00       	mov    $0x10,%esi
  40aceb:	48 89 c7             	mov    %rax,%rdi
  40acee:	e8 9d 7b ff ff       	callq  402890 <_ZNSt19basic_ostringstreamIcSt11char_traitsIcESaIcEEC1ESt13_Ios_Openmode@plt>
  40acf3:	48 8d 85 90 fe ff ff 	lea    -0x170(%rbp),%rax
  40acfa:	be ec be 40 00       	mov    $0x40beec,%esi
  40acff:	48 89 c7             	mov    %rax,%rdi
  40ad02:	e8 f9 7b ff ff       	callq  402900 <_ZNSolsEPFRSt8ios_baseS0_E@plt>
  40ad07:	48 89 c2             	mov    %rax,%rdx
  40ad0a:	48 8b 85 80 fe ff ff 	mov    -0x180(%rbp),%rax
  40ad11:	48 89 85 78 fe ff ff 	mov    %rax,-0x188(%rbp)
  40ad18:	f2 0f 10 85 78 fe ff 	movsd  -0x188(%rbp),%xmm0
  40ad1f:	ff 
  40ad20:	48 89 d7             	mov    %rdx,%rdi
  40ad23:	e8 58 76 ff ff       	callq  402380 <_ZNSolsEd@plt>
  40ad28:	48 8b 85 88 fe ff ff 	mov    -0x178(%rbp),%rax
  40ad2f:	48 8d 95 90 fe ff ff 	lea    -0x170(%rbp),%rdx
  40ad36:	48 89 d6             	mov    %rdx,%rsi
  40ad39:	48 89 c7             	mov    %rax,%rdi
  40ad3c:	e8 af 77 ff ff       	callq  4024f0 <_ZNKSt19basic_ostringstreamIcSt11char_traitsIcESaIcEE3strEv@plt>
  40ad41:	90                   	nop
  40ad42:	48 8d 85 90 fe ff ff 	lea    -0x170(%rbp),%rax
  40ad49:	48 89 c7             	mov    %rax,%rdi
  40ad4c:	e8 9f 79 ff ff       	callq  4026f0 <_ZNSt19basic_ostringstreamIcSt11char_traitsIcESaIcEED1Ev@plt>
  40ad51:	eb 1d                	jmp    40ad70 <_Z12realToStringd+0xac>
  40ad53:	48 89 c3             	mov    %rax,%rbx
  40ad56:	48 8d 85 90 fe ff ff 	lea    -0x170(%rbp),%rax
  40ad5d:	48 89 c7             	mov    %rax,%rdi
  40ad60:	e8 8b 79 ff ff       	callq  4026f0 <_ZNSt19basic_ostringstreamIcSt11char_traitsIcESaIcEED1Ev@plt>
  40ad65:	48 89 d8             	mov    %rbx,%rax
  40ad68:	48 89 c7             	mov    %rax,%rdi
  40ad6b:	e8 60 7b ff ff       	callq  4028d0 <_Unwind_Resume@plt>
  40ad70:	48 8b 85 88 fe ff ff 	mov    -0x178(%rbp),%rax
  40ad77:	48 81 c4 88 01 00 00 	add    $0x188,%rsp
  40ad7e:	5b                   	pop    %rbx
  40ad7f:	5d                   	pop    %rbp
  40ad80:	c3                   	retq   

000000000040ad81 <_Z12stringToRealSs>:
  40ad81:	55                   	push   %rbp
  40ad82:	48 89 e5             	mov    %rsp,%rbp
  40ad85:	53                   	push   %rbx
  40ad86:	48 81 ec a8 01 00 00 	sub    $0x1a8,%rsp
  40ad8d:	48 89 bd 58 fe ff ff 	mov    %rdi,-0x1a8(%rbp)
  40ad94:	48 8b 8d 58 fe ff ff 	mov    -0x1a8(%rbp),%rcx
  40ad9b:	48 8d 85 80 fe ff ff 	lea    -0x180(%rbp),%rax
  40ada2:	ba 08 00 00 00       	mov    $0x8,%edx
  40ada7:	48 89 ce             	mov    %rcx,%rsi
  40adaa:	48 89 c7             	mov    %rax,%rdi
  40adad:	e8 4e 7a ff ff       	callq  402800 <_ZNSt19basic_istringstreamIcSt11char_traitsIcESaIcEEC1ERKSsSt13_Ios_Openmode@plt>
  40adb2:	48 8d 95 78 fe ff ff 	lea    -0x188(%rbp),%rdx
  40adb9:	48 8d 85 80 fe ff ff 	lea    -0x180(%rbp),%rax
  40adc0:	48 89 d6             	mov    %rdx,%rsi
  40adc3:	48 89 c7             	mov    %rax,%rdi
  40adc6:	e8 05 76 ff ff       	callq  4023d0 <_ZNSirsERd@plt>
  40adcb:	be 20 29 40 00       	mov    $0x402920,%esi
  40add0:	48 89 c7             	mov    %rax,%rdi
  40add3:	e8 88 75 ff ff       	callq  402360 <_ZNSirsEPFRSiS_E@plt>
  40add8:	48 8d 85 80 fe ff ff 	lea    -0x180(%rbp),%rax
  40addf:	48 83 c0 60          	add    $0x60,%rax
  40ade3:	48 89 c7             	mov    %rax,%rdi
  40ade6:	e8 c5 78 ff ff       	callq  4026b0 <_ZNKSt9basic_iosIcSt11char_traitsIcEE4failEv@plt>
  40adeb:	84 c0                	test   %al,%al
  40aded:	75 1a                	jne    40ae09 <_Z12stringToRealSs+0x88>
  40adef:	48 8d 85 80 fe ff ff 	lea    -0x180(%rbp),%rax
  40adf6:	48 83 c0 60          	add    $0x60,%rax
  40adfa:	48 89 c7             	mov    %rax,%rdi
  40adfd:	e8 6e 78 ff ff       	callq  402670 <_ZNKSt9basic_iosIcSt11char_traitsIcEE3eofEv@plt>
  40ae02:	83 f0 01             	xor    $0x1,%eax
  40ae05:	84 c0                	test   %al,%al
  40ae07:	74 07                	je     40ae10 <_Z12stringToRealSs+0x8f>
  40ae09:	b8 01 00 00 00       	mov    $0x1,%eax
  40ae0e:	eb 05                	jmp    40ae15 <_Z12stringToRealSs+0x94>
  40ae10:	b8 00 00 00 00       	mov    $0x0,%eax
  40ae15:	84 c0                	test   %al,%al
  40ae17:	74 66                	je     40ae7f <_Z12stringToRealSs+0xfe>
  40ae19:	48 8d 85 60 fe ff ff 	lea    -0x1a0(%rbp),%rax
  40ae20:	48 8b 95 58 fe ff ff 	mov    -0x1a8(%rbp),%rdx
  40ae27:	be 70 c9 40 00       	mov    $0x40c970,%esi
  40ae2c:	48 89 c7             	mov    %rax,%rdi
  40ae2f:	e8 10 d4 ff ff       	callq  408244 <_ZStplIcSt11char_traitsIcESaIcEESbIT_T0_T1_EPKS3_RKS6_>
  40ae34:	48 8d 85 70 fe ff ff 	lea    -0x190(%rbp),%rax
  40ae3b:	48 8d 8d 60 fe ff ff 	lea    -0x1a0(%rbp),%rcx
  40ae42:	ba 6a c9 40 00       	mov    $0x40c96a,%edx
  40ae47:	48 89 ce             	mov    %rcx,%rsi
  40ae4a:	48 89 c7             	mov    %rax,%rdi
  40ae4d:	e8 f1 10 00 00       	callq  40bf43 <_ZStplIcSt11char_traitsIcESaIcEESbIT_T0_T1_ERKS6_PKS3_>
  40ae52:	48 8d 85 70 fe ff ff 	lea    -0x190(%rbp),%rax
  40ae59:	48 89 c7             	mov    %rax,%rdi
  40ae5c:	e8 34 13 00 00       	callq  40c195 <_Z5errorSs>
  40ae61:	48 8d 85 70 fe ff ff 	lea    -0x190(%rbp),%rax
  40ae68:	48 89 c7             	mov    %rax,%rdi
  40ae6b:	e8 30 77 ff ff       	callq  4025a0 <_ZNSsD1Ev@plt>
  40ae70:	48 8d 85 60 fe ff ff 	lea    -0x1a0(%rbp),%rax
  40ae77:	48 89 c7             	mov    %rax,%rdi
  40ae7a:	e8 21 77 ff ff       	callq  4025a0 <_ZNSsD1Ev@plt>
  40ae7f:	48 8b 9d 78 fe ff ff 	mov    -0x188(%rbp),%rbx
  40ae86:	48 8d 85 80 fe ff ff 	lea    -0x180(%rbp),%rax
  40ae8d:	48 89 c7             	mov    %rax,%rdi
  40ae90:	e8 fb 77 ff ff       	callq  402690 <_ZNSt19basic_istringstreamIcSt11char_traitsIcESaIcEED1Ev@plt>
  40ae95:	48 89 d8             	mov    %rbx,%rax
  40ae98:	eb 45                	jmp    40aedf <_Z12stringToRealSs+0x15e>
  40ae9a:	48 89 c3             	mov    %rax,%rbx
  40ae9d:	48 8d 85 70 fe ff ff 	lea    -0x190(%rbp),%rax
  40aea4:	48 89 c7             	mov    %rax,%rdi
  40aea7:	e8 f4 76 ff ff       	callq  4025a0 <_ZNSsD1Ev@plt>
  40aeac:	eb 03                	jmp    40aeb1 <_Z12stringToRealSs+0x130>
  40aeae:	48 89 c3             	mov    %rax,%rbx
  40aeb1:	48 8d 85 60 fe ff ff 	lea    -0x1a0(%rbp),%rax
  40aeb8:	48 89 c7             	mov    %rax,%rdi
  40aebb:	e8 e0 76 ff ff       	callq  4025a0 <_ZNSsD1Ev@plt>
  40aec0:	eb 03                	jmp    40aec5 <_Z12stringToRealSs+0x144>
  40aec2:	48 89 c3             	mov    %rax,%rbx
  40aec5:	48 8d 85 80 fe ff ff 	lea    -0x180(%rbp),%rax
  40aecc:	48 89 c7             	mov    %rax,%rdi
  40aecf:	e8 bc 77 ff ff       	callq  402690 <_ZNSt19basic_istringstreamIcSt11char_traitsIcESaIcEED1Ev@plt>
  40aed4:	48 89 d8             	mov    %rbx,%rax
  40aed7:	48 89 c7             	mov    %rax,%rdi
  40aeda:	e8 f1 79 ff ff       	callq  4028d0 <_Unwind_Resume@plt>
  40aedf:	48 89 85 50 fe ff ff 	mov    %rax,-0x1b0(%rbp)
  40aee6:	f2 0f 10 85 50 fe ff 	movsd  -0x1b0(%rbp),%xmm0
  40aeed:	ff 
  40aeee:	48 81 c4 a8 01 00 00 	add    $0x1a8,%rsp
  40aef5:	5b                   	pop    %rbx
  40aef6:	5d                   	pop    %rbp
  40aef7:	c3                   	retq   

000000000040aef8 <_Z11toUpperCaseSs>:
  40aef8:	55                   	push   %rbp
  40aef9:	48 89 e5             	mov    %rsp,%rbp
  40aefc:	53                   	push   %rbx
  40aefd:	48 83 ec 28          	sub    $0x28,%rsp
  40af01:	48 89 7d d8          	mov    %rdi,-0x28(%rbp)
  40af05:	48 89 75 d0          	mov    %rsi,-0x30(%rbp)
  40af09:	48 8b 45 d0          	mov    -0x30(%rbp),%rax
  40af0d:	48 89 c7             	mov    %rax,%rdi
  40af10:	e8 5b 76 ff ff       	callq  402570 <_ZNKSs6lengthEv@plt>
  40af15:	89 45 ec             	mov    %eax,-0x14(%rbp)
  40af18:	c7 45 e8 00 00 00 00 	movl   $0x0,-0x18(%rbp)
  40af1f:	eb 40                	jmp    40af61 <_Z11toUpperCaseSs+0x69>
  40af21:	8b 45 e8             	mov    -0x18(%rbp),%eax
  40af24:	48 63 d0             	movslq %eax,%rdx
  40af27:	48 8b 45 d0          	mov    -0x30(%rbp),%rax
  40af2b:	48 89 d6             	mov    %rdx,%rsi
  40af2e:	48 89 c7             	mov    %rax,%rdi
  40af31:	e8 1a 77 ff ff       	callq  402650 <_ZNSsixEm@plt>
  40af36:	48 89 c3             	mov    %rax,%rbx
  40af39:	8b 45 e8             	mov    -0x18(%rbp),%eax
  40af3c:	48 63 d0             	movslq %eax,%rdx
  40af3f:	48 8b 45 d0          	mov    -0x30(%rbp),%rax
  40af43:	48 89 d6             	mov    %rdx,%rsi
  40af46:	48 89 c7             	mov    %rax,%rdi
  40af49:	e8 02 77 ff ff       	callq  402650 <_ZNSsixEm@plt>
  40af4e:	0f b6 00             	movzbl (%rax),%eax
  40af51:	0f be c0             	movsbl %al,%eax
  40af54:	89 c7                	mov    %eax,%edi
  40af56:	e8 25 75 ff ff       	callq  402480 <toupper@plt>
  40af5b:	88 03                	mov    %al,(%rbx)
  40af5d:	83 45 e8 01          	addl   $0x1,-0x18(%rbp)
  40af61:	8b 45 e8             	mov    -0x18(%rbp),%eax
  40af64:	3b 45 ec             	cmp    -0x14(%rbp),%eax
  40af67:	7c b8                	jl     40af21 <_Z11toUpperCaseSs+0x29>
  40af69:	48 8b 55 d0          	mov    -0x30(%rbp),%rdx
  40af6d:	48 8b 45 d8          	mov    -0x28(%rbp),%rax
  40af71:	48 89 d6             	mov    %rdx,%rsi
  40af74:	48 89 c7             	mov    %rax,%rdi
  40af77:	e8 94 75 ff ff       	callq  402510 <_ZNSsC1ERKSs@plt>
  40af7c:	48 8b 45 d8          	mov    -0x28(%rbp),%rax
  40af80:	48 83 c4 28          	add    $0x28,%rsp
  40af84:	5b                   	pop    %rbx
  40af85:	5d                   	pop    %rbp
  40af86:	c3                   	retq   

000000000040af87 <_Z11toLowerCaseSs>:
  40af87:	55                   	push   %rbp
  40af88:	48 89 e5             	mov    %rsp,%rbp
  40af8b:	53                   	push   %rbx
  40af8c:	48 83 ec 28          	sub    $0x28,%rsp
  40af90:	48 89 7d d8          	mov    %rdi,-0x28(%rbp)
  40af94:	48 89 75 d0          	mov    %rsi,-0x30(%rbp)
  40af98:	48 8b 45 d0          	mov    -0x30(%rbp),%rax
  40af9c:	48 89 c7             	mov    %rax,%rdi
  40af9f:	e8 cc 75 ff ff       	callq  402570 <_ZNKSs6lengthEv@plt>
  40afa4:	89 45 ec             	mov    %eax,-0x14(%rbp)
  40afa7:	c7 45 e8 00 00 00 00 	movl   $0x0,-0x18(%rbp)
  40afae:	eb 40                	jmp    40aff0 <_Z11toLowerCaseSs+0x69>
  40afb0:	8b 45 e8             	mov    -0x18(%rbp),%eax
  40afb3:	48 63 d0             	movslq %eax,%rdx
  40afb6:	48 8b 45 d0          	mov    -0x30(%rbp),%rax
  40afba:	48 89 d6             	mov    %rdx,%rsi
  40afbd:	48 89 c7             	mov    %rax,%rdi
  40afc0:	e8 8b 76 ff ff       	callq  402650 <_ZNSsixEm@plt>
  40afc5:	48 89 c3             	mov    %rax,%rbx
  40afc8:	8b 45 e8             	mov    -0x18(%rbp),%eax
  40afcb:	48 63 d0             	movslq %eax,%rdx
  40afce:	48 8b 45 d0          	mov    -0x30(%rbp),%rax
  40afd2:	48 89 d6             	mov    %rdx,%rsi
  40afd5:	48 89 c7             	mov    %rax,%rdi
  40afd8:	e8 73 76 ff ff       	callq  402650 <_ZNSsixEm@plt>
  40afdd:	0f b6 00             	movzbl (%rax),%eax
  40afe0:	0f be c0             	movsbl %al,%eax
  40afe3:	89 c7                	mov    %eax,%edi
  40afe5:	e8 16 77 ff ff       	callq  402700 <tolower@plt>
  40afea:	88 03                	mov    %al,(%rbx)
  40afec:	83 45 e8 01          	addl   $0x1,-0x18(%rbp)
  40aff0:	8b 45 e8             	mov    -0x18(%rbp),%eax
  40aff3:	3b 45 ec             	cmp    -0x14(%rbp),%eax
  40aff6:	7c b8                	jl     40afb0 <_Z11toLowerCaseSs+0x29>
  40aff8:	48 8b 55 d0          	mov    -0x30(%rbp),%rdx
  40affc:	48 8b 45 d8          	mov    -0x28(%rbp),%rax
  40b000:	48 89 d6             	mov    %rdx,%rsi
  40b003:	48 89 c7             	mov    %rax,%rdi
  40b006:	e8 05 75 ff ff       	callq  402510 <_ZNSsC1ERKSs@plt>
  40b00b:	48 8b 45 d8          	mov    -0x28(%rbp),%rax
  40b00f:	48 83 c4 28          	add    $0x28,%rsp
  40b013:	5b                   	pop    %rbx
  40b014:	5d                   	pop    %rbp
  40b015:	c3                   	retq   

000000000040b016 <_Z16equalsIgnoreCaseSsSs>:
  40b016:	55                   	push   %rbp
  40b017:	48 89 e5             	mov    %rsp,%rbp
  40b01a:	53                   	push   %rbx
  40b01b:	48 83 ec 28          	sub    $0x28,%rsp
  40b01f:	48 89 7d d8          	mov    %rdi,-0x28(%rbp)
  40b023:	48 89 75 d0          	mov    %rsi,-0x30(%rbp)
  40b027:	48 8b 45 d8          	mov    -0x28(%rbp),%rax
  40b02b:	48 89 c7             	mov    %rax,%rdi
  40b02e:	e8 3d 75 ff ff       	callq  402570 <_ZNKSs6lengthEv@plt>
  40b033:	48 89 c3             	mov    %rax,%rbx
  40b036:	48 8b 45 d0          	mov    -0x30(%rbp),%rax
  40b03a:	48 89 c7             	mov    %rax,%rdi
  40b03d:	e8 2e 75 ff ff       	callq  402570 <_ZNKSs6lengthEv@plt>
  40b042:	48 39 c3             	cmp    %rax,%rbx
  40b045:	0f 95 c0             	setne  %al
  40b048:	84 c0                	test   %al,%al
  40b04a:	74 07                	je     40b053 <_Z16equalsIgnoreCaseSsSs+0x3d>
  40b04c:	b8 00 00 00 00       	mov    $0x0,%eax
  40b051:	eb 7f                	jmp    40b0d2 <_Z16equalsIgnoreCaseSsSs+0xbc>
  40b053:	48 8b 45 d8          	mov    -0x28(%rbp),%rax
  40b057:	48 89 c7             	mov    %rax,%rdi
  40b05a:	e8 11 75 ff ff       	callq  402570 <_ZNKSs6lengthEv@plt>
  40b05f:	89 45 ec             	mov    %eax,-0x14(%rbp)
  40b062:	c7 45 e8 00 00 00 00 	movl   $0x0,-0x18(%rbp)
  40b069:	eb 5a                	jmp    40b0c5 <_Z16equalsIgnoreCaseSsSs+0xaf>
  40b06b:	8b 45 e8             	mov    -0x18(%rbp),%eax
  40b06e:	48 63 d0             	movslq %eax,%rdx
  40b071:	48 8b 45 d8          	mov    -0x28(%rbp),%rax
  40b075:	48 89 d6             	mov    %rdx,%rsi
  40b078:	48 89 c7             	mov    %rax,%rdi
  40b07b:	e8 d0 75 ff ff       	callq  402650 <_ZNSsixEm@plt>
  40b080:	0f b6 00             	movzbl (%rax),%eax
  40b083:	0f be c0             	movsbl %al,%eax
  40b086:	89 c7                	mov    %eax,%edi
  40b088:	e8 73 76 ff ff       	callq  402700 <tolower@plt>
  40b08d:	89 c3                	mov    %eax,%ebx
  40b08f:	8b 45 e8             	mov    -0x18(%rbp),%eax
  40b092:	48 63 d0             	movslq %eax,%rdx
  40b095:	48 8b 45 d0          	mov    -0x30(%rbp),%rax
  40b099:	48 89 d6             	mov    %rdx,%rsi
  40b09c:	48 89 c7             	mov    %rax,%rdi
  40b09f:	e8 ac 75 ff ff       	callq  402650 <_ZNSsixEm@plt>
  40b0a4:	0f b6 00             	movzbl (%rax),%eax
  40b0a7:	0f be c0             	movsbl %al,%eax
  40b0aa:	89 c7                	mov    %eax,%edi
  40b0ac:	e8 4f 76 ff ff       	callq  402700 <tolower@plt>
  40b0b1:	39 c3                	cmp    %eax,%ebx
  40b0b3:	0f 95 c0             	setne  %al
  40b0b6:	84 c0                	test   %al,%al
  40b0b8:	74 07                	je     40b0c1 <_Z16equalsIgnoreCaseSsSs+0xab>
  40b0ba:	b8 00 00 00 00       	mov    $0x0,%eax
  40b0bf:	eb 11                	jmp    40b0d2 <_Z16equalsIgnoreCaseSsSs+0xbc>
  40b0c1:	83 45 e8 01          	addl   $0x1,-0x18(%rbp)
  40b0c5:	8b 45 e8             	mov    -0x18(%rbp),%eax
  40b0c8:	3b 45 ec             	cmp    -0x14(%rbp),%eax
  40b0cb:	7c 9e                	jl     40b06b <_Z16equalsIgnoreCaseSsSs+0x55>
  40b0cd:	b8 01 00 00 00       	mov    $0x1,%eax
  40b0d2:	48 83 c4 28          	add    $0x28,%rsp
  40b0d6:	5b                   	pop    %rbx
  40b0d7:	5d                   	pop    %rbp
  40b0d8:	c3                   	retq   

000000000040b0d9 <_Z10startsWithSsSs>:
  40b0d9:	55                   	push   %rbp
  40b0da:	48 89 e5             	mov    %rsp,%rbp
  40b0dd:	53                   	push   %rbx
  40b0de:	48 83 ec 28          	sub    $0x28,%rsp
  40b0e2:	48 89 7d d8          	mov    %rdi,-0x28(%rbp)
  40b0e6:	48 89 75 d0          	mov    %rsi,-0x30(%rbp)
  40b0ea:	48 8b 45 d8          	mov    -0x28(%rbp),%rax
  40b0ee:	48 89 c7             	mov    %rax,%rdi
  40b0f1:	e8 7a 74 ff ff       	callq  402570 <_ZNKSs6lengthEv@plt>
  40b0f6:	48 89 c3             	mov    %rax,%rbx
  40b0f9:	48 8b 45 d0          	mov    -0x30(%rbp),%rax
  40b0fd:	48 89 c7             	mov    %rax,%rdi
  40b100:	e8 6b 74 ff ff       	callq  402570 <_ZNKSs6lengthEv@plt>
  40b105:	48 39 c3             	cmp    %rax,%rbx
  40b108:	0f 92 c0             	setb   %al
  40b10b:	84 c0                	test   %al,%al
  40b10d:	74 07                	je     40b116 <_Z10startsWithSsSs+0x3d>
  40b10f:	b8 00 00 00 00       	mov    $0x0,%eax
  40b114:	eb 69                	jmp    40b17f <_Z10startsWithSsSs+0xa6>
  40b116:	48 8b 45 d0          	mov    -0x30(%rbp),%rax
  40b11a:	48 89 c7             	mov    %rax,%rdi
  40b11d:	e8 4e 74 ff ff       	callq  402570 <_ZNKSs6lengthEv@plt>
  40b122:	89 45 ec             	mov    %eax,-0x14(%rbp)
  40b125:	c7 45 e8 00 00 00 00 	movl   $0x0,-0x18(%rbp)
  40b12c:	eb 44                	jmp    40b172 <_Z10startsWithSsSs+0x99>
  40b12e:	8b 45 e8             	mov    -0x18(%rbp),%eax
  40b131:	48 63 d0             	movslq %eax,%rdx
  40b134:	48 8b 45 d8          	mov    -0x28(%rbp),%rax
  40b138:	48 89 d6             	mov    %rdx,%rsi
  40b13b:	48 89 c7             	mov    %rax,%rdi
  40b13e:	e8 0d 75 ff ff       	callq  402650 <_ZNSsixEm@plt>
  40b143:	0f b6 18             	movzbl (%rax),%ebx
  40b146:	8b 45 e8             	mov    -0x18(%rbp),%eax
  40b149:	48 63 d0             	movslq %eax,%rdx
  40b14c:	48 8b 45 d0          	mov    -0x30(%rbp),%rax
  40b150:	48 89 d6             	mov    %rdx,%rsi
  40b153:	48 89 c7             	mov    %rax,%rdi
  40b156:	e8 f5 74 ff ff       	callq  402650 <_ZNSsixEm@plt>
  40b15b:	0f b6 00             	movzbl (%rax),%eax
  40b15e:	38 c3                	cmp    %al,%bl
  40b160:	0f 95 c0             	setne  %al
  40b163:	84 c0                	test   %al,%al
  40b165:	74 07                	je     40b16e <_Z10startsWithSsSs+0x95>
  40b167:	b8 00 00 00 00       	mov    $0x0,%eax
  40b16c:	eb 11                	jmp    40b17f <_Z10startsWithSsSs+0xa6>
  40b16e:	83 45 e8 01          	addl   $0x1,-0x18(%rbp)
  40b172:	8b 45 e8             	mov    -0x18(%rbp),%eax
  40b175:	3b 45 ec             	cmp    -0x14(%rbp),%eax
  40b178:	7c b4                	jl     40b12e <_Z10startsWithSsSs+0x55>
  40b17a:	b8 01 00 00 00       	mov    $0x1,%eax
  40b17f:	48 83 c4 28          	add    $0x28,%rsp
  40b183:	5b                   	pop    %rbx
  40b184:	5d                   	pop    %rbp
  40b185:	c3                   	retq   

000000000040b186 <_Z10startsWithSsc>:
  40b186:	55                   	push   %rbp
  40b187:	48 89 e5             	mov    %rsp,%rbp
  40b18a:	48 83 ec 10          	sub    $0x10,%rsp
  40b18e:	48 89 7d f8          	mov    %rdi,-0x8(%rbp)
  40b192:	89 f0                	mov    %esi,%eax
  40b194:	88 45 f4             	mov    %al,-0xc(%rbp)
  40b197:	48 8b 45 f8          	mov    -0x8(%rbp),%rax
  40b19b:	48 89 c7             	mov    %rax,%rdi
  40b19e:	e8 cd 73 ff ff       	callq  402570 <_ZNKSs6lengthEv@plt>
  40b1a3:	48 85 c0             	test   %rax,%rax
  40b1a6:	74 20                	je     40b1c8 <_Z10startsWithSsc+0x42>
  40b1a8:	48 8b 45 f8          	mov    -0x8(%rbp),%rax
  40b1ac:	be 00 00 00 00       	mov    $0x0,%esi
  40b1b1:	48 89 c7             	mov    %rax,%rdi
  40b1b4:	e8 97 74 ff ff       	callq  402650 <_ZNSsixEm@plt>
  40b1b9:	0f b6 00             	movzbl (%rax),%eax
  40b1bc:	3a 45 f4             	cmp    -0xc(%rbp),%al
  40b1bf:	75 07                	jne    40b1c8 <_Z10startsWithSsc+0x42>
  40b1c1:	b8 01 00 00 00       	mov    $0x1,%eax
  40b1c6:	eb 05                	jmp    40b1cd <_Z10startsWithSsc+0x47>
  40b1c8:	b8 00 00 00 00       	mov    $0x0,%eax
  40b1cd:	c9                   	leaveq 
  40b1ce:	c3                   	retq   

000000000040b1cf <_Z8endsWithSsSs>:
  40b1cf:	55                   	push   %rbp
  40b1d0:	48 89 e5             	mov    %rsp,%rbp
  40b1d3:	53                   	push   %rbx
  40b1d4:	48 83 ec 28          	sub    $0x28,%rsp
  40b1d8:	48 89 7d d8          	mov    %rdi,-0x28(%rbp)
  40b1dc:	48 89 75 d0          	mov    %rsi,-0x30(%rbp)
  40b1e0:	48 8b 45 d0          	mov    -0x30(%rbp),%rax
  40b1e4:	48 89 c7             	mov    %rax,%rdi
  40b1e7:	e8 84 73 ff ff       	callq  402570 <_ZNKSs6lengthEv@plt>
  40b1ec:	89 45 e8             	mov    %eax,-0x18(%rbp)
  40b1ef:	48 8b 45 d8          	mov    -0x28(%rbp),%rax
  40b1f3:	48 89 c7             	mov    %rax,%rdi
  40b1f6:	e8 75 73 ff ff       	callq  402570 <_ZNKSs6lengthEv@plt>
  40b1fb:	89 c2                	mov    %eax,%edx
  40b1fd:	8b 45 e8             	mov    -0x18(%rbp),%eax
  40b200:	29 c2                	sub    %eax,%edx
  40b202:	89 d0                	mov    %edx,%eax
  40b204:	89 45 ec             	mov    %eax,-0x14(%rbp)
  40b207:	83 7d ec 00          	cmpl   $0x0,-0x14(%rbp)
  40b20b:	79 07                	jns    40b214 <_Z8endsWithSsSs+0x45>
  40b20d:	b8 00 00 00 00       	mov    $0x0,%eax
  40b212:	eb 5f                	jmp    40b273 <_Z8endsWithSsSs+0xa4>
  40b214:	c7 45 e4 00 00 00 00 	movl   $0x0,-0x1c(%rbp)
  40b21b:	eb 49                	jmp    40b266 <_Z8endsWithSsSs+0x97>
  40b21d:	8b 45 e4             	mov    -0x1c(%rbp),%eax
  40b220:	8b 55 ec             	mov    -0x14(%rbp),%edx
  40b223:	01 d0                	add    %edx,%eax
  40b225:	48 63 d0             	movslq %eax,%rdx
  40b228:	48 8b 45 d8          	mov    -0x28(%rbp),%rax
  40b22c:	48 89 d6             	mov    %rdx,%rsi
  40b22f:	48 89 c7             	mov    %rax,%rdi
  40b232:	e8 19 74 ff ff       	callq  402650 <_ZNSsixEm@plt>
  40b237:	0f b6 18             	movzbl (%rax),%ebx
  40b23a:	8b 45 e4             	mov    -0x1c(%rbp),%eax
  40b23d:	48 63 d0             	movslq %eax,%rdx
  40b240:	48 8b 45 d0          	mov    -0x30(%rbp),%rax
  40b244:	48 89 d6             	mov    %rdx,%rsi
  40b247:	48 89 c7             	mov    %rax,%rdi
  40b24a:	e8 01 74 ff ff       	callq  402650 <_ZNSsixEm@plt>
  40b24f:	0f b6 00             	movzbl (%rax),%eax
  40b252:	38 c3                	cmp    %al,%bl
  40b254:	0f 95 c0             	setne  %al
  40b257:	84 c0                	test   %al,%al
  40b259:	74 07                	je     40b262 <_Z8endsWithSsSs+0x93>
  40b25b:	b8 00 00 00 00       	mov    $0x0,%eax
  40b260:	eb 11                	jmp    40b273 <_Z8endsWithSsSs+0xa4>
  40b262:	83 45 e4 01          	addl   $0x1,-0x1c(%rbp)
  40b266:	8b 45 e4             	mov    -0x1c(%rbp),%eax
  40b269:	3b 45 e8             	cmp    -0x18(%rbp),%eax
  40b26c:	7c af                	jl     40b21d <_Z8endsWithSsSs+0x4e>
  40b26e:	b8 01 00 00 00       	mov    $0x1,%eax
  40b273:	48 83 c4 28          	add    $0x28,%rsp
  40b277:	5b                   	pop    %rbx
  40b278:	5d                   	pop    %rbp
  40b279:	c3                   	retq   

000000000040b27a <_Z8endsWithSsc>:
  40b27a:	55                   	push   %rbp
  40b27b:	48 89 e5             	mov    %rsp,%rbp
  40b27e:	48 83 ec 10          	sub    $0x10,%rsp
  40b282:	48 89 7d f8          	mov    %rdi,-0x8(%rbp)
  40b286:	89 f0                	mov    %esi,%eax
  40b288:	88 45 f4             	mov    %al,-0xc(%rbp)
  40b28b:	48 8b 45 f8          	mov    -0x8(%rbp),%rax
  40b28f:	48 89 c7             	mov    %rax,%rdi
  40b292:	e8 d9 72 ff ff       	callq  402570 <_ZNKSs6lengthEv@plt>
  40b297:	48 85 c0             	test   %rax,%rax
  40b29a:	74 2e                	je     40b2ca <_Z8endsWithSsc+0x50>
  40b29c:	48 8b 45 f8          	mov    -0x8(%rbp),%rax
  40b2a0:	48 89 c7             	mov    %rax,%rdi
  40b2a3:	e8 c8 72 ff ff       	callq  402570 <_ZNKSs6lengthEv@plt>
  40b2a8:	48 8d 50 ff          	lea    -0x1(%rax),%rdx
  40b2ac:	48 8b 45 f8          	mov    -0x8(%rbp),%rax
  40b2b0:	48 89 d6             	mov    %rdx,%rsi
  40b2b3:	48 89 c7             	mov    %rax,%rdi
  40b2b6:	e8 95 73 ff ff       	callq  402650 <_ZNSsixEm@plt>
  40b2bb:	0f b6 00             	movzbl (%rax),%eax
  40b2be:	3a 45 f4             	cmp    -0xc(%rbp),%al
  40b2c1:	75 07                	jne    40b2ca <_Z8endsWithSsc+0x50>
  40b2c3:	b8 01 00 00 00       	mov    $0x1,%eax
  40b2c8:	eb 05                	jmp    40b2cf <_Z8endsWithSsc+0x55>
  40b2ca:	b8 00 00 00 00       	mov    $0x0,%eax
  40b2cf:	c9                   	leaveq 
  40b2d0:	c3                   	retq   

000000000040b2d1 <_Z4trimSs>:
  40b2d1:	55                   	push   %rbp
  40b2d2:	48 89 e5             	mov    %rsp,%rbp
  40b2d5:	48 83 ec 20          	sub    $0x20,%rsp
  40b2d9:	48 89 7d e8          	mov    %rdi,-0x18(%rbp)
  40b2dd:	48 89 75 e0          	mov    %rsi,-0x20(%rbp)
  40b2e1:	48 8b 45 e0          	mov    -0x20(%rbp),%rax
  40b2e5:	48 89 c7             	mov    %rax,%rdi
  40b2e8:	e8 83 72 ff ff       	callq  402570 <_ZNKSs6lengthEv@plt>
  40b2ed:	83 e8 01             	sub    $0x1,%eax
  40b2f0:	89 45 f8             	mov    %eax,-0x8(%rbp)
  40b2f3:	eb 04                	jmp    40b2f9 <_Z4trimSs+0x28>
  40b2f5:	83 6d f8 01          	subl   $0x1,-0x8(%rbp)
  40b2f9:	83 7d f8 00          	cmpl   $0x0,-0x8(%rbp)
  40b2fd:	78 2d                	js     40b32c <_Z4trimSs+0x5b>
  40b2ff:	8b 45 f8             	mov    -0x8(%rbp),%eax
  40b302:	48 63 d0             	movslq %eax,%rdx
  40b305:	48 8b 45 e0          	mov    -0x20(%rbp),%rax
  40b309:	48 89 d6             	mov    %rdx,%rsi
  40b30c:	48 89 c7             	mov    %rax,%rdi
  40b30f:	e8 3c 73 ff ff       	callq  402650 <_ZNSsixEm@plt>
  40b314:	0f b6 00             	movzbl (%rax),%eax
  40b317:	0f be c0             	movsbl %al,%eax
  40b31a:	89 c7                	mov    %eax,%edi
  40b31c:	e8 cf 74 ff ff       	callq  4027f0 <isspace@plt>
  40b321:	85 c0                	test   %eax,%eax
  40b323:	74 07                	je     40b32c <_Z4trimSs+0x5b>
  40b325:	b8 01 00 00 00       	mov    $0x1,%eax
  40b32a:	eb 05                	jmp    40b331 <_Z4trimSs+0x60>
  40b32c:	b8 00 00 00 00       	mov    $0x0,%eax
  40b331:	84 c0                	test   %al,%al
  40b333:	75 c0                	jne    40b2f5 <_Z4trimSs+0x24>
  40b335:	c7 45 fc 00 00 00 00 	movl   $0x0,-0x4(%rbp)
  40b33c:	eb 04                	jmp    40b342 <_Z4trimSs+0x71>
  40b33e:	83 45 fc 01          	addl   $0x1,-0x4(%rbp)
  40b342:	8b 45 fc             	mov    -0x4(%rbp),%eax
  40b345:	3b 45 f8             	cmp    -0x8(%rbp),%eax
  40b348:	7f 2d                	jg     40b377 <_Z4trimSs+0xa6>
  40b34a:	8b 45 fc             	mov    -0x4(%rbp),%eax
  40b34d:	48 63 d0             	movslq %eax,%rdx
  40b350:	48 8b 45 e0          	mov    -0x20(%rbp),%rax
  40b354:	48 89 d6             	mov    %rdx,%rsi
  40b357:	48 89 c7             	mov    %rax,%rdi
  40b35a:	e8 f1 72 ff ff       	callq  402650 <_ZNSsixEm@plt>
  40b35f:	0f b6 00             	movzbl (%rax),%eax
  40b362:	0f be c0             	movsbl %al,%eax
  40b365:	89 c7                	mov    %eax,%edi
  40b367:	e8 84 74 ff ff       	callq  4027f0 <isspace@plt>
  40b36c:	85 c0                	test   %eax,%eax
  40b36e:	74 07                	je     40b377 <_Z4trimSs+0xa6>
  40b370:	b8 01 00 00 00       	mov    $0x1,%eax
  40b375:	eb 05                	jmp    40b37c <_Z4trimSs+0xab>
  40b377:	b8 00 00 00 00       	mov    $0x0,%eax
  40b37c:	84 c0                	test   %al,%al
  40b37e:	75 be                	jne    40b33e <_Z4trimSs+0x6d>
  40b380:	8b 45 fc             	mov    -0x4(%rbp),%eax
  40b383:	8b 55 f8             	mov    -0x8(%rbp),%edx
  40b386:	29 c2                	sub    %eax,%edx
  40b388:	89 d0                	mov    %edx,%eax
  40b38a:	83 c0 01             	add    $0x1,%eax
  40b38d:	48 63 c8             	movslq %eax,%rcx
  40b390:	8b 45 fc             	mov    -0x4(%rbp),%eax
  40b393:	48 63 d0             	movslq %eax,%rdx
  40b396:	48 8b 45 e8          	mov    -0x18(%rbp),%rax
  40b39a:	48 8b 75 e0          	mov    -0x20(%rbp),%rsi
  40b39e:	48 89 c7             	mov    %rax,%rdi
  40b3a1:	e8 4a 70 ff ff       	callq  4023f0 <_ZNKSs6substrEmm@plt>
  40b3a6:	48 8b 45 e8          	mov    -0x18(%rbp),%rax
  40b3aa:	c9                   	leaveq 
  40b3ab:	c3                   	retq   

000000000040b3ac <_Z18stringNeedsQuotingRKSs>:
  40b3ac:	55                   	push   %rbp
  40b3ad:	48 89 e5             	mov    %rsp,%rbp
  40b3b0:	48 83 ec 20          	sub    $0x20,%rsp
  40b3b4:	48 89 7d e8          	mov    %rdi,-0x18(%rbp)
  40b3b8:	48 8b 45 e8          	mov    -0x18(%rbp),%rax
  40b3bc:	48 89 c7             	mov    %rax,%rdi
  40b3bf:	e8 ac 71 ff ff       	callq  402570 <_ZNKSs6lengthEv@plt>
  40b3c4:	89 45 fc             	mov    %eax,-0x4(%rbp)
  40b3c7:	c7 45 f8 00 00 00 00 	movl   $0x0,-0x8(%rbp)
  40b3ce:	eb 5c                	jmp    40b42c <_Z18stringNeedsQuotingRKSs+0x80>
  40b3d0:	8b 45 f8             	mov    -0x8(%rbp),%eax
  40b3d3:	48 63 d0             	movslq %eax,%rdx
  40b3d6:	48 8b 45 e8          	mov    -0x18(%rbp),%rax
  40b3da:	48 89 d6             	mov    %rdx,%rsi
  40b3dd:	48 89 c7             	mov    %rax,%rdi
  40b3e0:	e8 8b 73 ff ff       	callq  402770 <_ZNKSsixEm@plt>
  40b3e5:	0f b6 00             	movzbl (%rax),%eax
  40b3e8:	88 45 f7             	mov    %al,-0x9(%rbp)
  40b3eb:	0f be 45 f7          	movsbl -0x9(%rbp),%eax
  40b3ef:	89 c7                	mov    %eax,%edi
  40b3f1:	e8 fa 73 ff ff       	callq  4027f0 <isspace@plt>
  40b3f6:	85 c0                	test   %eax,%eax
  40b3f8:	74 07                	je     40b401 <_Z18stringNeedsQuotingRKSs+0x55>
  40b3fa:	b8 00 00 00 00       	mov    $0x0,%eax
  40b3ff:	eb 38                	jmp    40b439 <_Z18stringNeedsQuotingRKSs+0x8d>
  40b401:	0f be 45 f7          	movsbl -0x9(%rbp),%eax
  40b405:	ba 00 00 00 00       	mov    $0x0,%edx
  40b40a:	89 c6                	mov    %eax,%esi
  40b40c:	bf f0 26 61 00       	mov    $0x6126f0,%edi
  40b411:	e8 ea 71 ff ff       	callq  402600 <_ZNKSs4findEcm@plt>
  40b416:	48 83 f8 ff          	cmp    $0xffffffffffffffff,%rax
  40b41a:	0f 95 c0             	setne  %al
  40b41d:	84 c0                	test   %al,%al
  40b41f:	74 07                	je     40b428 <_Z18stringNeedsQuotingRKSs+0x7c>
  40b421:	b8 01 00 00 00       	mov    $0x1,%eax
  40b426:	eb 11                	jmp    40b439 <_Z18stringNeedsQuotingRKSs+0x8d>
  40b428:	83 45 f8 01          	addl   $0x1,-0x8(%rbp)
  40b42c:	8b 45 f8             	mov    -0x8(%rbp),%eax
  40b42f:	3b 45 fc             	cmp    -0x4(%rbp),%eax
  40b432:	7c 9c                	jl     40b3d0 <_Z18stringNeedsQuotingRKSs+0x24>
  40b434:	b8 00 00 00 00       	mov    $0x0,%eax
  40b439:	c9                   	leaveq 
  40b43a:	c3                   	retq   

000000000040b43b <_Z16readQuotedStringRSiRSs>:
  40b43b:	55                   	push   %rbp
  40b43c:	48 89 e5             	mov    %rsp,%rbp
  40b43f:	53                   	push   %rbx
  40b440:	48 83 ec 48          	sub    $0x48,%rsp
  40b444:	48 89 7d b8          	mov    %rdi,-0x48(%rbp)
  40b448:	48 89 75 b0          	mov    %rsi,-0x50(%rbp)
  40b44c:	48 8b 45 b0          	mov    -0x50(%rbp),%rax
  40b450:	be 9e c9 40 00       	mov    $0x40c99e,%esi
  40b455:	48 89 c7             	mov    %rax,%rdi
  40b458:	e8 33 6f ff ff       	callq  402390 <_ZNSsaSEPKc@plt>
  40b45d:	90                   	nop
  40b45e:	48 8d 55 c5          	lea    -0x3b(%rbp),%rdx
  40b462:	48 8b 45 b8          	mov    -0x48(%rbp),%rax
  40b466:	48 89 d6             	mov    %rdx,%rsi
  40b469:	48 89 c7             	mov    %rax,%rdi
  40b46c:	e8 6f 71 ff ff       	callq  4025e0 <_ZNSi3getERc@plt>
  40b471:	48 8b 10             	mov    (%rax),%rdx
  40b474:	48 83 ea 18          	sub    $0x18,%rdx
  40b478:	48 8b 12             	mov    (%rdx),%rdx
  40b47b:	48 01 d0             	add    %rdx,%rax
  40b47e:	48 89 c7             	mov    %rax,%rdi
  40b481:	e8 7a 6f ff ff       	callq  402400 <_ZNKSt9basic_iosIcSt11char_traitsIcEEcvPvEv@plt>
  40b486:	48 85 c0             	test   %rax,%rax
  40b489:	74 19                	je     40b4a4 <_Z16readQuotedStringRSiRSs+0x69>
  40b48b:	0f b6 45 c5          	movzbl -0x3b(%rbp),%eax
  40b48f:	0f be c0             	movsbl %al,%eax
  40b492:	89 c7                	mov    %eax,%edi
  40b494:	e8 57 73 ff ff       	callq  4027f0 <isspace@plt>
  40b499:	85 c0                	test   %eax,%eax
  40b49b:	74 07                	je     40b4a4 <_Z16readQuotedStringRSiRSs+0x69>
  40b49d:	b8 01 00 00 00       	mov    $0x1,%eax
  40b4a2:	eb 05                	jmp    40b4a9 <_Z16readQuotedStringRSiRSs+0x6e>
  40b4a4:	b8 00 00 00 00       	mov    $0x0,%eax
  40b4a9:	84 c0                	test   %al,%al
  40b4ab:	75 b1                	jne    40b45e <_Z16readQuotedStringRSiRSs+0x23>
  40b4ad:	48 8b 45 b8          	mov    -0x48(%rbp),%rax
  40b4b1:	48 8b 00             	mov    (%rax),%rax
  40b4b4:	48 83 e8 18          	sub    $0x18,%rax
  40b4b8:	48 8b 00             	mov    (%rax),%rax
  40b4bb:	48 89 c2             	mov    %rax,%rdx
  40b4be:	48 8b 45 b8          	mov    -0x48(%rbp),%rax
  40b4c2:	48 01 d0             	add    %rdx,%rax
  40b4c5:	48 89 c7             	mov    %rax,%rdi
  40b4c8:	e8 e3 71 ff ff       	callq  4026b0 <_ZNKSt9basic_iosIcSt11char_traitsIcEE4failEv@plt>
  40b4cd:	84 c0                	test   %al,%al
  40b4cf:	74 05                	je     40b4d6 <_Z16readQuotedStringRSiRSs+0x9b>
  40b4d1:	e9 e1 04 00 00       	jmpq   40b9b7 <_Z16readQuotedStringRSiRSs+0x57c>
  40b4d6:	0f b6 45 c5          	movzbl -0x3b(%rbp),%eax
  40b4da:	3c 27                	cmp    $0x27,%al
  40b4dc:	74 0c                	je     40b4ea <_Z16readQuotedStringRSiRSs+0xaf>
  40b4de:	0f b6 45 c5          	movzbl -0x3b(%rbp),%eax
  40b4e2:	3c 22                	cmp    $0x22,%al
  40b4e4:	0f 85 07 03 00 00    	jne    40b7f1 <_Z16readQuotedStringRSiRSs+0x3b6>
  40b4ea:	0f b6 45 c5          	movzbl -0x3b(%rbp),%eax
  40b4ee:	88 45 c7             	mov    %al,-0x39(%rbp)
  40b4f1:	e9 ab 02 00 00       	jmpq   40b7a1 <_Z16readQuotedStringRSiRSs+0x366>
  40b4f6:	48 8b 45 b8          	mov    -0x48(%rbp),%rax
  40b4fa:	48 8b 00             	mov    (%rax),%rax
  40b4fd:	48 83 e8 18          	sub    $0x18,%rax
  40b501:	48 8b 00             	mov    (%rax),%rax
  40b504:	48 89 c2             	mov    %rax,%rdx
  40b507:	48 8b 45 b8          	mov    -0x48(%rbp),%rax
  40b50b:	48 01 d0             	add    %rdx,%rax
  40b50e:	48 89 c7             	mov    %rax,%rdi
  40b511:	e8 9a 71 ff ff       	callq  4026b0 <_ZNKSt9basic_iosIcSt11char_traitsIcEE4failEv@plt>
  40b516:	84 c0                	test   %al,%al
  40b518:	74 45                	je     40b55f <_Z16readQuotedStringRSiRSs+0x124>
  40b51a:	48 8d 45 c6          	lea    -0x3a(%rbp),%rax
  40b51e:	48 89 c7             	mov    %rax,%rdi
  40b521:	e8 4a 73 ff ff       	callq  402870 <_ZNSaIcEC1Ev@plt>
  40b526:	48 8d 55 c6          	lea    -0x3a(%rbp),%rdx
  40b52a:	48 8d 45 e0          	lea    -0x20(%rbp),%rax
  40b52e:	be 9f c9 40 00       	mov    $0x40c99f,%esi
  40b533:	48 89 c7             	mov    %rax,%rdi
  40b536:	e8 e5 70 ff ff       	callq  402620 <_ZNSsC1EPKcRKSaIcE@plt>
  40b53b:	48 8d 45 e0          	lea    -0x20(%rbp),%rax
  40b53f:	48 89 c7             	mov    %rax,%rdi
  40b542:	e8 4e 0c 00 00       	callq  40c195 <_Z5errorSs>
  40b547:	48 8d 45 e0          	lea    -0x20(%rbp),%rax
  40b54b:	48 89 c7             	mov    %rax,%rdi
  40b54e:	e8 4d 70 ff ff       	callq  4025a0 <_ZNSsD1Ev@plt>
  40b553:	48 8d 45 c6          	lea    -0x3a(%rbp),%rax
  40b557:	48 89 c7             	mov    %rax,%rdi
  40b55a:	e8 d1 71 ff ff       	callq  402730 <_ZNSaIcED1Ev@plt>
  40b55f:	0f b6 45 c5          	movzbl -0x3b(%rbp),%eax
  40b563:	3c 5c                	cmp    $0x5c,%al
  40b565:	0f 85 21 02 00 00    	jne    40b78c <_Z16readQuotedStringRSiRSs+0x351>
  40b56b:	48 8d 55 c5          	lea    -0x3b(%rbp),%rdx
  40b56f:	48 8b 45 b8          	mov    -0x48(%rbp),%rax
  40b573:	48 89 d6             	mov    %rdx,%rsi
  40b576:	48 89 c7             	mov    %rax,%rdi
  40b579:	e8 62 70 ff ff       	callq  4025e0 <_ZNSi3getERc@plt>
  40b57e:	48 8b 10             	mov    (%rax),%rdx
  40b581:	48 83 ea 18          	sub    $0x18,%rdx
  40b585:	48 8b 12             	mov    (%rdx),%rdx
  40b588:	48 01 d0             	add    %rdx,%rax
  40b58b:	48 89 c7             	mov    %rax,%rdi
  40b58e:	e8 3d 70 ff ff       	callq  4025d0 <_ZNKSt9basic_iosIcSt11char_traitsIcEEntEv@plt>
  40b593:	84 c0                	test   %al,%al
  40b595:	74 45                	je     40b5dc <_Z16readQuotedStringRSiRSs+0x1a1>
  40b597:	48 8d 45 c6          	lea    -0x3a(%rbp),%rax
  40b59b:	48 89 c7             	mov    %rax,%rdi
  40b59e:	e8 cd 72 ff ff       	callq  402870 <_ZNSaIcEC1Ev@plt>
  40b5a3:	48 8d 55 c6          	lea    -0x3a(%rbp),%rdx
  40b5a7:	48 8d 45 e0          	lea    -0x20(%rbp),%rax
  40b5ab:	be 9f c9 40 00       	mov    $0x40c99f,%esi
  40b5b0:	48 89 c7             	mov    %rax,%rdi
  40b5b3:	e8 68 70 ff ff       	callq  402620 <_ZNSsC1EPKcRKSaIcE@plt>
  40b5b8:	48 8d 45 e0          	lea    -0x20(%rbp),%rax
  40b5bc:	48 89 c7             	mov    %rax,%rdi
  40b5bf:	e8 d1 0b 00 00       	callq  40c195 <_Z5errorSs>
  40b5c4:	48 8d 45 e0          	lea    -0x20(%rbp),%rax
  40b5c8:	48 89 c7             	mov    %rax,%rdi
  40b5cb:	e8 d0 6f ff ff       	callq  4025a0 <_ZNSsD1Ev@plt>
  40b5d0:	48 8d 45 c6          	lea    -0x3a(%rbp),%rax
  40b5d4:	48 89 c7             	mov    %rax,%rdi
  40b5d7:	e8 54 71 ff ff       	callq  402730 <_ZNSaIcED1Ev@plt>
  40b5dc:	0f b6 45 c5          	movzbl -0x3b(%rbp),%eax
  40b5e0:	0f be c0             	movsbl %al,%eax
  40b5e3:	83 e8 30             	sub    $0x30,%eax
  40b5e6:	83 f8 09             	cmp    $0x9,%eax
  40b5e9:	76 0c                	jbe    40b5f7 <_Z16readQuotedStringRSiRSs+0x1bc>
  40b5eb:	0f b6 45 c5          	movzbl -0x3b(%rbp),%eax
  40b5ef:	3c 78                	cmp    $0x78,%al
  40b5f1:	0f 85 3f 01 00 00    	jne    40b736 <_Z16readQuotedStringRSiRSs+0x2fb>
  40b5f7:	c7 45 c8 03 00 00 00 	movl   $0x3,-0x38(%rbp)
  40b5fe:	c7 45 cc 08 00 00 00 	movl   $0x8,-0x34(%rbp)
  40b605:	0f b6 45 c5          	movzbl -0x3b(%rbp),%eax
  40b609:	3c 78                	cmp    $0x78,%al
  40b60b:	75 0e                	jne    40b61b <_Z16readQuotedStringRSiRSs+0x1e0>
  40b60d:	c7 45 cc 10 00 00 00 	movl   $0x10,-0x34(%rbp)
  40b614:	c7 45 c8 02 00 00 00 	movl   $0x2,-0x38(%rbp)
  40b61b:	c7 45 d0 00 00 00 00 	movl   $0x0,-0x30(%rbp)
  40b622:	c7 45 d4 00 00 00 00 	movl   $0x0,-0x2c(%rbp)
  40b629:	c7 45 d8 00 00 00 00 	movl   $0x0,-0x28(%rbp)
  40b630:	e9 d8 00 00 00       	jmpq   40b70d <_Z16readQuotedStringRSiRSs+0x2d2>
  40b635:	0f b6 45 c5          	movzbl -0x3b(%rbp),%eax
  40b639:	0f be c0             	movsbl %al,%eax
  40b63c:	83 e8 30             	sub    $0x30,%eax
  40b63f:	83 f8 09             	cmp    $0x9,%eax
  40b642:	77 0f                	ja     40b653 <_Z16readQuotedStringRSiRSs+0x218>
  40b644:	0f b6 45 c5          	movzbl -0x3b(%rbp),%eax
  40b648:	0f be c0             	movsbl %al,%eax
  40b64b:	83 e8 30             	sub    $0x30,%eax
  40b64e:	89 45 d4             	mov    %eax,-0x2c(%rbp)
  40b651:	eb 34                	jmp    40b687 <_Z16readQuotedStringRSiRSs+0x24c>
  40b653:	83 7d cc 10          	cmpl   $0x10,-0x34(%rbp)
  40b657:	0f 85 c5 00 00 00    	jne    40b722 <_Z16readQuotedStringRSiRSs+0x2e7>
  40b65d:	0f b6 45 c5          	movzbl -0x3b(%rbp),%eax
  40b661:	0f be c0             	movsbl %al,%eax
  40b664:	89 c7                	mov    %eax,%edi
  40b666:	e8 c5 71 ff ff       	callq  402830 <isxdigit@plt>
  40b66b:	85 c0                	test   %eax,%eax
  40b66d:	0f 84 af 00 00 00    	je     40b722 <_Z16readQuotedStringRSiRSs+0x2e7>
  40b673:	0f b6 45 c5          	movzbl -0x3b(%rbp),%eax
  40b677:	0f be c0             	movsbl %al,%eax
  40b67a:	89 c7                	mov    %eax,%edi
  40b67c:	e8 ff 6d ff ff       	callq  402480 <toupper@plt>
  40b681:	83 e8 37             	sub    $0x37,%eax
  40b684:	89 45 d4             	mov    %eax,-0x2c(%rbp)
  40b687:	8b 45 cc             	mov    -0x34(%rbp),%eax
  40b68a:	0f af 45 d0          	imul   -0x30(%rbp),%eax
  40b68e:	89 c2                	mov    %eax,%edx
  40b690:	8b 45 d4             	mov    -0x2c(%rbp),%eax
  40b693:	01 d0                	add    %edx,%eax
  40b695:	89 45 d0             	mov    %eax,-0x30(%rbp)
  40b698:	48 8d 55 c5          	lea    -0x3b(%rbp),%rdx
  40b69c:	48 8b 45 b8          	mov    -0x48(%rbp),%rax
  40b6a0:	48 89 d6             	mov    %rdx,%rsi
  40b6a3:	48 89 c7             	mov    %rax,%rdi
  40b6a6:	e8 35 6f ff ff       	callq  4025e0 <_ZNSi3getERc@plt>
  40b6ab:	48 8b 10             	mov    (%rax),%rdx
  40b6ae:	48 83 ea 18          	sub    $0x18,%rdx
  40b6b2:	48 8b 12             	mov    (%rdx),%rdx
  40b6b5:	48 01 d0             	add    %rdx,%rax
  40b6b8:	48 89 c7             	mov    %rax,%rdi
  40b6bb:	e8 10 6f ff ff       	callq  4025d0 <_ZNKSt9basic_iosIcSt11char_traitsIcEEntEv@plt>
  40b6c0:	84 c0                	test   %al,%al
  40b6c2:	74 45                	je     40b709 <_Z16readQuotedStringRSiRSs+0x2ce>
  40b6c4:	48 8d 45 c6          	lea    -0x3a(%rbp),%rax
  40b6c8:	48 89 c7             	mov    %rax,%rdi
  40b6cb:	e8 a0 71 ff ff       	callq  402870 <_ZNSaIcEC1Ev@plt>
  40b6d0:	48 8d 55 c6          	lea    -0x3a(%rbp),%rdx
  40b6d4:	48 8d 45 e0          	lea    -0x20(%rbp),%rax
  40b6d8:	be 9f c9 40 00       	mov    $0x40c99f,%esi
  40b6dd:	48 89 c7             	mov    %rax,%rdi
  40b6e0:	e8 3b 6f ff ff       	callq  402620 <_ZNSsC1EPKcRKSaIcE@plt>
  40b6e5:	48 8d 45 e0          	lea    -0x20(%rbp),%rax
  40b6e9:	48 89 c7             	mov    %rax,%rdi
  40b6ec:	e8 a4 0a 00 00       	callq  40c195 <_Z5errorSs>
  40b6f1:	48 8d 45 e0          	lea    -0x20(%rbp),%rax
  40b6f5:	48 89 c7             	mov    %rax,%rdi
  40b6f8:	e8 a3 6e ff ff       	callq  4025a0 <_ZNSsD1Ev@plt>
  40b6fd:	48 8d 45 c6          	lea    -0x3a(%rbp),%rax
  40b701:	48 89 c7             	mov    %rax,%rdi
  40b704:	e8 27 70 ff ff       	callq  402730 <_ZNSaIcED1Ev@plt>
  40b709:	83 45 d8 01          	addl   $0x1,-0x28(%rbp)
  40b70d:	8b 45 d8             	mov    -0x28(%rbp),%eax
  40b710:	3b 45 c8             	cmp    -0x38(%rbp),%eax
  40b713:	7d 0d                	jge    40b722 <_Z16readQuotedStringRSiRSs+0x2e7>
  40b715:	0f b6 45 c5          	movzbl -0x3b(%rbp),%eax
  40b719:	3a 45 c7             	cmp    -0x39(%rbp),%al
  40b71c:	0f 85 13 ff ff ff    	jne    40b635 <_Z16readQuotedStringRSiRSs+0x1fa>
  40b722:	8b 45 d0             	mov    -0x30(%rbp),%eax
  40b725:	88 45 c5             	mov    %al,-0x3b(%rbp)
  40b728:	48 8b 45 b8          	mov    -0x48(%rbp),%rax
  40b72c:	48 89 c7             	mov    %rax,%rdi
  40b72f:	e8 ac 6c ff ff       	callq  4023e0 <_ZNSi5ungetEv@plt>
  40b734:	eb 56                	jmp    40b78c <_Z16readQuotedStringRSiRSs+0x351>
  40b736:	0f b6 45 c5          	movzbl -0x3b(%rbp),%eax
  40b73a:	0f be c0             	movsbl %al,%eax
  40b73d:	83 e8 22             	sub    $0x22,%eax
  40b740:	83 f8 54             	cmp    $0x54,%eax
  40b743:	77 47                	ja     40b78c <_Z16readQuotedStringRSiRSs+0x351>
  40b745:	89 c0                	mov    %eax,%eax
  40b747:	48 8b 04 c5 b8 c9 40 	mov    0x40c9b8(,%rax,8),%rax
  40b74e:	00 
  40b74f:	ff e0                	jmpq   *%rax
  40b751:	c6 45 c5 07          	movb   $0x7,-0x3b(%rbp)
  40b755:	eb 35                	jmp    40b78c <_Z16readQuotedStringRSiRSs+0x351>
  40b757:	c6 45 c5 08          	movb   $0x8,-0x3b(%rbp)
  40b75b:	eb 2f                	jmp    40b78c <_Z16readQuotedStringRSiRSs+0x351>
  40b75d:	c6 45 c5 0c          	movb   $0xc,-0x3b(%rbp)
  40b761:	eb 29                	jmp    40b78c <_Z16readQuotedStringRSiRSs+0x351>
  40b763:	c6 45 c5 0a          	movb   $0xa,-0x3b(%rbp)
  40b767:	eb 23                	jmp    40b78c <_Z16readQuotedStringRSiRSs+0x351>
  40b769:	c6 45 c5 0d          	movb   $0xd,-0x3b(%rbp)
  40b76d:	eb 1d                	jmp    40b78c <_Z16readQuotedStringRSiRSs+0x351>
  40b76f:	c6 45 c5 09          	movb   $0x9,-0x3b(%rbp)
  40b773:	eb 17                	jmp    40b78c <_Z16readQuotedStringRSiRSs+0x351>
  40b775:	c6 45 c5 0b          	movb   $0xb,-0x3b(%rbp)
  40b779:	eb 11                	jmp    40b78c <_Z16readQuotedStringRSiRSs+0x351>
  40b77b:	c6 45 c5 22          	movb   $0x22,-0x3b(%rbp)
  40b77f:	eb 0b                	jmp    40b78c <_Z16readQuotedStringRSiRSs+0x351>
  40b781:	c6 45 c5 27          	movb   $0x27,-0x3b(%rbp)
  40b785:	eb 05                	jmp    40b78c <_Z16readQuotedStringRSiRSs+0x351>
  40b787:	c6 45 c5 5c          	movb   $0x5c,-0x3b(%rbp)
  40b78b:	90                   	nop
  40b78c:	0f b6 45 c5          	movzbl -0x3b(%rbp),%eax
  40b790:	0f be d0             	movsbl %al,%edx
  40b793:	48 8b 45 b0          	mov    -0x50(%rbp),%rax
  40b797:	89 d6                	mov    %edx,%esi
  40b799:	48 89 c7             	mov    %rax,%rdi
  40b79c:	e8 6f 6c ff ff       	callq  402410 <_ZNSspLEc@plt>
  40b7a1:	48 8d 55 c5          	lea    -0x3b(%rbp),%rdx
  40b7a5:	48 8b 45 b8          	mov    -0x48(%rbp),%rax
  40b7a9:	48 89 d6             	mov    %rdx,%rsi
  40b7ac:	48 89 c7             	mov    %rax,%rdi
  40b7af:	e8 2c 6e ff ff       	callq  4025e0 <_ZNSi3getERc@plt>
  40b7b4:	48 8b 10             	mov    (%rax),%rdx
  40b7b7:	48 83 ea 18          	sub    $0x18,%rdx
  40b7bb:	48 8b 12             	mov    (%rdx),%rdx
  40b7be:	48 01 d0             	add    %rdx,%rax
  40b7c1:	48 89 c7             	mov    %rax,%rdi
  40b7c4:	e8 37 6c ff ff       	callq  402400 <_ZNKSt9basic_iosIcSt11char_traitsIcEEcvPvEv@plt>
  40b7c9:	48 85 c0             	test   %rax,%rax
  40b7cc:	74 10                	je     40b7de <_Z16readQuotedStringRSiRSs+0x3a3>
  40b7ce:	0f b6 45 c5          	movzbl -0x3b(%rbp),%eax
  40b7d2:	3a 45 c7             	cmp    -0x39(%rbp),%al
  40b7d5:	74 07                	je     40b7de <_Z16readQuotedStringRSiRSs+0x3a3>
  40b7d7:	b8 01 00 00 00       	mov    $0x1,%eax
  40b7dc:	eb 05                	jmp    40b7e3 <_Z16readQuotedStringRSiRSs+0x3a8>
  40b7de:	b8 00 00 00 00       	mov    $0x0,%eax
  40b7e3:	84 c0                	test   %al,%al
  40b7e5:	0f 85 0b fd ff ff    	jne    40b4f6 <_Z16readQuotedStringRSiRSs+0xbb>
  40b7eb:	90                   	nop
  40b7ec:	e9 c6 01 00 00       	jmpq   40b9b7 <_Z16readQuotedStringRSiRSs+0x57c>
  40b7f1:	0f b6 45 c5          	movzbl -0x3b(%rbp),%eax
  40b7f5:	0f be d0             	movsbl %al,%edx
  40b7f8:	48 8b 45 b0          	mov    -0x50(%rbp),%rax
  40b7fc:	89 d6                	mov    %edx,%esi
  40b7fe:	48 89 c7             	mov    %rax,%rdi
  40b801:	e8 0a 6c ff ff       	callq  402410 <_ZNSspLEc@plt>
  40b806:	c7 45 dc 00 00 00 00 	movl   $0x0,-0x24(%rbp)
  40b80d:	eb 36                	jmp    40b845 <_Z16readQuotedStringRSiRSs+0x40a>
  40b80f:	0f b6 45 c5          	movzbl -0x3b(%rbp),%eax
  40b813:	0f be d0             	movsbl %al,%edx
  40b816:	48 8b 45 b0          	mov    -0x50(%rbp),%rax
  40b81a:	89 d6                	mov    %edx,%esi
  40b81c:	48 89 c7             	mov    %rax,%rdi
  40b81f:	e8 ec 6b ff ff       	callq  402410 <_ZNSspLEc@plt>
  40b824:	0f b6 45 c5          	movzbl -0x3b(%rbp),%eax
  40b828:	0f be c0             	movsbl %al,%eax
  40b82b:	89 c7                	mov    %eax,%edi
  40b82d:	e8 be 6f ff ff       	callq  4027f0 <isspace@plt>
  40b832:	85 c0                	test   %eax,%eax
  40b834:	75 0f                	jne    40b845 <_Z16readQuotedStringRSiRSs+0x40a>
  40b836:	48 8b 45 b0          	mov    -0x50(%rbp),%rax
  40b83a:	48 89 c7             	mov    %rax,%rdi
  40b83d:	e8 2e 6d ff ff       	callq  402570 <_ZNKSs6lengthEv@plt>
  40b842:	89 45 dc             	mov    %eax,-0x24(%rbp)
  40b845:	48 8d 55 c5          	lea    -0x3b(%rbp),%rdx
  40b849:	48 8b 45 b8          	mov    -0x48(%rbp),%rax
  40b84d:	48 89 d6             	mov    %rdx,%rsi
  40b850:	48 89 c7             	mov    %rax,%rdi
  40b853:	e8 88 6d ff ff       	callq  4025e0 <_ZNSi3getERc@plt>
  40b858:	48 8b 10             	mov    (%rax),%rdx
  40b85b:	48 83 ea 18          	sub    $0x18,%rdx
  40b85f:	48 8b 12             	mov    (%rdx),%rdx
  40b862:	48 01 d0             	add    %rdx,%rax
  40b865:	48 89 c7             	mov    %rax,%rdi
  40b868:	e8 93 6b ff ff       	callq  402400 <_ZNKSt9basic_iosIcSt11char_traitsIcEEcvPvEv@plt>
  40b86d:	48 85 c0             	test   %rax,%rax
  40b870:	74 25                	je     40b897 <_Z16readQuotedStringRSiRSs+0x45c>
  40b872:	0f b6 45 c5          	movzbl -0x3b(%rbp),%eax
  40b876:	0f be c0             	movsbl %al,%eax
  40b879:	ba 00 00 00 00       	mov    $0x0,%edx
  40b87e:	89 c6                	mov    %eax,%esi
  40b880:	bf f0 26 61 00       	mov    $0x6126f0,%edi
  40b885:	e8 76 6d ff ff       	callq  402600 <_ZNKSs4findEcm@plt>
  40b88a:	48 83 f8 ff          	cmp    $0xffffffffffffffff,%rax
  40b88e:	75 07                	jne    40b897 <_Z16readQuotedStringRSiRSs+0x45c>
  40b890:	b8 01 00 00 00       	mov    $0x1,%eax
  40b895:	eb 05                	jmp    40b89c <_Z16readQuotedStringRSiRSs+0x461>
  40b897:	b8 00 00 00 00       	mov    $0x0,%eax
  40b89c:	84 c0                	test   %al,%al
  40b89e:	0f 85 6b ff ff ff    	jne    40b80f <_Z16readQuotedStringRSiRSs+0x3d4>
  40b8a4:	48 8b 45 b8          	mov    -0x48(%rbp),%rax
  40b8a8:	48 8b 00             	mov    (%rax),%rax
  40b8ab:	48 83 e8 18          	sub    $0x18,%rax
  40b8af:	48 8b 00             	mov    (%rax),%rax
  40b8b2:	48 89 c2             	mov    %rax,%rdx
  40b8b5:	48 8b 45 b8          	mov    -0x48(%rbp),%rax
  40b8b9:	48 01 d0             	add    %rdx,%rax
  40b8bc:	48 89 c7             	mov    %rax,%rdi
  40b8bf:	e8 3c 6b ff ff       	callq  402400 <_ZNKSt9basic_iosIcSt11char_traitsIcEEcvPvEv@plt>
  40b8c4:	48 85 c0             	test   %rax,%rax
  40b8c7:	0f 95 c0             	setne  %al
  40b8ca:	84 c0                	test   %al,%al
  40b8cc:	74 0c                	je     40b8da <_Z16readQuotedStringRSiRSs+0x49f>
  40b8ce:	48 8b 45 b8          	mov    -0x48(%rbp),%rax
  40b8d2:	48 89 c7             	mov    %rax,%rdi
  40b8d5:	e8 06 6b ff ff       	callq  4023e0 <_ZNSi5ungetEv@plt>
  40b8da:	8b 45 dc             	mov    -0x24(%rbp),%eax
  40b8dd:	48 63 d0             	movslq %eax,%rdx
  40b8e0:	48 8d 45 e0          	lea    -0x20(%rbp),%rax
  40b8e4:	48 8b 75 b0          	mov    -0x50(%rbp),%rsi
  40b8e8:	48 89 d1             	mov    %rdx,%rcx
  40b8eb:	ba 00 00 00 00       	mov    $0x0,%edx
  40b8f0:	48 89 c7             	mov    %rax,%rdi
  40b8f3:	e8 f8 6a ff ff       	callq  4023f0 <_ZNKSs6substrEmm@plt>
  40b8f8:	48 8d 55 e0          	lea    -0x20(%rbp),%rdx
  40b8fc:	48 8b 45 b0          	mov    -0x50(%rbp),%rax
  40b900:	48 89 d6             	mov    %rdx,%rsi
  40b903:	48 89 c7             	mov    %rax,%rdi
  40b906:	e8 d5 6f ff ff       	callq  4028e0 <_ZNSsaSERKSs@plt>
  40b90b:	48 8d 45 e0          	lea    -0x20(%rbp),%rax
  40b90f:	48 89 c7             	mov    %rax,%rdi
  40b912:	e8 89 6c ff ff       	callq  4025a0 <_ZNSsD1Ev@plt>
  40b917:	e9 9b 00 00 00       	jmpq   40b9b7 <_Z16readQuotedStringRSiRSs+0x57c>
  40b91c:	48 89 c3             	mov    %rax,%rbx
  40b91f:	48 8d 45 e0          	lea    -0x20(%rbp),%rax
  40b923:	48 89 c7             	mov    %rax,%rdi
  40b926:	e8 75 6c ff ff       	callq  4025a0 <_ZNSsD1Ev@plt>
  40b92b:	eb 03                	jmp    40b930 <_Z16readQuotedStringRSiRSs+0x4f5>
  40b92d:	48 89 c3             	mov    %rax,%rbx
  40b930:	48 8d 45 c6          	lea    -0x3a(%rbp),%rax
  40b934:	48 89 c7             	mov    %rax,%rdi
  40b937:	e8 f4 6d ff ff       	callq  402730 <_ZNSaIcED1Ev@plt>
  40b93c:	48 89 d8             	mov    %rbx,%rax
  40b93f:	48 89 c7             	mov    %rax,%rdi
  40b942:	e8 89 6f ff ff       	callq  4028d0 <_Unwind_Resume@plt>
  40b947:	48 89 c3             	mov    %rax,%rbx
  40b94a:	48 8d 45 e0          	lea    -0x20(%rbp),%rax
  40b94e:	48 89 c7             	mov    %rax,%rdi
  40b951:	e8 4a 6c ff ff       	callq  4025a0 <_ZNSsD1Ev@plt>
  40b956:	eb 03                	jmp    40b95b <_Z16readQuotedStringRSiRSs+0x520>
  40b958:	48 89 c3             	mov    %rax,%rbx
  40b95b:	48 8d 45 c6          	lea    -0x3a(%rbp),%rax
  40b95f:	48 89 c7             	mov    %rax,%rdi
  40b962:	e8 c9 6d ff ff       	callq  402730 <_ZNSaIcED1Ev@plt>
  40b967:	48 89 d8             	mov    %rbx,%rax
  40b96a:	48 89 c7             	mov    %rax,%rdi
  40b96d:	e8 5e 6f ff ff       	callq  4028d0 <_Unwind_Resume@plt>
  40b972:	48 89 c3             	mov    %rax,%rbx
  40b975:	48 8d 45 e0          	lea    -0x20(%rbp),%rax
  40b979:	48 89 c7             	mov    %rax,%rdi
  40b97c:	e8 1f 6c ff ff       	callq  4025a0 <_ZNSsD1Ev@plt>
  40b981:	eb 03                	jmp    40b986 <_Z16readQuotedStringRSiRSs+0x54b>
  40b983:	48 89 c3             	mov    %rax,%rbx
  40b986:	48 8d 45 c6          	lea    -0x3a(%rbp),%rax
  40b98a:	48 89 c7             	mov    %rax,%rdi
  40b98d:	e8 9e 6d ff ff       	callq  402730 <_ZNSaIcED1Ev@plt>
  40b992:	48 89 d8             	mov    %rbx,%rax
  40b995:	48 89 c7             	mov    %rax,%rdi
  40b998:	e8 33 6f ff ff       	callq  4028d0 <_Unwind_Resume@plt>
  40b99d:	48 89 c3             	mov    %rax,%rbx
  40b9a0:	48 8d 45 e0          	lea    -0x20(%rbp),%rax
  40b9a4:	48 89 c7             	mov    %rax,%rdi
  40b9a7:	e8 f4 6b ff ff       	callq  4025a0 <_ZNSsD1Ev@plt>
  40b9ac:	48 89 d8             	mov    %rbx,%rax
  40b9af:	48 89 c7             	mov    %rax,%rdi
  40b9b2:	e8 19 6f ff ff       	callq  4028d0 <_Unwind_Resume@plt>
  40b9b7:	48 83 c4 48          	add    $0x48,%rsp
  40b9bb:	5b                   	pop    %rbx
  40b9bc:	5d                   	pop    %rbp
  40b9bd:	c3                   	retq   

000000000040b9be <_Z17writeQuotedStringRSoRKSsb>:
  40b9be:	55                   	push   %rbp
  40b9bf:	48 89 e5             	mov    %rsp,%rbp
  40b9c2:	41 55                	push   %r13
  40b9c4:	41 54                	push   %r12
  40b9c6:	53                   	push   %rbx
  40b9c7:	48 81 ec a8 01 00 00 	sub    $0x1a8,%rsp
  40b9ce:	48 89 bd 58 fe ff ff 	mov    %rdi,-0x1a8(%rbp)
  40b9d5:	48 89 b5 50 fe ff ff 	mov    %rsi,-0x1b0(%rbp)
  40b9dc:	89 d0                	mov    %edx,%eax
  40b9de:	88 85 4c fe ff ff    	mov    %al,-0x1b4(%rbp)
  40b9e4:	0f b6 85 4c fe ff ff 	movzbl -0x1b4(%rbp),%eax
  40b9eb:	83 f0 01             	xor    $0x1,%eax
  40b9ee:	84 c0                	test   %al,%al
  40b9f0:	74 1a                	je     40ba0c <_Z17writeQuotedStringRSoRKSsb+0x4e>
  40b9f2:	48 8b 85 50 fe ff ff 	mov    -0x1b0(%rbp),%rax
  40b9f9:	48 89 c7             	mov    %rax,%rdi
  40b9fc:	e8 ab f9 ff ff       	callq  40b3ac <_Z18stringNeedsQuotingRKSs>
  40ba01:	84 c0                	test   %al,%al
  40ba03:	74 07                	je     40ba0c <_Z17writeQuotedStringRSoRKSsb+0x4e>
  40ba05:	b8 01 00 00 00       	mov    $0x1,%eax
  40ba0a:	eb 05                	jmp    40ba11 <_Z17writeQuotedStringRSoRKSsb+0x53>
  40ba0c:	b8 00 00 00 00       	mov    $0x0,%eax
  40ba11:	84 c0                	test   %al,%al
  40ba13:	74 07                	je     40ba1c <_Z17writeQuotedStringRSoRKSsb+0x5e>
  40ba15:	c6 85 4c fe ff ff 01 	movb   $0x1,-0x1b4(%rbp)
  40ba1c:	80 bd 4c fe ff ff 00 	cmpb   $0x0,-0x1b4(%rbp)
  40ba23:	74 14                	je     40ba39 <_Z17writeQuotedStringRSoRKSsb+0x7b>
  40ba25:	48 8b 85 58 fe ff ff 	mov    -0x1a8(%rbp),%rax
  40ba2c:	be 22 00 00 00       	mov    $0x22,%esi
  40ba31:	48 89 c7             	mov    %rax,%rdi
  40ba34:	e8 17 6b ff ff       	callq  402550 <_ZStlsISt11char_traitsIcEERSt13basic_ostreamIcT_ES5_c@plt>
  40ba39:	48 8b 85 50 fe ff ff 	mov    -0x1b0(%rbp),%rax
  40ba40:	48 89 c7             	mov    %rax,%rdi
  40ba43:	e8 28 6b ff ff       	callq  402570 <_ZNKSs6lengthEv@plt>
  40ba48:	89 85 6c fe ff ff    	mov    %eax,-0x194(%rbp)
  40ba4e:	c7 85 68 fe ff ff 00 	movl   $0x0,-0x198(%rbp)
  40ba55:	00 00 00 
  40ba58:	e9 42 02 00 00       	jmpq   40bc9f <_Z17writeQuotedStringRSoRKSsb+0x2e1>
  40ba5d:	8b 85 68 fe ff ff    	mov    -0x198(%rbp),%eax
  40ba63:	48 63 d0             	movslq %eax,%rdx
  40ba66:	48 8b 85 50 fe ff ff 	mov    -0x1b0(%rbp),%rax
  40ba6d:	48 89 d6             	mov    %rdx,%rsi
  40ba70:	48 89 c7             	mov    %rax,%rdi
  40ba73:	e8 98 6c ff ff       	callq  402710 <_ZNKSs2atEm@plt>
  40ba78:	0f b6 00             	movzbl (%rax),%eax
  40ba7b:	88 85 67 fe ff ff    	mov    %al,-0x199(%rbp)
  40ba81:	0f be 85 67 fe ff ff 	movsbl -0x199(%rbp),%eax
  40ba88:	83 f8 0a             	cmp    $0xa,%eax
  40ba8b:	0f 84 89 00 00 00    	je     40bb1a <_Z17writeQuotedStringRSoRKSsb+0x15c>
  40ba91:	83 f8 0a             	cmp    $0xa,%eax
  40ba94:	7f 18                	jg     40baae <_Z17writeQuotedStringRSoRKSsb+0xf0>
  40ba96:	83 f8 08             	cmp    $0x8,%eax
  40ba99:	74 4d                	je     40bae8 <_Z17writeQuotedStringRSoRKSsb+0x12a>
  40ba9b:	83 f8 08             	cmp    $0x8,%eax
  40ba9e:	0f 8f a8 00 00 00    	jg     40bb4c <_Z17writeQuotedStringRSoRKSsb+0x18e>
  40baa4:	83 f8 07             	cmp    $0x7,%eax
  40baa7:	74 26                	je     40bacf <_Z17writeQuotedStringRSoRKSsb+0x111>
  40baa9:	e9 e9 00 00 00       	jmpq   40bb97 <_Z17writeQuotedStringRSoRKSsb+0x1d9>
  40baae:	83 f8 0c             	cmp    $0xc,%eax
  40bab1:	74 4e                	je     40bb01 <_Z17writeQuotedStringRSoRKSsb+0x143>
  40bab3:	83 f8 0c             	cmp    $0xc,%eax
  40bab6:	0f 8c a9 00 00 00    	jl     40bb65 <_Z17writeQuotedStringRSoRKSsb+0x1a7>
  40babc:	83 f8 0d             	cmp    $0xd,%eax
  40babf:	74 72                	je     40bb33 <_Z17writeQuotedStringRSoRKSsb+0x175>
  40bac1:	83 f8 5c             	cmp    $0x5c,%eax
  40bac4:	0f 84 b4 00 00 00    	je     40bb7e <_Z17writeQuotedStringRSoRKSsb+0x1c0>
  40baca:	e9 c8 00 00 00       	jmpq   40bb97 <_Z17writeQuotedStringRSoRKSsb+0x1d9>
  40bacf:	48 8b 85 58 fe ff ff 	mov    -0x1a8(%rbp),%rax
  40bad6:	be 60 cc 40 00       	mov    $0x40cc60,%esi
  40badb:	48 89 c7             	mov    %rax,%rdi
  40bade:	e8 ad 6a ff ff       	callq  402590 <_ZStlsISt11char_traitsIcEERSt13basic_ostreamIcT_ES5_PKc@plt>
  40bae3:	e9 b0 01 00 00       	jmpq   40bc98 <_Z17writeQuotedStringRSoRKSsb+0x2da>
  40bae8:	48 8b 85 58 fe ff ff 	mov    -0x1a8(%rbp),%rax
  40baef:	be 63 cc 40 00       	mov    $0x40cc63,%esi
  40baf4:	48 89 c7             	mov    %rax,%rdi
  40baf7:	e8 94 6a ff ff       	callq  402590 <_ZStlsISt11char_traitsIcEERSt13basic_ostreamIcT_ES5_PKc@plt>
  40bafc:	e9 97 01 00 00       	jmpq   40bc98 <_Z17writeQuotedStringRSoRKSsb+0x2da>
  40bb01:	48 8b 85 58 fe ff ff 	mov    -0x1a8(%rbp),%rax
  40bb08:	be 66 cc 40 00       	mov    $0x40cc66,%esi
  40bb0d:	48 89 c7             	mov    %rax,%rdi
  40bb10:	e8 7b 6a ff ff       	callq  402590 <_ZStlsISt11char_traitsIcEERSt13basic_ostreamIcT_ES5_PKc@plt>
  40bb15:	e9 7e 01 00 00       	jmpq   40bc98 <_Z17writeQuotedStringRSoRKSsb+0x2da>
  40bb1a:	48 8b 85 58 fe ff ff 	mov    -0x1a8(%rbp),%rax
  40bb21:	be 69 cc 40 00       	mov    $0x40cc69,%esi
  40bb26:	48 89 c7             	mov    %rax,%rdi
  40bb29:	e8 62 6a ff ff       	callq  402590 <_ZStlsISt11char_traitsIcEERSt13basic_ostreamIcT_ES5_PKc@plt>
  40bb2e:	e9 65 01 00 00       	jmpq   40bc98 <_Z17writeQuotedStringRSoRKSsb+0x2da>
  40bb33:	48 8b 85 58 fe ff ff 	mov    -0x1a8(%rbp),%rax
  40bb3a:	be 6c cc 40 00       	mov    $0x40cc6c,%esi
  40bb3f:	48 89 c7             	mov    %rax,%rdi
  40bb42:	e8 49 6a ff ff       	callq  402590 <_ZStlsISt11char_traitsIcEERSt13basic_ostreamIcT_ES5_PKc@plt>
  40bb47:	e9 4c 01 00 00       	jmpq   40bc98 <_Z17writeQuotedStringRSoRKSsb+0x2da>
  40bb4c:	48 8b 85 58 fe ff ff 	mov    -0x1a8(%rbp),%rax
  40bb53:	be 6f cc 40 00       	mov    $0x40cc6f,%esi
  40bb58:	48 89 c7             	mov    %rax,%rdi
  40bb5b:	e8 30 6a ff ff       	callq  402590 <_ZStlsISt11char_traitsIcEERSt13basic_ostreamIcT_ES5_PKc@plt>
  40bb60:	e9 33 01 00 00       	jmpq   40bc98 <_Z17writeQuotedStringRSoRKSsb+0x2da>
  40bb65:	48 8b 85 58 fe ff ff 	mov    -0x1a8(%rbp),%rax
  40bb6c:	be 72 cc 40 00       	mov    $0x40cc72,%esi
  40bb71:	48 89 c7             	mov    %rax,%rdi
  40bb74:	e8 17 6a ff ff       	callq  402590 <_ZStlsISt11char_traitsIcEERSt13basic_ostreamIcT_ES5_PKc@plt>
  40bb79:	e9 1a 01 00 00       	jmpq   40bc98 <_Z17writeQuotedStringRSoRKSsb+0x2da>
  40bb7e:	48 8b 85 58 fe ff ff 	mov    -0x1a8(%rbp),%rax
  40bb85:	be 75 cc 40 00       	mov    $0x40cc75,%esi
  40bb8a:	48 89 c7             	mov    %rax,%rdi
  40bb8d:	e8 fe 69 ff ff       	callq  402590 <_ZStlsISt11char_traitsIcEERSt13basic_ostreamIcT_ES5_PKc@plt>
  40bb92:	e9 01 01 00 00       	jmpq   40bc98 <_Z17writeQuotedStringRSoRKSsb+0x2da>
  40bb97:	0f be 85 67 fe ff ff 	movsbl -0x199(%rbp),%eax
  40bb9e:	89 c7                	mov    %eax,%edi
  40bba0:	e8 ab 6d ff ff       	callq  402950 <isprint@plt>
  40bba5:	85 c0                	test   %eax,%eax
  40bba7:	74 26                	je     40bbcf <_Z17writeQuotedStringRSoRKSsb+0x211>
  40bba9:	80 bd 67 fe ff ff 22 	cmpb   $0x22,-0x199(%rbp)
  40bbb0:	74 1d                	je     40bbcf <_Z17writeQuotedStringRSoRKSsb+0x211>
  40bbb2:	0f be 95 67 fe ff ff 	movsbl -0x199(%rbp),%edx
  40bbb9:	48 8b 85 58 fe ff ff 	mov    -0x1a8(%rbp),%rax
  40bbc0:	89 d6                	mov    %edx,%esi
  40bbc2:	48 89 c7             	mov    %rax,%rdi
  40bbc5:	e8 86 69 ff ff       	callq  402550 <_ZStlsISt11char_traitsIcEERSt13basic_ostreamIcT_ES5_c@plt>
  40bbca:	e9 c9 00 00 00       	jmpq   40bc98 <_Z17writeQuotedStringRSoRKSsb+0x2da>
  40bbcf:	48 8d 85 80 fe ff ff 	lea    -0x180(%rbp),%rax
  40bbd6:	be 10 00 00 00       	mov    $0x10,%esi
  40bbdb:	48 89 c7             	mov    %rax,%rdi
  40bbde:	e8 ad 6c ff ff       	callq  402890 <_ZNSt19basic_ostringstreamIcSt11char_traitsIcESaIcEEC1ESt13_Ios_Openmode@plt>
  40bbe3:	0f be 85 67 fe ff ff 	movsbl -0x199(%rbp),%eax
  40bbea:	0f b6 d8             	movzbl %al,%ebx
  40bbed:	bf 30 00 00 00       	mov    $0x30,%edi
  40bbf2:	e8 ae 03 00 00       	callq  40bfa5 <_ZSt7setfillIcESt8_SetfillIT_ES1_>
  40bbf7:	41 89 c4             	mov    %eax,%r12d
  40bbfa:	bf 03 00 00 00       	mov    $0x3,%edi
  40bbff:	e8 33 03 00 00       	callq  40bf37 <_ZSt4setwi>
  40bc04:	41 89 c5             	mov    %eax,%r13d
  40bc07:	48 8d 85 80 fe ff ff 	lea    -0x180(%rbp),%rax
  40bc0e:	be 0f bf 40 00       	mov    $0x40bf0f,%esi
  40bc13:	48 89 c7             	mov    %rax,%rdi
  40bc16:	e8 e5 6c ff ff       	callq  402900 <_ZNSolsEPFRSt8ios_baseS0_E@plt>
  40bc1b:	44 89 ee             	mov    %r13d,%esi
  40bc1e:	48 89 c7             	mov    %rax,%rdi
  40bc21:	e8 0a 6d ff ff       	callq  402930 <_ZStlsIcSt11char_traitsIcEERSt13basic_ostreamIT_T0_ES6_St5_Setw@plt>
  40bc26:	44 89 e6             	mov    %r12d,%esi
  40bc29:	48 89 c7             	mov    %rax,%rdi
  40bc2c:	e8 0f 6d ff ff       	callq  402940 <_ZStlsIcSt11char_traitsIcEERSt13basic_ostreamIT_T0_ES6_St8_SetfillIS3_E@plt>
  40bc31:	89 de                	mov    %ebx,%esi
  40bc33:	48 89 c7             	mov    %rax,%rdi
  40bc36:	e8 85 67 ff ff       	callq  4023c0 <_ZNSolsEi@plt>
  40bc3b:	48 8d 85 70 fe ff ff 	lea    -0x190(%rbp),%rax
  40bc42:	48 8d 95 80 fe ff ff 	lea    -0x180(%rbp),%rdx
  40bc49:	48 89 d6             	mov    %rdx,%rsi
  40bc4c:	48 89 c7             	mov    %rax,%rdi
  40bc4f:	e8 9c 68 ff ff       	callq  4024f0 <_ZNKSt19basic_ostringstreamIcSt11char_traitsIcESaIcEE3strEv@plt>
  40bc54:	48 8b 85 58 fe ff ff 	mov    -0x1a8(%rbp),%rax
  40bc5b:	be 78 cc 40 00       	mov    $0x40cc78,%esi
  40bc60:	48 89 c7             	mov    %rax,%rdi
  40bc63:	e8 28 69 ff ff       	callq  402590 <_ZStlsISt11char_traitsIcEERSt13basic_ostreamIcT_ES5_PKc@plt>
  40bc68:	48 8d 95 70 fe ff ff 	lea    -0x190(%rbp),%rdx
  40bc6f:	48 89 d6             	mov    %rdx,%rsi
  40bc72:	48 89 c7             	mov    %rax,%rdi
  40bc75:	e8 56 6a ff ff       	callq  4026d0 <_ZStlsIcSt11char_traitsIcESaIcEERSt13basic_ostreamIT_T0_ES7_RKSbIS4_S5_T1_E@plt>
  40bc7a:	48 8d 85 70 fe ff ff 	lea    -0x190(%rbp),%rax
  40bc81:	48 89 c7             	mov    %rax,%rdi
  40bc84:	e8 17 69 ff ff       	callq  4025a0 <_ZNSsD1Ev@plt>
  40bc89:	48 8d 85 80 fe ff ff 	lea    -0x180(%rbp),%rax
  40bc90:	48 89 c7             	mov    %rax,%rdi
  40bc93:	e8 58 6a ff ff       	callq  4026f0 <_ZNSt19basic_ostringstreamIcSt11char_traitsIcESaIcEED1Ev@plt>
  40bc98:	83 85 68 fe ff ff 01 	addl   $0x1,-0x198(%rbp)
  40bc9f:	8b 85 68 fe ff ff    	mov    -0x198(%rbp),%eax
  40bca5:	3b 85 6c fe ff ff    	cmp    -0x194(%rbp),%eax
  40bcab:	0f 8c ac fd ff ff    	jl     40ba5d <_Z17writeQuotedStringRSoRKSsb+0x9f>
  40bcb1:	80 bd 4c fe ff ff 00 	cmpb   $0x0,-0x1b4(%rbp)
  40bcb8:	74 47                	je     40bd01 <_Z17writeQuotedStringRSoRKSsb+0x343>
  40bcba:	48 8b 85 58 fe ff ff 	mov    -0x1a8(%rbp),%rax
  40bcc1:	be 22 00 00 00       	mov    $0x22,%esi
  40bcc6:	48 89 c7             	mov    %rax,%rdi
  40bcc9:	e8 82 68 ff ff       	callq  402550 <_ZStlsISt11char_traitsIcEERSt13basic_ostreamIcT_ES5_c@plt>
  40bcce:	eb 31                	jmp    40bd01 <_Z17writeQuotedStringRSoRKSsb+0x343>
  40bcd0:	48 89 c3             	mov    %rax,%rbx
  40bcd3:	48 8d 85 70 fe ff ff 	lea    -0x190(%rbp),%rax
  40bcda:	48 89 c7             	mov    %rax,%rdi
  40bcdd:	e8 be 68 ff ff       	callq  4025a0 <_ZNSsD1Ev@plt>
  40bce2:	eb 03                	jmp    40bce7 <_Z17writeQuotedStringRSoRKSsb+0x329>
  40bce4:	48 89 c3             	mov    %rax,%rbx
  40bce7:	48 8d 85 80 fe ff ff 	lea    -0x180(%rbp),%rax
  40bcee:	48 89 c7             	mov    %rax,%rdi
  40bcf1:	e8 fa 69 ff ff       	callq  4026f0 <_ZNSt19basic_ostringstreamIcSt11char_traitsIcESaIcEED1Ev@plt>
  40bcf6:	48 89 d8             	mov    %rbx,%rax
  40bcf9:	48 89 c7             	mov    %rax,%rdi
  40bcfc:	e8 cf 6b ff ff       	callq  4028d0 <_Unwind_Resume@plt>
  40bd01:	48 81 c4 a8 01 00 00 	add    $0x1a8,%rsp
  40bd08:	5b                   	pop    %rbx
  40bd09:	41 5c                	pop    %r12
  40bd0b:	41 5d                	pop    %r13
  40bd0d:	5d                   	pop    %rbp
  40bd0e:	c3                   	retq   

000000000040bd0f <_Z41__static_initialization_and_destruction_0ii>:
  40bd0f:	55                   	push   %rbp
  40bd10:	48 89 e5             	mov    %rsp,%rbp
  40bd13:	53                   	push   %rbx
  40bd14:	48 83 ec 28          	sub    $0x28,%rsp
  40bd18:	89 7d dc             	mov    %edi,-0x24(%rbp)
  40bd1b:	89 75 d8             	mov    %esi,-0x28(%rbp)
  40bd1e:	83 7d dc 01          	cmpl   $0x1,-0x24(%rbp)
  40bd22:	0f 85 85 00 00 00    	jne    40bdad <_Z41__static_initialization_and_destruction_0ii+0x9e>
  40bd28:	81 7d d8 ff ff 00 00 	cmpl   $0xffff,-0x28(%rbp)
  40bd2f:	75 7c                	jne    40bdad <_Z41__static_initialization_and_destruction_0ii+0x9e>
  40bd31:	bf e8 26 61 00       	mov    $0x6126e8,%edi
  40bd36:	e8 75 67 ff ff       	callq  4024b0 <_ZNSt8ios_base4InitC1Ev@plt>
  40bd3b:	ba 30 23 61 00       	mov    $0x612330,%edx
  40bd40:	be e8 26 61 00       	mov    $0x6126e8,%esi
  40bd45:	bf 80 25 40 00       	mov    $0x402580,%edi
  40bd4a:	e8 e1 67 ff ff       	callq  402530 <__cxa_atexit@plt>
  40bd4f:	48 8d 45 ef          	lea    -0x11(%rbp),%rax
  40bd53:	48 89 c7             	mov    %rax,%rdi
  40bd56:	e8 15 6b ff ff       	callq  402870 <_ZNSaIcEC1Ev@plt>
  40bd5b:	48 8d 45 ef          	lea    -0x11(%rbp),%rax
  40bd5f:	48 89 c2             	mov    %rax,%rdx
  40bd62:	be 7a cc 40 00       	mov    $0x40cc7a,%esi
  40bd67:	bf f0 26 61 00       	mov    $0x6126f0,%edi
  40bd6c:	e8 af 68 ff ff       	callq  402620 <_ZNSsC1EPKcRKSaIcE@plt>
  40bd71:	48 8d 45 ef          	lea    -0x11(%rbp),%rax
  40bd75:	48 89 c7             	mov    %rax,%rdi
  40bd78:	e8 b3 69 ff ff       	callq  402730 <_ZNSaIcED1Ev@plt>
  40bd7d:	ba 30 23 61 00       	mov    $0x612330,%edx
  40bd82:	be f0 26 61 00       	mov    $0x6126f0,%esi
  40bd87:	bf a0 25 40 00       	mov    $0x4025a0,%edi
  40bd8c:	e8 9f 67 ff ff       	callq  402530 <__cxa_atexit@plt>
  40bd91:	eb 1a                	jmp    40bdad <_Z41__static_initialization_and_destruction_0ii+0x9e>
  40bd93:	48 89 c3             	mov    %rax,%rbx
  40bd96:	48 8d 45 ef          	lea    -0x11(%rbp),%rax
  40bd9a:	48 89 c7             	mov    %rax,%rdi
  40bd9d:	e8 8e 69 ff ff       	callq  402730 <_ZNSaIcED1Ev@plt>
  40bda2:	48 89 d8             	mov    %rbx,%rax
  40bda5:	48 89 c7             	mov    %rax,%rdi
  40bda8:	e8 23 6b ff ff       	callq  4028d0 <_Unwind_Resume@plt>
  40bdad:	48 83 c4 28          	add    $0x28,%rsp
  40bdb1:	5b                   	pop    %rbx
  40bdb2:	5d                   	pop    %rbp
  40bdb3:	c3                   	retq   

000000000040bdb4 <_GLOBAL__sub_I__Z15integerToStringi>:
  40bdb4:	55                   	push   %rbp
  40bdb5:	48 89 e5             	mov    %rsp,%rbp
  40bdb8:	be ff ff 00 00       	mov    $0xffff,%esi
  40bdbd:	bf 01 00 00 00       	mov    $0x1,%edi
  40bdc2:	e8 48 ff ff ff       	callq  40bd0f <_Z41__static_initialization_and_destruction_0ii>
  40bdc7:	5d                   	pop    %rbp
  40bdc8:	c3                   	retq   

000000000040bdc9 <_ZStanSt13_Ios_FmtflagsS_>:
  40bdc9:	55                   	push   %rbp
  40bdca:	48 89 e5             	mov    %rsp,%rbp
  40bdcd:	89 7d fc             	mov    %edi,-0x4(%rbp)
  40bdd0:	89 75 f8             	mov    %esi,-0x8(%rbp)
  40bdd3:	8b 55 fc             	mov    -0x4(%rbp),%edx
  40bdd6:	8b 45 f8             	mov    -0x8(%rbp),%eax
  40bdd9:	21 d0                	and    %edx,%eax
  40bddb:	5d                   	pop    %rbp
  40bddc:	c3                   	retq   

000000000040bddd <_ZStorSt13_Ios_FmtflagsS_>:
  40bddd:	55                   	push   %rbp
  40bdde:	48 89 e5             	mov    %rsp,%rbp
  40bde1:	89 7d fc             	mov    %edi,-0x4(%rbp)
  40bde4:	89 75 f8             	mov    %esi,-0x8(%rbp)
  40bde7:	8b 55 fc             	mov    -0x4(%rbp),%edx
  40bdea:	8b 45 f8             	mov    -0x8(%rbp),%eax
  40bded:	09 d0                	or     %edx,%eax
  40bdef:	5d                   	pop    %rbp
  40bdf0:	c3                   	retq   

000000000040bdf1 <_ZStcoSt13_Ios_Fmtflags>:
  40bdf1:	55                   	push   %rbp
  40bdf2:	48 89 e5             	mov    %rsp,%rbp
  40bdf5:	89 7d fc             	mov    %edi,-0x4(%rbp)
  40bdf8:	8b 45 fc             	mov    -0x4(%rbp),%eax
  40bdfb:	f7 d0                	not    %eax
  40bdfd:	5d                   	pop    %rbp
  40bdfe:	c3                   	retq   

000000000040bdff <_ZStoRRSt13_Ios_FmtflagsS_>:
  40bdff:	55                   	push   %rbp
  40be00:	48 89 e5             	mov    %rsp,%rbp
  40be03:	48 83 ec 10          	sub    $0x10,%rsp
  40be07:	48 89 7d f8          	mov    %rdi,-0x8(%rbp)
  40be0b:	89 75 f4             	mov    %esi,-0xc(%rbp)
  40be0e:	48 8b 45 f8          	mov    -0x8(%rbp),%rax
  40be12:	8b 00                	mov    (%rax),%eax
  40be14:	8b 55 f4             	mov    -0xc(%rbp),%edx
  40be17:	89 d6                	mov    %edx,%esi
  40be19:	89 c7                	mov    %eax,%edi
  40be1b:	e8 bd ff ff ff       	callq  40bddd <_ZStorSt13_Ios_FmtflagsS_>
  40be20:	48 8b 55 f8          	mov    -0x8(%rbp),%rdx
  40be24:	89 02                	mov    %eax,(%rdx)
  40be26:	48 8b 45 f8          	mov    -0x8(%rbp),%rax
  40be2a:	c9                   	leaveq 
  40be2b:	c3                   	retq   

000000000040be2c <_ZStaNRSt13_Ios_FmtflagsS_>:
  40be2c:	55                   	push   %rbp
  40be2d:	48 89 e5             	mov    %rsp,%rbp
  40be30:	48 83 ec 10          	sub    $0x10,%rsp
  40be34:	48 89 7d f8          	mov    %rdi,-0x8(%rbp)
  40be38:	89 75 f4             	mov    %esi,-0xc(%rbp)
  40be3b:	48 8b 45 f8          	mov    -0x8(%rbp),%rax
  40be3f:	8b 00                	mov    (%rax),%eax
  40be41:	8b 55 f4             	mov    -0xc(%rbp),%edx
  40be44:	89 d6                	mov    %edx,%esi
  40be46:	89 c7                	mov    %eax,%edi
  40be48:	e8 7c ff ff ff       	callq  40bdc9 <_ZStanSt13_Ios_FmtflagsS_>
  40be4d:	48 8b 55 f8          	mov    -0x8(%rbp),%rdx
  40be51:	89 02                	mov    %eax,(%rdx)
  40be53:	48 8b 45 f8          	mov    -0x8(%rbp),%rax
  40be57:	c9                   	leaveq 
  40be58:	c3                   	retq   
  40be59:	90                   	nop

000000000040be5a <_ZNSt8ios_base4setfESt13_Ios_Fmtflags>:
  40be5a:	55                   	push   %rbp
  40be5b:	48 89 e5             	mov    %rsp,%rbp
  40be5e:	48 83 ec 20          	sub    $0x20,%rsp
  40be62:	48 89 7d e8          	mov    %rdi,-0x18(%rbp)
  40be66:	89 75 e4             	mov    %esi,-0x1c(%rbp)
  40be69:	48 8b 45 e8          	mov    -0x18(%rbp),%rax
  40be6d:	8b 40 18             	mov    0x18(%rax),%eax
  40be70:	89 45 fc             	mov    %eax,-0x4(%rbp)
  40be73:	48 8b 45 e8          	mov    -0x18(%rbp),%rax
  40be77:	48 8d 50 18          	lea    0x18(%rax),%rdx
  40be7b:	8b 45 e4             	mov    -0x1c(%rbp),%eax
  40be7e:	89 c6                	mov    %eax,%esi
  40be80:	48 89 d7             	mov    %rdx,%rdi
  40be83:	e8 77 ff ff ff       	callq  40bdff <_ZStoRRSt13_Ios_FmtflagsS_>
  40be88:	8b 45 fc             	mov    -0x4(%rbp),%eax
  40be8b:	c9                   	leaveq 
  40be8c:	c3                   	retq   
  40be8d:	90                   	nop

000000000040be8e <_ZNSt8ios_base4setfESt13_Ios_FmtflagsS0_>:
  40be8e:	55                   	push   %rbp
  40be8f:	48 89 e5             	mov    %rsp,%rbp
  40be92:	48 83 ec 20          	sub    $0x20,%rsp
  40be96:	48 89 7d e8          	mov    %rdi,-0x18(%rbp)
  40be9a:	89 75 e4             	mov    %esi,-0x1c(%rbp)
  40be9d:	89 55 e0             	mov    %edx,-0x20(%rbp)
  40bea0:	48 8b 45 e8          	mov    -0x18(%rbp),%rax
  40bea4:	8b 40 18             	mov    0x18(%rax),%eax
  40bea7:	89 45 fc             	mov    %eax,-0x4(%rbp)
  40beaa:	8b 45 e0             	mov    -0x20(%rbp),%eax
  40bead:	89 c7                	mov    %eax,%edi
  40beaf:	e8 3d ff ff ff       	callq  40bdf1 <_ZStcoSt13_Ios_Fmtflags>
  40beb4:	48 8b 55 e8          	mov    -0x18(%rbp),%rdx
  40beb8:	48 83 c2 18          	add    $0x18,%rdx
  40bebc:	89 c6                	mov    %eax,%esi
  40bebe:	48 89 d7             	mov    %rdx,%rdi
  40bec1:	e8 66 ff ff ff       	callq  40be2c <_ZStaNRSt13_Ios_FmtflagsS_>
  40bec6:	8b 55 e0             	mov    -0x20(%rbp),%edx
  40bec9:	8b 45 e4             	mov    -0x1c(%rbp),%eax
  40becc:	89 d6                	mov    %edx,%esi
  40bece:	89 c7                	mov    %eax,%edi
  40bed0:	e8 f4 fe ff ff       	callq  40bdc9 <_ZStanSt13_Ios_FmtflagsS_>
  40bed5:	48 8b 55 e8          	mov    -0x18(%rbp),%rdx
  40bed9:	48 83 c2 18          	add    $0x18,%rdx
  40bedd:	89 c6                	mov    %eax,%esi
  40bedf:	48 89 d7             	mov    %rdx,%rdi
  40bee2:	e8 18 ff ff ff       	callq  40bdff <_ZStoRRSt13_Ios_FmtflagsS_>
  40bee7:	8b 45 fc             	mov    -0x4(%rbp),%eax
  40beea:	c9                   	leaveq 
  40beeb:	c3                   	retq   

000000000040beec <_ZSt9uppercaseRSt8ios_base>:
  40beec:	55                   	push   %rbp
  40beed:	48 89 e5             	mov    %rsp,%rbp
  40bef0:	48 83 ec 10          	sub    $0x10,%rsp
  40bef4:	48 89 7d f8          	mov    %rdi,-0x8(%rbp)
  40bef8:	48 8b 45 f8          	mov    -0x8(%rbp),%rax
  40befc:	be 00 40 00 00       	mov    $0x4000,%esi
  40bf01:	48 89 c7             	mov    %rax,%rdi
  40bf04:	e8 51 ff ff ff       	callq  40be5a <_ZNSt8ios_base4setfESt13_Ios_Fmtflags>
  40bf09:	48 8b 45 f8          	mov    -0x8(%rbp),%rax
  40bf0d:	c9                   	leaveq 
  40bf0e:	c3                   	retq   

000000000040bf0f <_ZSt3octRSt8ios_base>:
  40bf0f:	55                   	push   %rbp
  40bf10:	48 89 e5             	mov    %rsp,%rbp
  40bf13:	48 83 ec 10          	sub    $0x10,%rsp
  40bf17:	48 89 7d f8          	mov    %rdi,-0x8(%rbp)
  40bf1b:	48 8b 45 f8          	mov    -0x8(%rbp),%rax
  40bf1f:	ba 4a 00 00 00       	mov    $0x4a,%edx
  40bf24:	be 40 00 00 00       	mov    $0x40,%esi
  40bf29:	48 89 c7             	mov    %rax,%rdi
  40bf2c:	e8 5d ff ff ff       	callq  40be8e <_ZNSt8ios_base4setfESt13_Ios_FmtflagsS0_>
  40bf31:	48 8b 45 f8          	mov    -0x8(%rbp),%rax
  40bf35:	c9                   	leaveq 
  40bf36:	c3                   	retq   

000000000040bf37 <_ZSt4setwi>:
  40bf37:	55                   	push   %rbp
  40bf38:	48 89 e5             	mov    %rsp,%rbp
  40bf3b:	89 7d fc             	mov    %edi,-0x4(%rbp)
  40bf3e:	8b 45 fc             	mov    -0x4(%rbp),%eax
  40bf41:	5d                   	pop    %rbp
  40bf42:	c3                   	retq   

000000000040bf43 <_ZStplIcSt11char_traitsIcESaIcEESbIT_T0_T1_ERKS6_PKS3_>:
  40bf43:	55                   	push   %rbp
  40bf44:	48 89 e5             	mov    %rsp,%rbp
  40bf47:	53                   	push   %rbx
  40bf48:	48 83 ec 28          	sub    $0x28,%rsp
  40bf4c:	48 89 7d e8          	mov    %rdi,-0x18(%rbp)
  40bf50:	48 89 75 e0          	mov    %rsi,-0x20(%rbp)
  40bf54:	48 89 55 d8          	mov    %rdx,-0x28(%rbp)
  40bf58:	48 8b 55 e0          	mov    -0x20(%rbp),%rdx
  40bf5c:	48 8b 45 e8          	mov    -0x18(%rbp),%rax
  40bf60:	48 89 d6             	mov    %rdx,%rsi
  40bf63:	48 89 c7             	mov    %rax,%rdi
  40bf66:	e8 a5 65 ff ff       	callq  402510 <_ZNSsC1ERKSs@plt>
  40bf6b:	48 8b 55 d8          	mov    -0x28(%rbp),%rdx
  40bf6f:	48 8b 45 e8          	mov    -0x18(%rbp),%rax
  40bf73:	48 89 d6             	mov    %rdx,%rsi
  40bf76:	48 89 c7             	mov    %rax,%rdi
  40bf79:	e8 12 68 ff ff       	callq  402790 <_ZNSs6appendEPKc@plt>
  40bf7e:	eb 1a                	jmp    40bf9a <_ZStplIcSt11char_traitsIcESaIcEESbIT_T0_T1_ERKS6_PKS3_+0x57>
  40bf80:	48 89 c3             	mov    %rax,%rbx
  40bf83:	48 8b 45 e8          	mov    -0x18(%rbp),%rax
  40bf87:	48 89 c7             	mov    %rax,%rdi
  40bf8a:	e8 11 66 ff ff       	callq  4025a0 <_ZNSsD1Ev@plt>
  40bf8f:	48 89 d8             	mov    %rbx,%rax
  40bf92:	48 89 c7             	mov    %rax,%rdi
  40bf95:	e8 36 69 ff ff       	callq  4028d0 <_Unwind_Resume@plt>
  40bf9a:	48 8b 45 e8          	mov    -0x18(%rbp),%rax
  40bf9e:	48 83 c4 28          	add    $0x28,%rsp
  40bfa2:	5b                   	pop    %rbx
  40bfa3:	5d                   	pop    %rbp
  40bfa4:	c3                   	retq   

000000000040bfa5 <_ZSt7setfillIcESt8_SetfillIT_ES1_>:
  40bfa5:	55                   	push   %rbp
  40bfa6:	48 89 e5             	mov    %rsp,%rbp
  40bfa9:	89 f8                	mov    %edi,%eax
  40bfab:	88 45 fc             	mov    %al,-0x4(%rbp)
  40bfae:	0f b6 45 fc          	movzbl -0x4(%rbp),%eax
  40bfb2:	5d                   	pop    %rbp
  40bfb3:	c3                   	retq   

000000000040bfb4 <_ZN14ErrorExceptionC1ESs>:
  40bfb4:	55                   	push   %rbp
  40bfb5:	48 89 e5             	mov    %rsp,%rbp
  40bfb8:	53                   	push   %rbx
  40bfb9:	48 83 ec 18          	sub    $0x18,%rsp
  40bfbd:	48 89 7d e8          	mov    %rdi,-0x18(%rbp)
  40bfc1:	48 89 75 e0          	mov    %rsi,-0x20(%rbp)
  40bfc5:	48 8b 45 e8          	mov    -0x18(%rbp),%rax
  40bfc9:	48 89 c7             	mov    %rax,%rdi
  40bfcc:	e8 99 02 00 00       	callq  40c26a <_ZNSt9exceptionC1Ev>
  40bfd1:	48 8b 45 e8          	mov    -0x18(%rbp),%rax
  40bfd5:	48 c7 00 b0 cc 40 00 	movq   $0x40ccb0,(%rax)
  40bfdc:	48 8b 45 e8          	mov    -0x18(%rbp),%rax
  40bfe0:	48 83 c0 08          	add    $0x8,%rax
  40bfe4:	48 89 c7             	mov    %rax,%rdi
  40bfe7:	e8 b4 63 ff ff       	callq  4023a0 <_ZNSsC1Ev@plt>
  40bfec:	48 8b 45 e8          	mov    -0x18(%rbp),%rax
  40bff0:	48 8d 50 08          	lea    0x8(%rax),%rdx
  40bff4:	48 8b 45 e0          	mov    -0x20(%rbp),%rax
  40bff8:	48 89 c6             	mov    %rax,%rsi
  40bffb:	48 89 d7             	mov    %rdx,%rdi
  40bffe:	e8 dd 68 ff ff       	callq  4028e0 <_ZNSsaSERKSs@plt>
  40c003:	eb 2f                	jmp    40c034 <_ZN14ErrorExceptionC1ESs+0x80>
  40c005:	48 89 c3             	mov    %rax,%rbx
  40c008:	48 8b 45 e8          	mov    -0x18(%rbp),%rax
  40c00c:	48 83 c0 08          	add    $0x8,%rax
  40c010:	48 89 c7             	mov    %rax,%rdi
  40c013:	e8 88 65 ff ff       	callq  4025a0 <_ZNSsD1Ev@plt>
  40c018:	eb 03                	jmp    40c01d <_ZN14ErrorExceptionC1ESs+0x69>
  40c01a:	48 89 c3             	mov    %rax,%rbx
  40c01d:	48 8b 45 e8          	mov    -0x18(%rbp),%rax
  40c021:	48 89 c7             	mov    %rax,%rdi
  40c024:	e8 17 67 ff ff       	callq  402740 <_ZNSt9exceptionD2Ev@plt>
  40c029:	48 89 d8             	mov    %rbx,%rax
  40c02c:	48 89 c7             	mov    %rax,%rdi
  40c02f:	e8 9c 68 ff ff       	callq  4028d0 <_Unwind_Resume@plt>
  40c034:	48 83 c4 18          	add    $0x18,%rsp
  40c038:	5b                   	pop    %rbx
  40c039:	5d                   	pop    %rbp
  40c03a:	c3                   	retq   
  40c03b:	90                   	nop

000000000040c03c <_ZN14ErrorExceptionD1Ev>:
  40c03c:	55                   	push   %rbp
  40c03d:	48 89 e5             	mov    %rsp,%rbp
  40c040:	41 54                	push   %r12
  40c042:	53                   	push   %rbx
  40c043:	48 83 ec 10          	sub    $0x10,%rsp
  40c047:	48 89 7d e8          	mov    %rdi,-0x18(%rbp)
  40c04b:	48 8b 45 e8          	mov    -0x18(%rbp),%rax
  40c04f:	48 c7 00 b0 cc 40 00 	movq   $0x40ccb0,(%rax)
  40c056:	48 8b 45 e8          	mov    -0x18(%rbp),%rax
  40c05a:	48 83 c0 08          	add    $0x8,%rax
  40c05e:	48 89 c7             	mov    %rax,%rdi
  40c061:	e8 3a 65 ff ff       	callq  4025a0 <_ZNSsD1Ev@plt>
  40c066:	48 8b 45 e8          	mov    -0x18(%rbp),%rax
  40c06a:	48 89 c7             	mov    %rax,%rdi
  40c06d:	e8 ce 66 ff ff       	callq  402740 <_ZNSt9exceptionD2Ev@plt>
  40c072:	b8 00 00 00 00       	mov    $0x0,%eax
  40c077:	85 c0                	test   %eax,%eax
  40c079:	74 3c                	je     40c0b7 <_ZN14ErrorExceptionD1Ev+0x7b>
  40c07b:	48 8b 45 e8          	mov    -0x18(%rbp),%rax
  40c07f:	48 89 c7             	mov    %rax,%rdi
  40c082:	e8 d9 63 ff ff       	callq  402460 <_ZdlPv@plt>
  40c087:	eb 2e                	jmp    40c0b7 <_ZN14ErrorExceptionD1Ev+0x7b>
  40c089:	49 89 c4             	mov    %rax,%r12
  40c08c:	48 89 d3             	mov    %rdx,%rbx
  40c08f:	48 8b 45 e8          	mov    -0x18(%rbp),%rax
  40c093:	48 89 c7             	mov    %rax,%rdi
  40c096:	e8 a5 66 ff ff       	callq  402740 <_ZNSt9exceptionD2Ev@plt>
  40c09b:	4c 89 e0             	mov    %r12,%rax
  40c09e:	48 89 da             	mov    %rbx,%rdx
  40c0a1:	48 83 fa ff          	cmp    $0xffffffffffffffff,%rdx
  40c0a5:	74 08                	je     40c0af <_ZN14ErrorExceptionD1Ev+0x73>
  40c0a7:	48 89 c7             	mov    %rax,%rdi
  40c0aa:	e8 21 68 ff ff       	callq  4028d0 <_Unwind_Resume@plt>
  40c0af:	48 89 c7             	mov    %rax,%rdi
  40c0b2:	e8 89 65 ff ff       	callq  402640 <__cxa_call_unexpected@plt>
  40c0b7:	48 83 c4 10          	add    $0x10,%rsp
  40c0bb:	5b                   	pop    %rbx
  40c0bc:	41 5c                	pop    %r12
  40c0be:	5d                   	pop    %rbp
  40c0bf:	c3                   	retq   

000000000040c0c0 <_ZN14ErrorExceptionD0Ev>:
  40c0c0:	55                   	push   %rbp
  40c0c1:	48 89 e5             	mov    %rsp,%rbp
  40c0c4:	48 83 ec 10          	sub    $0x10,%rsp
  40c0c8:	48 89 7d f8          	mov    %rdi,-0x8(%rbp)
  40c0cc:	48 8b 45 f8          	mov    -0x8(%rbp),%rax
  40c0d0:	48 89 c7             	mov    %rax,%rdi
  40c0d3:	e8 64 ff ff ff       	callq  40c03c <_ZN14ErrorExceptionD1Ev>
  40c0d8:	48 8b 45 f8          	mov    -0x8(%rbp),%rax
  40c0dc:	48 89 c7             	mov    %rax,%rdi
  40c0df:	e8 7c 63 ff ff       	callq  402460 <_ZdlPv@plt>
  40c0e4:	c9                   	leaveq 
  40c0e5:	c3                   	retq   

000000000040c0e6 <_ZNK14ErrorException10getMessageEv>:
  40c0e6:	55                   	push   %rbp
  40c0e7:	48 89 e5             	mov    %rsp,%rbp
  40c0ea:	48 83 ec 10          	sub    $0x10,%rsp
  40c0ee:	48 89 7d f8          	mov    %rdi,-0x8(%rbp)
  40c0f2:	48 89 75 f0          	mov    %rsi,-0x10(%rbp)
  40c0f6:	48 8b 45 f0          	mov    -0x10(%rbp),%rax
  40c0fa:	48 8d 50 08          	lea    0x8(%rax),%rdx
  40c0fe:	48 8b 45 f8          	mov    -0x8(%rbp),%rax
  40c102:	48 89 d6             	mov    %rdx,%rsi
  40c105:	48 89 c7             	mov    %rax,%rdi
  40c108:	e8 03 64 ff ff       	callq  402510 <_ZNSsC1ERKSs@plt>
  40c10d:	48 8b 45 f8          	mov    -0x8(%rbp),%rax
  40c111:	c9                   	leaveq 
  40c112:	c3                   	retq   
  40c113:	90                   	nop

000000000040c114 <_ZNK14ErrorException4whatEv>:
  40c114:	55                   	push   %rbp
  40c115:	48 89 e5             	mov    %rsp,%rbp
  40c118:	41 54                	push   %r12
  40c11a:	53                   	push   %rbx
  40c11b:	48 83 ec 20          	sub    $0x20,%rsp
  40c11f:	48 89 7d d8          	mov    %rdi,-0x28(%rbp)
  40c123:	48 8b 45 d8          	mov    -0x28(%rbp),%rax
  40c127:	48 8d 50 08          	lea    0x8(%rax),%rdx
  40c12b:	48 8d 45 e0          	lea    -0x20(%rbp),%rax
  40c12f:	be 90 cc 40 00       	mov    $0x40cc90,%esi
  40c134:	48 89 c7             	mov    %rax,%rdi
  40c137:	e8 08 c1 ff ff       	callq  408244 <_ZStplIcSt11char_traitsIcESaIcEESbIT_T0_T1_EPKS3_RKS6_>
  40c13c:	48 8d 45 e0          	lea    -0x20(%rbp),%rax
  40c140:	48 89 c7             	mov    %rax,%rdi
  40c143:	e8 f8 62 ff ff       	callq  402440 <_ZNKSs5c_strEv@plt>
  40c148:	48 89 c3             	mov    %rax,%rbx
  40c14b:	48 8d 45 e0          	lea    -0x20(%rbp),%rax
  40c14f:	48 89 c7             	mov    %rax,%rdi
  40c152:	e8 49 64 ff ff       	callq  4025a0 <_ZNSsD1Ev@plt>
  40c157:	48 89 d8             	mov    %rbx,%rax
  40c15a:	eb 30                	jmp    40c18c <_ZNK14ErrorException4whatEv+0x78>
  40c15c:	49 89 c4             	mov    %rax,%r12
  40c15f:	48 89 d3             	mov    %rdx,%rbx
  40c162:	48 8d 45 e0          	lea    -0x20(%rbp),%rax
  40c166:	48 89 c7             	mov    %rax,%rdi
  40c169:	e8 32 64 ff ff       	callq  4025a0 <_ZNSsD1Ev@plt>
  40c16e:	4c 89 e0             	mov    %r12,%rax
  40c171:	48 89 da             	mov    %rbx,%rdx
  40c174:	eb 00                	jmp    40c176 <_ZNK14ErrorException4whatEv+0x62>
  40c176:	48 83 fa ff          	cmp    $0xffffffffffffffff,%rdx
  40c17a:	74 08                	je     40c184 <_ZNK14ErrorException4whatEv+0x70>
  40c17c:	48 89 c7             	mov    %rax,%rdi
  40c17f:	e8 4c 67 ff ff       	callq  4028d0 <_Unwind_Resume@plt>
  40c184:	48 89 c7             	mov    %rax,%rdi
  40c187:	e8 b4 64 ff ff       	callq  402640 <__cxa_call_unexpected@plt>
  40c18c:	48 83 c4 20          	add    $0x20,%rsp
  40c190:	5b                   	pop    %rbx
  40c191:	41 5c                	pop    %r12
  40c193:	5d                   	pop    %rbp
  40c194:	c3                   	retq   

000000000040c195 <_Z5errorSs>:
  40c195:	55                   	push   %rbp
  40c196:	48 89 e5             	mov    %rsp,%rbp
  40c199:	41 54                	push   %r12
  40c19b:	53                   	push   %rbx
  40c19c:	48 83 ec 20          	sub    $0x20,%rsp
  40c1a0:	48 89 7d d8          	mov    %rdi,-0x28(%rbp)
  40c1a4:	bf 10 00 00 00       	mov    $0x10,%edi
  40c1a9:	e8 72 65 ff ff       	callq  402720 <__cxa_allocate_exception@plt>
  40c1ae:	48 89 c3             	mov    %rax,%rbx
  40c1b1:	48 8b 55 d8          	mov    -0x28(%rbp),%rdx
  40c1b5:	48 8d 45 e0          	lea    -0x20(%rbp),%rax
  40c1b9:	48 89 d6             	mov    %rdx,%rsi
  40c1bc:	48 89 c7             	mov    %rax,%rdi
  40c1bf:	e8 4c 63 ff ff       	callq  402510 <_ZNSsC1ERKSs@plt>
  40c1c4:	48 8d 45 e0          	lea    -0x20(%rbp),%rax
  40c1c8:	48 89 c6             	mov    %rax,%rsi
  40c1cb:	48 89 df             	mov    %rbx,%rdi
  40c1ce:	e8 e1 fd ff ff       	callq  40bfb4 <_ZN14ErrorExceptionC1ESs>
  40c1d3:	48 8d 45 e0          	lea    -0x20(%rbp),%rax
  40c1d7:	48 89 c7             	mov    %rax,%rdi
  40c1da:	e8 c1 63 ff ff       	callq  4025a0 <_ZNSsD1Ev@plt>
  40c1df:	ba 3c c0 40 00       	mov    $0x40c03c,%edx
  40c1e4:	be d0 cc 40 00       	mov    $0x40ccd0,%esi
  40c1e9:	48 89 df             	mov    %rbx,%rdi
  40c1ec:	e8 cf 65 ff ff       	callq  4027c0 <__cxa_throw@plt>
  40c1f1:	49 89 c4             	mov    %rax,%r12
  40c1f4:	48 8d 45 e0          	lea    -0x20(%rbp),%rax
  40c1f8:	48 89 c7             	mov    %rax,%rdi
  40c1fb:	e8 a0 63 ff ff       	callq  4025a0 <_ZNSsD1Ev@plt>
  40c200:	eb 03                	jmp    40c205 <_Z5errorSs+0x70>
  40c202:	49 89 c4             	mov    %rax,%r12
  40c205:	48 89 df             	mov    %rbx,%rdi
  40c208:	e8 43 65 ff ff       	callq  402750 <__cxa_free_exception@plt>
  40c20d:	4c 89 e0             	mov    %r12,%rax
  40c210:	48 89 c7             	mov    %rax,%rdi
  40c213:	e8 b8 66 ff ff       	callq  4028d0 <_Unwind_Resume@plt>

000000000040c218 <_Z41__static_initialization_and_destruction_0ii>:
  40c218:	55                   	push   %rbp
  40c219:	48 89 e5             	mov    %rsp,%rbp
  40c21c:	48 83 ec 10          	sub    $0x10,%rsp
  40c220:	89 7d fc             	mov    %edi,-0x4(%rbp)
  40c223:	89 75 f8             	mov    %esi,-0x8(%rbp)
  40c226:	83 7d fc 01          	cmpl   $0x1,-0x4(%rbp)
  40c22a:	75 27                	jne    40c253 <_Z41__static_initialization_and_destruction_0ii+0x3b>
  40c22c:	81 7d f8 ff ff 00 00 	cmpl   $0xffff,-0x8(%rbp)
  40c233:	75 1e                	jne    40c253 <_Z41__static_initialization_and_destruction_0ii+0x3b>
  40c235:	bf f8 26 61 00       	mov    $0x6126f8,%edi
  40c23a:	e8 71 62 ff ff       	callq  4024b0 <_ZNSt8ios_base4InitC1Ev@plt>
  40c23f:	ba 30 23 61 00       	mov    $0x612330,%edx
  40c244:	be f8 26 61 00       	mov    $0x6126f8,%esi
  40c249:	bf 80 25 40 00       	mov    $0x402580,%edi
  40c24e:	e8 dd 62 ff ff       	callq  402530 <__cxa_atexit@plt>
  40c253:	c9                   	leaveq 
  40c254:	c3                   	retq   

000000000040c255 <_GLOBAL__sub_I__ZN14ErrorExceptionC2ESs>:
  40c255:	55                   	push   %rbp
  40c256:	48 89 e5             	mov    %rsp,%rbp
  40c259:	be ff ff 00 00       	mov    $0xffff,%esi
  40c25e:	bf 01 00 00 00       	mov    $0x1,%edi
  40c263:	e8 b0 ff ff ff       	callq  40c218 <_Z41__static_initialization_and_destruction_0ii>
  40c268:	5d                   	pop    %rbp
  40c269:	c3                   	retq   

000000000040c26a <_ZNSt9exceptionC1Ev>:
  40c26a:	55                   	push   %rbp
  40c26b:	48 89 e5             	mov    %rsp,%rbp
  40c26e:	48 89 7d f8          	mov    %rdi,-0x8(%rbp)
  40c272:	48 8b 45 f8          	mov    -0x8(%rbp),%rax
  40c276:	48 c7 00 70 24 61 00 	movq   $0x612470,(%rax)
  40c27d:	5d                   	pop    %rbp
  40c27e:	c3                   	retq   
  40c27f:	90                   	nop

000000000040c280 <__libc_csu_init>:
  40c280:	41 57                	push   %r15
  40c282:	41 89 ff             	mov    %edi,%r15d
  40c285:	41 56                	push   %r14
  40c287:	49 89 f6             	mov    %rsi,%r14
  40c28a:	41 55                	push   %r13
  40c28c:	49 89 d5             	mov    %rdx,%r13
  40c28f:	41 54                	push   %r12
  40c291:	4c 8d 25 38 5b 20 00 	lea    0x205b38(%rip),%r12        # 611dd0 <__frame_dummy_init_array_entry>
  40c298:	55                   	push   %rbp
  40c299:	48 8d 2d 58 5b 20 00 	lea    0x205b58(%rip),%rbp        # 611df8 <__init_array_end>
  40c2a0:	53                   	push   %rbx
  40c2a1:	4c 29 e5             	sub    %r12,%rbp
  40c2a4:	31 db                	xor    %ebx,%ebx
  40c2a6:	48 c1 fd 03          	sar    $0x3,%rbp
  40c2aa:	48 83 ec 08          	sub    $0x8,%rsp
  40c2ae:	e8 6d 60 ff ff       	callq  402320 <_init>
  40c2b3:	48 85 ed             	test   %rbp,%rbp
  40c2b6:	74 1e                	je     40c2d6 <__libc_csu_init+0x56>
  40c2b8:	0f 1f 84 00 00 00 00 	nopl   0x0(%rax,%rax,1)
  40c2bf:	00 
  40c2c0:	4c 89 ea             	mov    %r13,%rdx
  40c2c3:	4c 89 f6             	mov    %r14,%rsi
  40c2c6:	44 89 ff             	mov    %r15d,%edi
  40c2c9:	41 ff 14 dc          	callq  *(%r12,%rbx,8)
  40c2cd:	48 83 c3 01          	add    $0x1,%rbx
  40c2d1:	48 39 eb             	cmp    %rbp,%rbx
  40c2d4:	75 ea                	jne    40c2c0 <__libc_csu_init+0x40>
  40c2d6:	48 83 c4 08          	add    $0x8,%rsp
  40c2da:	5b                   	pop    %rbx
  40c2db:	5d                   	pop    %rbp
  40c2dc:	41 5c                	pop    %r12
  40c2de:	41 5d                	pop    %r13
  40c2e0:	41 5e                	pop    %r14
  40c2e2:	41 5f                	pop    %r15
  40c2e4:	c3                   	retq   
  40c2e5:	66 66 2e 0f 1f 84 00 	data32 nopw %cs:0x0(%rax,%rax,1)
  40c2ec:	00 00 00 00 

000000000040c2f0 <__libc_csu_fini>:
  40c2f0:	f3 c3                	repz retq 

Disassembly of section .fini:

000000000040c2f4 <_fini>:
  40c2f4:	48 83 ec 08          	sub    $0x8,%rsp
  40c2f8:	48 83 c4 08          	add    $0x8,%rsp
  40c2fc:	c3                   	retq   
