
WordLadder-Demo-64:     file format elf64-x86-64


Disassembly of section .init:

0000000000402320 <_init>:
  402320:	48 83 ec 08          	sub    $0x8,%rsp
  402324:	48 8b 05 cd fc 20 00 	mov    0x20fccd(%rip),%rax        # 611ff8 <_DYNAMIC+0x1f0>
  40232b:	48 85 c0             	test   %rax,%rax
  40232e:	74 05                	je     402335 <_init+0x15>
  402330:	e8 fb 00 00 00       	callq  402430 <__gmon_start__@plt>
  402335:	48 83 c4 08          	add    $0x8,%rsp
  402339:	c3                   	retq   

Disassembly of section .plt:

0000000000402340 <_ZNSs6appendEPKcm@plt-0x10>:
  402340:	ff 35 c2 fc 20 00    	pushq  0x20fcc2(%rip)        # 612008 <_GLOBAL_OFFSET_TABLE_+0x8>
  402346:	ff 25 c4 fc 20 00    	jmpq   *0x20fcc4(%rip)        # 612010 <_GLOBAL_OFFSET_TABLE_+0x10>
  40234c:	0f 1f 40 00          	nopl   0x0(%rax)

0000000000402350 <_ZNSs6appendEPKcm@plt>:
  402350:	ff 25 c2 fc 20 00    	jmpq   *0x20fcc2(%rip)        # 612018 <_GLOBAL_OFFSET_TABLE_+0x18>
  402356:	68 00 00 00 00       	pushq  $0x0
  40235b:	e9 e0 ff ff ff       	jmpq   402340 <_init+0x20>

0000000000402360 <_ZNSirsEPFRSiS_E@plt>:
  402360:	ff 25 ba fc 20 00    	jmpq   *0x20fcba(%rip)        # 612020 <_GLOBAL_OFFSET_TABLE_+0x20>
  402366:	68 01 00 00 00       	pushq  $0x1
  40236b:	e9 d0 ff ff ff       	jmpq   402340 <_init+0x20>

0000000000402370 <_ZSt20__throw_length_errorPKc@plt>:
  402370:	ff 25 b2 fc 20 00    	jmpq   *0x20fcb2(%rip)        # 612028 <_GLOBAL_OFFSET_TABLE_+0x28>
  402376:	68 02 00 00 00       	pushq  $0x2
  40237b:	e9 c0 ff ff ff       	jmpq   402340 <_init+0x20>

0000000000402380 <_ZNSolsEd@plt>:
  402380:	ff 25 aa fc 20 00    	jmpq   *0x20fcaa(%rip)        # 612030 <_GLOBAL_OFFSET_TABLE_+0x30>
  402386:	68 03 00 00 00       	pushq  $0x3
  40238b:	e9 b0 ff ff ff       	jmpq   402340 <_init+0x20>

0000000000402390 <_ZNSsaSEPKc@plt>:
  402390:	ff 25 a2 fc 20 00    	jmpq   *0x20fca2(%rip)        # 612038 <_GLOBAL_OFFSET_TABLE_+0x38>
  402396:	68 04 00 00 00       	pushq  $0x4
  40239b:	e9 a0 ff ff ff       	jmpq   402340 <_init+0x20>

00000000004023a0 <_ZNSsC1Ev@plt>:
  4023a0:	ff 25 9a fc 20 00    	jmpq   *0x20fc9a(%rip)        # 612040 <_GLOBAL_OFFSET_TABLE_+0x40>
  4023a6:	68 05 00 00 00       	pushq  $0x5
  4023ab:	e9 90 ff ff ff       	jmpq   402340 <_init+0x20>

00000000004023b0 <_ZNSt14basic_ifstreamIcSt11char_traitsIcEE5closeEv@plt>:
  4023b0:	ff 25 92 fc 20 00    	jmpq   *0x20fc92(%rip)        # 612048 <_GLOBAL_OFFSET_TABLE_+0x48>
  4023b6:	68 06 00 00 00       	pushq  $0x6
  4023bb:	e9 80 ff ff ff       	jmpq   402340 <_init+0x20>

00000000004023c0 <_ZNSolsEi@plt>:
  4023c0:	ff 25 8a fc 20 00    	jmpq   *0x20fc8a(%rip)        # 612050 <_GLOBAL_OFFSET_TABLE_+0x50>
  4023c6:	68 07 00 00 00       	pushq  $0x7
  4023cb:	e9 70 ff ff ff       	jmpq   402340 <_init+0x20>

00000000004023d0 <_ZNSirsERd@plt>:
  4023d0:	ff 25 82 fc 20 00    	jmpq   *0x20fc82(%rip)        # 612058 <_GLOBAL_OFFSET_TABLE_+0x58>
  4023d6:	68 08 00 00 00       	pushq  $0x8
  4023db:	e9 60 ff ff ff       	jmpq   402340 <_init+0x20>

00000000004023e0 <_ZNSi5ungetEv@plt>:
  4023e0:	ff 25 7a fc 20 00    	jmpq   *0x20fc7a(%rip)        # 612060 <_GLOBAL_OFFSET_TABLE_+0x60>
  4023e6:	68 09 00 00 00       	pushq  $0x9
  4023eb:	e9 50 ff ff ff       	jmpq   402340 <_init+0x20>

00000000004023f0 <_ZNKSs6substrEmm@plt>:
  4023f0:	ff 25 72 fc 20 00    	jmpq   *0x20fc72(%rip)        # 612068 <_GLOBAL_OFFSET_TABLE_+0x68>
  4023f6:	68 0a 00 00 00       	pushq  $0xa
  4023fb:	e9 40 ff ff ff       	jmpq   402340 <_init+0x20>

0000000000402400 <_ZNKSt9basic_iosIcSt11char_traitsIcEEcvPvEv@plt>:
  402400:	ff 25 6a fc 20 00    	jmpq   *0x20fc6a(%rip)        # 612070 <_GLOBAL_OFFSET_TABLE_+0x70>
  402406:	68 0b 00 00 00       	pushq  $0xb
  40240b:	e9 30 ff ff ff       	jmpq   402340 <_init+0x20>

0000000000402410 <_ZNSspLEc@plt>:
  402410:	ff 25 62 fc 20 00    	jmpq   *0x20fc62(%rip)        # 612078 <_GLOBAL_OFFSET_TABLE_+0x78>
  402416:	68 0c 00 00 00       	pushq  $0xc
  40241b:	e9 20 ff ff ff       	jmpq   402340 <_init+0x20>

0000000000402420 <_ZSt7getlineIcSt11char_traitsIcESaIcEERSt13basic_istreamIT_T0_ES7_RSbIS4_S5_T1_E@plt>:
  402420:	ff 25 5a fc 20 00    	jmpq   *0x20fc5a(%rip)        # 612080 <_GLOBAL_OFFSET_TABLE_+0x80>
  402426:	68 0d 00 00 00       	pushq  $0xd
  40242b:	e9 10 ff ff ff       	jmpq   402340 <_init+0x20>

0000000000402430 <__gmon_start__@plt>:
  402430:	ff 25 52 fc 20 00    	jmpq   *0x20fc52(%rip)        # 612088 <_GLOBAL_OFFSET_TABLE_+0x88>
  402436:	68 0e 00 00 00       	pushq  $0xe
  40243b:	e9 00 ff ff ff       	jmpq   402340 <_init+0x20>

0000000000402440 <_ZNKSs5c_strEv@plt>:
  402440:	ff 25 4a fc 20 00    	jmpq   *0x20fc4a(%rip)        # 612090 <_GLOBAL_OFFSET_TABLE_+0x90>
  402446:	68 0f 00 00 00       	pushq  $0xf
  40244b:	e9 f0 fe ff ff       	jmpq   402340 <_init+0x20>

0000000000402450 <_Znam@plt>:
  402450:	ff 25 42 fc 20 00    	jmpq   *0x20fc42(%rip)        # 612098 <_GLOBAL_OFFSET_TABLE_+0x98>
  402456:	68 10 00 00 00       	pushq  $0x10
  40245b:	e9 e0 fe ff ff       	jmpq   402340 <_init+0x20>

0000000000402460 <_ZdlPv@plt>:
  402460:	ff 25 3a fc 20 00    	jmpq   *0x20fc3a(%rip)        # 6120a0 <_GLOBAL_OFFSET_TABLE_+0xa0>
  402466:	68 11 00 00 00       	pushq  $0x11
  40246b:	e9 d0 fe ff ff       	jmpq   402340 <_init+0x20>

0000000000402470 <_ZNSs7reserveEm@plt>:
  402470:	ff 25 32 fc 20 00    	jmpq   *0x20fc32(%rip)        # 6120a8 <_GLOBAL_OFFSET_TABLE_+0xa8>
  402476:	68 12 00 00 00       	pushq  $0x12
  40247b:	e9 c0 fe ff ff       	jmpq   402340 <_init+0x20>

0000000000402480 <toupper@plt>:
  402480:	ff 25 2a fc 20 00    	jmpq   *0x20fc2a(%rip)        # 6120b0 <_GLOBAL_OFFSET_TABLE_+0xb0>
  402486:	68 13 00 00 00       	pushq  $0x13
  40248b:	e9 b0 fe ff ff       	jmpq   402340 <_init+0x20>

0000000000402490 <__cxa_rethrow@plt>:
  402490:	ff 25 22 fc 20 00    	jmpq   *0x20fc22(%rip)        # 6120b8 <_GLOBAL_OFFSET_TABLE_+0xb8>
  402496:	68 14 00 00 00       	pushq  $0x14
  40249b:	e9 a0 fe ff ff       	jmpq   402340 <_init+0x20>

00000000004024a0 <_ZNKSs4sizeEv@plt>:
  4024a0:	ff 25 1a fc 20 00    	jmpq   *0x20fc1a(%rip)        # 6120c0 <_GLOBAL_OFFSET_TABLE_+0xc0>
  4024a6:	68 15 00 00 00       	pushq  $0x15
  4024ab:	e9 90 fe ff ff       	jmpq   402340 <_init+0x20>

00000000004024b0 <_ZNSt8ios_base4InitC1Ev@plt>:
  4024b0:	ff 25 12 fc 20 00    	jmpq   *0x20fc12(%rip)        # 6120c8 <_GLOBAL_OFFSET_TABLE_+0xc8>
  4024b6:	68 16 00 00 00       	pushq  $0x16
  4024bb:	e9 80 fe ff ff       	jmpq   402340 <_init+0x20>

00000000004024c0 <strncmp@plt>:
  4024c0:	ff 25 0a fc 20 00    	jmpq   *0x20fc0a(%rip)        # 6120d0 <_GLOBAL_OFFSET_TABLE_+0xd0>
  4024c6:	68 17 00 00 00       	pushq  $0x17
  4024cb:	e9 70 fe ff ff       	jmpq   402340 <_init+0x20>

00000000004024d0 <fopen@plt>:
  4024d0:	ff 25 02 fc 20 00    	jmpq   *0x20fc02(%rip)        # 6120d8 <_GLOBAL_OFFSET_TABLE_+0xd8>
  4024d6:	68 18 00 00 00       	pushq  $0x18
  4024db:	e9 60 fe ff ff       	jmpq   402340 <_init+0x20>

00000000004024e0 <__libc_start_main@plt>:
  4024e0:	ff 25 fa fb 20 00    	jmpq   *0x20fbfa(%rip)        # 6120e0 <_GLOBAL_OFFSET_TABLE_+0xe0>
  4024e6:	68 19 00 00 00       	pushq  $0x19
  4024eb:	e9 50 fe ff ff       	jmpq   402340 <_init+0x20>

00000000004024f0 <_ZNKSt19basic_ostringstreamIcSt11char_traitsIcESaIcEE3strEv@plt>:
  4024f0:	ff 25 f2 fb 20 00    	jmpq   *0x20fbf2(%rip)        # 6120e8 <_GLOBAL_OFFSET_TABLE_+0xe8>
  4024f6:	68 1a 00 00 00       	pushq  $0x1a
  4024fb:	e9 40 fe ff ff       	jmpq   402340 <_init+0x20>

0000000000402500 <_ZNKSs7compareERKSs@plt>:
  402500:	ff 25 ea fb 20 00    	jmpq   *0x20fbea(%rip)        # 6120f0 <_GLOBAL_OFFSET_TABLE_+0xf0>
  402506:	68 1b 00 00 00       	pushq  $0x1b
  40250b:	e9 30 fe ff ff       	jmpq   402340 <_init+0x20>

0000000000402510 <_ZNSsC1ERKSs@plt>:
  402510:	ff 25 e2 fb 20 00    	jmpq   *0x20fbe2(%rip)        # 6120f8 <_GLOBAL_OFFSET_TABLE_+0xf8>
  402516:	68 1c 00 00 00       	pushq  $0x1c
  40251b:	e9 20 fe ff ff       	jmpq   402340 <_init+0x20>

0000000000402520 <_ZNSi5seekgESt4fposI11__mbstate_tE@plt>:
  402520:	ff 25 da fb 20 00    	jmpq   *0x20fbda(%rip)        # 612100 <_GLOBAL_OFFSET_TABLE_+0x100>
  402526:	68 1d 00 00 00       	pushq  $0x1d
  40252b:	e9 10 fe ff ff       	jmpq   402340 <_init+0x20>

0000000000402530 <__cxa_atexit@plt>:
  402530:	ff 25 d2 fb 20 00    	jmpq   *0x20fbd2(%rip)        # 612108 <_GLOBAL_OFFSET_TABLE_+0x108>
  402536:	68 1e 00 00 00       	pushq  $0x1e
  40253b:	e9 00 fe ff ff       	jmpq   402340 <_init+0x20>

0000000000402540 <_ZSt20__throw_out_of_rangePKc@plt>:
  402540:	ff 25 ca fb 20 00    	jmpq   *0x20fbca(%rip)        # 612110 <_GLOBAL_OFFSET_TABLE_+0x110>
  402546:	68 1f 00 00 00       	pushq  $0x1f
  40254b:	e9 f0 fd ff ff       	jmpq   402340 <_init+0x20>

0000000000402550 <_ZStlsISt11char_traitsIcEERSt13basic_ostreamIcT_ES5_c@plt>:
  402550:	ff 25 c2 fb 20 00    	jmpq   *0x20fbc2(%rip)        # 612118 <_GLOBAL_OFFSET_TABLE_+0x118>
  402556:	68 20 00 00 00       	pushq  $0x20
  40255b:	e9 e0 fd ff ff       	jmpq   402340 <_init+0x20>

0000000000402560 <_ZNSi4readEPcl@plt>:
  402560:	ff 25 ba fb 20 00    	jmpq   *0x20fbba(%rip)        # 612120 <_GLOBAL_OFFSET_TABLE_+0x120>
  402566:	68 21 00 00 00       	pushq  $0x21
  40256b:	e9 d0 fd ff ff       	jmpq   402340 <_init+0x20>

0000000000402570 <_ZNKSs6lengthEv@plt>:
  402570:	ff 25 b2 fb 20 00    	jmpq   *0x20fbb2(%rip)        # 612128 <_GLOBAL_OFFSET_TABLE_+0x128>
  402576:	68 22 00 00 00       	pushq  $0x22
  40257b:	e9 c0 fd ff ff       	jmpq   402340 <_init+0x20>

0000000000402580 <_ZNSt8ios_base4InitD1Ev@plt>:
  402580:	ff 25 aa fb 20 00    	jmpq   *0x20fbaa(%rip)        # 612130 <_GLOBAL_OFFSET_TABLE_+0x130>
  402586:	68 23 00 00 00       	pushq  $0x23
  40258b:	e9 b0 fd ff ff       	jmpq   402340 <_init+0x20>

0000000000402590 <_ZStlsISt11char_traitsIcEERSt13basic_ostreamIcT_ES5_PKc@plt>:
  402590:	ff 25 a2 fb 20 00    	jmpq   *0x20fba2(%rip)        # 612138 <_GLOBAL_OFFSET_TABLE_+0x138>
  402596:	68 24 00 00 00       	pushq  $0x24
  40259b:	e9 a0 fd ff ff       	jmpq   402340 <_init+0x20>

00000000004025a0 <_ZNSsD1Ev@plt>:
  4025a0:	ff 25 9a fb 20 00    	jmpq   *0x20fb9a(%rip)        # 612140 <_GLOBAL_OFFSET_TABLE_+0x140>
  4025a6:	68 25 00 00 00       	pushq  $0x25
  4025ab:	e9 90 fd ff ff       	jmpq   402340 <_init+0x20>

00000000004025b0 <fputc@plt>:
  4025b0:	ff 25 92 fb 20 00    	jmpq   *0x20fb92(%rip)        # 612148 <_GLOBAL_OFFSET_TABLE_+0x148>
  4025b6:	68 26 00 00 00       	pushq  $0x26
  4025bb:	e9 80 fd ff ff       	jmpq   402340 <_init+0x20>

00000000004025c0 <_ZNKSs5emptyEv@plt>:
  4025c0:	ff 25 8a fb 20 00    	jmpq   *0x20fb8a(%rip)        # 612150 <_GLOBAL_OFFSET_TABLE_+0x150>
  4025c6:	68 27 00 00 00       	pushq  $0x27
  4025cb:	e9 70 fd ff ff       	jmpq   402340 <_init+0x20>

00000000004025d0 <_ZNKSt9basic_iosIcSt11char_traitsIcEEntEv@plt>:
  4025d0:	ff 25 82 fb 20 00    	jmpq   *0x20fb82(%rip)        # 612158 <_GLOBAL_OFFSET_TABLE_+0x158>
  4025d6:	68 28 00 00 00       	pushq  $0x28
  4025db:	e9 60 fd ff ff       	jmpq   402340 <_init+0x20>

00000000004025e0 <_ZNSi3getERc@plt>:
  4025e0:	ff 25 7a fb 20 00    	jmpq   *0x20fb7a(%rip)        # 612160 <_GLOBAL_OFFSET_TABLE_+0x160>
  4025e6:	68 29 00 00 00       	pushq  $0x29
  4025eb:	e9 50 fd ff ff       	jmpq   402340 <_init+0x20>

00000000004025f0 <_ZNSs6appendEmc@plt>:
  4025f0:	ff 25 72 fb 20 00    	jmpq   *0x20fb72(%rip)        # 612168 <_GLOBAL_OFFSET_TABLE_+0x168>
  4025f6:	68 2a 00 00 00       	pushq  $0x2a
  4025fb:	e9 40 fd ff ff       	jmpq   402340 <_init+0x20>

0000000000402600 <_ZNKSs4findEcm@plt>:
  402600:	ff 25 6a fb 20 00    	jmpq   *0x20fb6a(%rip)        # 612170 <_GLOBAL_OFFSET_TABLE_+0x170>
  402606:	68 2b 00 00 00       	pushq  $0x2b
  40260b:	e9 30 fd ff ff       	jmpq   402340 <_init+0x20>

0000000000402610 <_ZNKSs7compareEPKc@plt>:
  402610:	ff 25 62 fb 20 00    	jmpq   *0x20fb62(%rip)        # 612178 <_GLOBAL_OFFSET_TABLE_+0x178>
  402616:	68 2c 00 00 00       	pushq  $0x2c
  40261b:	e9 20 fd ff ff       	jmpq   402340 <_init+0x20>

0000000000402620 <_ZNSsC1EPKcRKSaIcE@plt>:
  402620:	ff 25 5a fb 20 00    	jmpq   *0x20fb5a(%rip)        # 612180 <_GLOBAL_OFFSET_TABLE_+0x180>
  402626:	68 2d 00 00 00       	pushq  $0x2d
  40262b:	e9 10 fd ff ff       	jmpq   402340 <_init+0x20>

0000000000402630 <_ZNSt14basic_ifstreamIcSt11char_traitsIcEED1Ev@plt>:
  402630:	ff 25 52 fb 20 00    	jmpq   *0x20fb52(%rip)        # 612188 <_GLOBAL_OFFSET_TABLE_+0x188>
  402636:	68 2e 00 00 00       	pushq  $0x2e
  40263b:	e9 00 fd ff ff       	jmpq   402340 <_init+0x20>

0000000000402640 <__cxa_call_unexpected@plt>:
  402640:	ff 25 4a fb 20 00    	jmpq   *0x20fb4a(%rip)        # 612190 <_GLOBAL_OFFSET_TABLE_+0x190>
  402646:	68 2f 00 00 00       	pushq  $0x2f
  40264b:	e9 f0 fc ff ff       	jmpq   402340 <_init+0x20>

0000000000402650 <_ZNSsixEm@plt>:
  402650:	ff 25 42 fb 20 00    	jmpq   *0x20fb42(%rip)        # 612198 <_GLOBAL_OFFSET_TABLE_+0x198>
  402656:	68 30 00 00 00       	pushq  $0x30
  40265b:	e9 e0 fc ff ff       	jmpq   402340 <_init+0x20>

0000000000402660 <_ZNSi3getEv@plt>:
  402660:	ff 25 3a fb 20 00    	jmpq   *0x20fb3a(%rip)        # 6121a0 <_GLOBAL_OFFSET_TABLE_+0x1a0>
  402666:	68 31 00 00 00       	pushq  $0x31
  40266b:	e9 d0 fc ff ff       	jmpq   402340 <_init+0x20>

0000000000402670 <_ZNKSt9basic_iosIcSt11char_traitsIcEE3eofEv@plt>:
  402670:	ff 25 32 fb 20 00    	jmpq   *0x20fb32(%rip)        # 6121a8 <_GLOBAL_OFFSET_TABLE_+0x1a8>
  402676:	68 32 00 00 00       	pushq  $0x32
  40267b:	e9 c0 fc ff ff       	jmpq   402340 <_init+0x20>

0000000000402680 <__cxa_pure_virtual@plt>:
  402680:	ff 25 2a fb 20 00    	jmpq   *0x20fb2a(%rip)        # 6121b0 <_GLOBAL_OFFSET_TABLE_+0x1b0>
  402686:	68 33 00 00 00       	pushq  $0x33
  40268b:	e9 b0 fc ff ff       	jmpq   402340 <_init+0x20>

0000000000402690 <_ZNSt19basic_istringstreamIcSt11char_traitsIcESaIcEED1Ev@plt>:
  402690:	ff 25 22 fb 20 00    	jmpq   *0x20fb22(%rip)        # 6121b8 <_GLOBAL_OFFSET_TABLE_+0x1b8>
  402696:	68 34 00 00 00       	pushq  $0x34
  40269b:	e9 a0 fc ff ff       	jmpq   402340 <_init+0x20>

00000000004026a0 <memmove@plt>:
  4026a0:	ff 25 1a fb 20 00    	jmpq   *0x20fb1a(%rip)        # 6121c0 <_GLOBAL_OFFSET_TABLE_+0x1c0>
  4026a6:	68 35 00 00 00       	pushq  $0x35
  4026ab:	e9 90 fc ff ff       	jmpq   402340 <_init+0x20>

00000000004026b0 <_ZNKSt9basic_iosIcSt11char_traitsIcEE4failEv@plt>:
  4026b0:	ff 25 12 fb 20 00    	jmpq   *0x20fb12(%rip)        # 6121c8 <_GLOBAL_OFFSET_TABLE_+0x1c8>
  4026b6:	68 36 00 00 00       	pushq  $0x36
  4026bb:	e9 80 fc ff ff       	jmpq   402340 <_init+0x20>

00000000004026c0 <_ZNKSs4dataEv@plt>:
  4026c0:	ff 25 0a fb 20 00    	jmpq   *0x20fb0a(%rip)        # 6121d0 <_GLOBAL_OFFSET_TABLE_+0x1d0>
  4026c6:	68 37 00 00 00       	pushq  $0x37
  4026cb:	e9 70 fc ff ff       	jmpq   402340 <_init+0x20>

00000000004026d0 <_ZStlsIcSt11char_traitsIcESaIcEERSt13basic_ostreamIT_T0_ES7_RKSbIS4_S5_T1_E@plt>:
  4026d0:	ff 25 02 fb 20 00    	jmpq   *0x20fb02(%rip)        # 6121d8 <_GLOBAL_OFFSET_TABLE_+0x1d8>
  4026d6:	68 38 00 00 00       	pushq  $0x38
  4026db:	e9 60 fc ff ff       	jmpq   402340 <_init+0x20>

00000000004026e0 <__stack_chk_fail@plt>:
  4026e0:	ff 25 fa fa 20 00    	jmpq   *0x20fafa(%rip)        # 6121e0 <_GLOBAL_OFFSET_TABLE_+0x1e0>
  4026e6:	68 39 00 00 00       	pushq  $0x39
  4026eb:	e9 50 fc ff ff       	jmpq   402340 <_init+0x20>

00000000004026f0 <_ZNSt19basic_ostringstreamIcSt11char_traitsIcESaIcEED1Ev@plt>:
  4026f0:	ff 25 f2 fa 20 00    	jmpq   *0x20faf2(%rip)        # 6121e8 <_GLOBAL_OFFSET_TABLE_+0x1e8>
  4026f6:	68 3a 00 00 00       	pushq  $0x3a
  4026fb:	e9 40 fc ff ff       	jmpq   402340 <_init+0x20>

0000000000402700 <tolower@plt>:
  402700:	ff 25 ea fa 20 00    	jmpq   *0x20faea(%rip)        # 6121f0 <_GLOBAL_OFFSET_TABLE_+0x1f0>
  402706:	68 3b 00 00 00       	pushq  $0x3b
  40270b:	e9 30 fc ff ff       	jmpq   402340 <_init+0x20>

0000000000402710 <_ZNKSs2atEm@plt>:
  402710:	ff 25 e2 fa 20 00    	jmpq   *0x20fae2(%rip)        # 6121f8 <_GLOBAL_OFFSET_TABLE_+0x1f8>
  402716:	68 3c 00 00 00       	pushq  $0x3c
  40271b:	e9 20 fc ff ff       	jmpq   402340 <_init+0x20>

0000000000402720 <__cxa_allocate_exception@plt>:
  402720:	ff 25 da fa 20 00    	jmpq   *0x20fada(%rip)        # 612200 <_GLOBAL_OFFSET_TABLE_+0x200>
  402726:	68 3d 00 00 00       	pushq  $0x3d
  40272b:	e9 10 fc ff ff       	jmpq   402340 <_init+0x20>

0000000000402730 <_ZNSaIcED1Ev@plt>:
  402730:	ff 25 d2 fa 20 00    	jmpq   *0x20fad2(%rip)        # 612208 <_GLOBAL_OFFSET_TABLE_+0x208>
  402736:	68 3e 00 00 00       	pushq  $0x3e
  40273b:	e9 00 fc ff ff       	jmpq   402340 <_init+0x20>

0000000000402740 <_ZNSt9exceptionD2Ev@plt>:
  402740:	ff 25 ca fa 20 00    	jmpq   *0x20faca(%rip)        # 612210 <_GLOBAL_OFFSET_TABLE_+0x210>
  402746:	68 3f 00 00 00       	pushq  $0x3f
  40274b:	e9 f0 fb ff ff       	jmpq   402340 <_init+0x20>

0000000000402750 <__cxa_free_exception@plt>:
  402750:	ff 25 c2 fa 20 00    	jmpq   *0x20fac2(%rip)        # 612218 <_GLOBAL_OFFSET_TABLE_+0x218>
  402756:	68 40 00 00 00       	pushq  $0x40
  40275b:	e9 e0 fb ff ff       	jmpq   402340 <_init+0x20>

0000000000402760 <_ZNSirsERi@plt>:
  402760:	ff 25 ba fa 20 00    	jmpq   *0x20faba(%rip)        # 612220 <_GLOBAL_OFFSET_TABLE_+0x220>
  402766:	68 41 00 00 00       	pushq  $0x41
  40276b:	e9 d0 fb ff ff       	jmpq   402340 <_init+0x20>

0000000000402770 <_ZNKSsixEm@plt>:
  402770:	ff 25 b2 fa 20 00    	jmpq   *0x20fab2(%rip)        # 612228 <_GLOBAL_OFFSET_TABLE_+0x228>
  402776:	68 42 00 00 00       	pushq  $0x42
  40277b:	e9 c0 fb ff ff       	jmpq   402340 <_init+0x20>

0000000000402780 <_ZdaPv@plt>:
  402780:	ff 25 aa fa 20 00    	jmpq   *0x20faaa(%rip)        # 612230 <_GLOBAL_OFFSET_TABLE_+0x230>
  402786:	68 43 00 00 00       	pushq  $0x43
  40278b:	e9 b0 fb ff ff       	jmpq   402340 <_init+0x20>

0000000000402790 <_ZNSs6appendEPKc@plt>:
  402790:	ff 25 a2 fa 20 00    	jmpq   *0x20faa2(%rip)        # 612238 <_GLOBAL_OFFSET_TABLE_+0x238>
  402796:	68 44 00 00 00       	pushq  $0x44
  40279b:	e9 a0 fb ff ff       	jmpq   402340 <_init+0x20>

00000000004027a0 <memcmp@plt>:
  4027a0:	ff 25 9a fa 20 00    	jmpq   *0x20fa9a(%rip)        # 612240 <_GLOBAL_OFFSET_TABLE_+0x240>
  4027a6:	68 45 00 00 00       	pushq  $0x45
  4027ab:	e9 90 fb ff ff       	jmpq   402340 <_init+0x20>

00000000004027b0 <_ZNSt14basic_ifstreamIcSt11char_traitsIcEEC1EPKcSt13_Ios_Openmode@plt>:
  4027b0:	ff 25 92 fa 20 00    	jmpq   *0x20fa92(%rip)        # 612248 <_GLOBAL_OFFSET_TABLE_+0x248>
  4027b6:	68 46 00 00 00       	pushq  $0x46
  4027bb:	e9 80 fb ff ff       	jmpq   402340 <_init+0x20>

00000000004027c0 <__cxa_throw@plt>:
  4027c0:	ff 25 8a fa 20 00    	jmpq   *0x20fa8a(%rip)        # 612250 <_GLOBAL_OFFSET_TABLE_+0x250>
  4027c6:	68 47 00 00 00       	pushq  $0x47
  4027cb:	e9 70 fb ff ff       	jmpq   402340 <_init+0x20>

00000000004027d0 <_ZNSolsEPFRSoS_E@plt>:
  4027d0:	ff 25 82 fa 20 00    	jmpq   *0x20fa82(%rip)        # 612258 <_GLOBAL_OFFSET_TABLE_+0x258>
  4027d6:	68 48 00 00 00       	pushq  $0x48
  4027db:	e9 60 fb ff ff       	jmpq   402340 <_init+0x20>

00000000004027e0 <_ZNSirsERl@plt>:
  4027e0:	ff 25 7a fa 20 00    	jmpq   *0x20fa7a(%rip)        # 612260 <_GLOBAL_OFFSET_TABLE_+0x260>
  4027e6:	68 49 00 00 00       	pushq  $0x49
  4027eb:	e9 50 fb ff ff       	jmpq   402340 <_init+0x20>

00000000004027f0 <isspace@plt>:
  4027f0:	ff 25 72 fa 20 00    	jmpq   *0x20fa72(%rip)        # 612268 <_GLOBAL_OFFSET_TABLE_+0x268>
  4027f6:	68 4a 00 00 00       	pushq  $0x4a
  4027fb:	e9 40 fb ff ff       	jmpq   402340 <_init+0x20>

0000000000402800 <_ZNSt19basic_istringstreamIcSt11char_traitsIcESaIcEEC1ERKSsSt13_Ios_Openmode@plt>:
  402800:	ff 25 6a fa 20 00    	jmpq   *0x20fa6a(%rip)        # 612270 <_GLOBAL_OFFSET_TABLE_+0x270>
  402806:	68 4b 00 00 00       	pushq  $0x4b
  40280b:	e9 30 fb ff ff       	jmpq   402340 <_init+0x20>

0000000000402810 <__cxa_end_catch@plt>:
  402810:	ff 25 62 fa 20 00    	jmpq   *0x20fa62(%rip)        # 612278 <_GLOBAL_OFFSET_TABLE_+0x278>
  402816:	68 4c 00 00 00       	pushq  $0x4c
  40281b:	e9 20 fb ff ff       	jmpq   402340 <_init+0x20>

0000000000402820 <_ZSt17__throw_bad_allocv@plt>:
  402820:	ff 25 5a fa 20 00    	jmpq   *0x20fa5a(%rip)        # 612280 <_GLOBAL_OFFSET_TABLE_+0x280>
  402826:	68 4d 00 00 00       	pushq  $0x4d
  40282b:	e9 10 fb ff ff       	jmpq   402340 <_init+0x20>

0000000000402830 <isxdigit@plt>:
  402830:	ff 25 52 fa 20 00    	jmpq   *0x20fa52(%rip)        # 612288 <_GLOBAL_OFFSET_TABLE_+0x288>
  402836:	68 4e 00 00 00       	pushq  $0x4e
  40283b:	e9 00 fb ff ff       	jmpq   402340 <_init+0x20>

0000000000402840 <_ZSt4endlIcSt11char_traitsIcEERSt13basic_ostreamIT_T0_ES6_@plt>:
  402840:	ff 25 4a fa 20 00    	jmpq   *0x20fa4a(%rip)        # 612290 <_GLOBAL_OFFSET_TABLE_+0x290>
  402846:	68 4f 00 00 00       	pushq  $0x4f
  40284b:	e9 f0 fa ff ff       	jmpq   402340 <_init+0x20>

0000000000402850 <__cxa_begin_catch@plt>:
  402850:	ff 25 42 fa 20 00    	jmpq   *0x20fa42(%rip)        # 612298 <_GLOBAL_OFFSET_TABLE_+0x298>
  402856:	68 50 00 00 00       	pushq  $0x50
  40285b:	e9 e0 fa ff ff       	jmpq   402340 <_init+0x20>

0000000000402860 <_ZNSs9push_backEc@plt>:
  402860:	ff 25 3a fa 20 00    	jmpq   *0x20fa3a(%rip)        # 6122a0 <_GLOBAL_OFFSET_TABLE_+0x2a0>
  402866:	68 51 00 00 00       	pushq  $0x51
  40286b:	e9 d0 fa ff ff       	jmpq   402340 <_init+0x20>

0000000000402870 <_ZNSaIcEC1Ev@plt>:
  402870:	ff 25 32 fa 20 00    	jmpq   *0x20fa32(%rip)        # 6122a8 <_GLOBAL_OFFSET_TABLE_+0x2a8>
  402876:	68 52 00 00 00       	pushq  $0x52
  40287b:	e9 c0 fa ff ff       	jmpq   402340 <_init+0x20>

0000000000402880 <__gxx_personality_v0@plt>:
  402880:	ff 25 2a fa 20 00    	jmpq   *0x20fa2a(%rip)        # 6122b0 <_GLOBAL_OFFSET_TABLE_+0x2b0>
  402886:	68 53 00 00 00       	pushq  $0x53
  40288b:	e9 b0 fa ff ff       	jmpq   402340 <_init+0x20>

0000000000402890 <_ZNSt19basic_ostringstreamIcSt11char_traitsIcESaIcEEC1ESt13_Ios_Openmode@plt>:
  402890:	ff 25 22 fa 20 00    	jmpq   *0x20fa22(%rip)        # 6122b8 <_GLOBAL_OFFSET_TABLE_+0x2b8>
  402896:	68 54 00 00 00       	pushq  $0x54
  40289b:	e9 a0 fa ff ff       	jmpq   402340 <_init+0x20>

00000000004028a0 <fprintf@plt>:
  4028a0:	ff 25 1a fa 20 00    	jmpq   *0x20fa1a(%rip)        # 6122c0 <_GLOBAL_OFFSET_TABLE_+0x2c0>
  4028a6:	68 55 00 00 00       	pushq  $0x55
  4028ab:	e9 90 fa ff ff       	jmpq   402340 <_init+0x20>

00000000004028b0 <_ZNSs6resizeEm@plt>:
  4028b0:	ff 25 12 fa 20 00    	jmpq   *0x20fa12(%rip)        # 6122c8 <_GLOBAL_OFFSET_TABLE_+0x2c8>
  4028b6:	68 56 00 00 00       	pushq  $0x56
  4028bb:	e9 80 fa ff ff       	jmpq   402340 <_init+0x20>

00000000004028c0 <_Znwm@plt>:
  4028c0:	ff 25 0a fa 20 00    	jmpq   *0x20fa0a(%rip)        # 6122d0 <_GLOBAL_OFFSET_TABLE_+0x2d0>
  4028c6:	68 57 00 00 00       	pushq  $0x57
  4028cb:	e9 70 fa ff ff       	jmpq   402340 <_init+0x20>

00000000004028d0 <_Unwind_Resume@plt>:
  4028d0:	ff 25 02 fa 20 00    	jmpq   *0x20fa02(%rip)        # 6122d8 <_GLOBAL_OFFSET_TABLE_+0x2d8>
  4028d6:	68 58 00 00 00       	pushq  $0x58
  4028db:	e9 60 fa ff ff       	jmpq   402340 <_init+0x20>

00000000004028e0 <_ZNSsaSERKSs@plt>:
  4028e0:	ff 25 fa f9 20 00    	jmpq   *0x20f9fa(%rip)        # 6122e0 <_GLOBAL_OFFSET_TABLE_+0x2e0>
  4028e6:	68 59 00 00 00       	pushq  $0x59
  4028eb:	e9 50 fa ff ff       	jmpq   402340 <_init+0x20>

00000000004028f0 <memcpy@plt>:
  4028f0:	ff 25 f2 f9 20 00    	jmpq   *0x20f9f2(%rip)        # 6122e8 <_GLOBAL_OFFSET_TABLE_+0x2e8>
  4028f6:	68 5a 00 00 00       	pushq  $0x5a
  4028fb:	e9 40 fa ff ff       	jmpq   402340 <_init+0x20>

0000000000402900 <_ZNSolsEPFRSt8ios_baseS0_E@plt>:
  402900:	ff 25 ea f9 20 00    	jmpq   *0x20f9ea(%rip)        # 6122f0 <_GLOBAL_OFFSET_TABLE_+0x2f0>
  402906:	68 5b 00 00 00       	pushq  $0x5b
  40290b:	e9 30 fa ff ff       	jmpq   402340 <_init+0x20>

0000000000402910 <_ZNSs6appendERKSs@plt>:
  402910:	ff 25 e2 f9 20 00    	jmpq   *0x20f9e2(%rip)        # 6122f8 <_GLOBAL_OFFSET_TABLE_+0x2f8>
  402916:	68 5c 00 00 00       	pushq  $0x5c
  40291b:	e9 20 fa ff ff       	jmpq   402340 <_init+0x20>

0000000000402920 <_ZSt2wsIcSt11char_traitsIcEERSt13basic_istreamIT_T0_ES6_@plt>:
  402920:	ff 25 da f9 20 00    	jmpq   *0x20f9da(%rip)        # 612300 <_GLOBAL_OFFSET_TABLE_+0x300>
  402926:	68 5d 00 00 00       	pushq  $0x5d
  40292b:	e9 10 fa ff ff       	jmpq   402340 <_init+0x20>

0000000000402930 <_ZStlsIcSt11char_traitsIcEERSt13basic_ostreamIT_T0_ES6_St5_Setw@plt>:
  402930:	ff 25 d2 f9 20 00    	jmpq   *0x20f9d2(%rip)        # 612308 <_GLOBAL_OFFSET_TABLE_+0x308>
  402936:	68 5e 00 00 00       	pushq  $0x5e
  40293b:	e9 00 fa ff ff       	jmpq   402340 <_init+0x20>

0000000000402940 <_ZStlsIcSt11char_traitsIcEERSt13basic_ostreamIT_T0_ES6_St8_SetfillIS3_E@plt>:
  402940:	ff 25 ca f9 20 00    	jmpq   *0x20f9ca(%rip)        # 612310 <_GLOBAL_OFFSET_TABLE_+0x310>
  402946:	68 5f 00 00 00       	pushq  $0x5f
  40294b:	e9 f0 f9 ff ff       	jmpq   402340 <_init+0x20>

0000000000402950 <isprint@plt>:
  402950:	ff 25 c2 f9 20 00    	jmpq   *0x20f9c2(%rip)        # 612318 <_GLOBAL_OFFSET_TABLE_+0x318>
  402956:	68 60 00 00 00       	pushq  $0x60
  40295b:	e9 e0 f9 ff ff       	jmpq   402340 <_init+0x20>

0000000000402960 <fflush@plt>:
  402960:	ff 25 ba f9 20 00    	jmpq   *0x20f9ba(%rip)        # 612320 <_GLOBAL_OFFSET_TABLE_+0x320>
  402966:	68 61 00 00 00       	pushq  $0x61
  40296b:	e9 d0 f9 ff ff       	jmpq   402340 <_init+0x20>

Disassembly of section .text:

0000000000402970 <_start>:
  402970:	31 ed                	xor    %ebp,%ebp
  402972:	49 89 d1             	mov    %rdx,%r9
  402975:	5e                   	pop    %rsi
  402976:	48 89 e2             	mov    %rsp,%rdx
  402979:	48 83 e4 f0          	and    $0xfffffffffffffff0,%rsp
  40297d:	50                   	push   %rax
  40297e:	54                   	push   %rsp
  40297f:	49 c7 c0 f0 c2 40 00 	mov    $0x40c2f0,%r8
  402986:	48 c7 c1 80 c2 40 00 	mov    $0x40c280,%rcx
  40298d:	48 c7 c7 5d 2a 40 00 	mov    $0x402a5d,%rdi
  402994:	e8 47 fb ff ff       	callq  4024e0 <__libc_start_main@plt>
  402999:	f4                   	hlt    
  40299a:	66 0f 1f 44 00 00    	nopw   0x0(%rax,%rax,1)

00000000004029a0 <deregister_tm_clones>:
  4029a0:	b8 3f 23 61 00       	mov    $0x61233f,%eax
  4029a5:	55                   	push   %rbp
  4029a6:	48 2d 38 23 61 00    	sub    $0x612338,%rax
  4029ac:	48 83 f8 0e          	cmp    $0xe,%rax
  4029b0:	48 89 e5             	mov    %rsp,%rbp
  4029b3:	77 02                	ja     4029b7 <deregister_tm_clones+0x17>
  4029b5:	5d                   	pop    %rbp
  4029b6:	c3                   	retq   
  4029b7:	b8 00 00 00 00       	mov    $0x0,%eax
  4029bc:	48 85 c0             	test   %rax,%rax
  4029bf:	74 f4                	je     4029b5 <deregister_tm_clones+0x15>
  4029c1:	5d                   	pop    %rbp
  4029c2:	bf 38 23 61 00       	mov    $0x612338,%edi
  4029c7:	ff e0                	jmpq   *%rax
  4029c9:	0f 1f 80 00 00 00 00 	nopl   0x0(%rax)

00000000004029d0 <register_tm_clones>:
  4029d0:	b8 38 23 61 00       	mov    $0x612338,%eax
  4029d5:	55                   	push   %rbp
  4029d6:	48 2d 38 23 61 00    	sub    $0x612338,%rax
  4029dc:	48 c1 f8 03          	sar    $0x3,%rax
  4029e0:	48 89 e5             	mov    %rsp,%rbp
  4029e3:	48 89 c2             	mov    %rax,%rdx
  4029e6:	48 c1 ea 3f          	shr    $0x3f,%rdx
  4029ea:	48 01 d0             	add    %rdx,%rax
  4029ed:	48 d1 f8             	sar    %rax
  4029f0:	75 02                	jne    4029f4 <register_tm_clones+0x24>
  4029f2:	5d                   	pop    %rbp
  4029f3:	c3                   	retq   
  4029f4:	ba 00 00 00 00       	mov    $0x0,%edx
  4029f9:	48 85 d2             	test   %rdx,%rdx
  4029fc:	74 f4                	je     4029f2 <register_tm_clones+0x22>
  4029fe:	5d                   	pop    %rbp
  4029ff:	48 89 c6             	mov    %rax,%rsi
  402a02:	bf 38 23 61 00       	mov    $0x612338,%edi
  402a07:	ff e2                	jmpq   *%rdx
  402a09:	0f 1f 80 00 00 00 00 	nopl   0x0(%rax)

0000000000402a10 <__do_global_dtors_aux>:
  402a10:	80 3d 61 fc 20 00 00 	cmpb   $0x0,0x20fc61(%rip)        # 612678 <completed.6972>
  402a17:	75 11                	jne    402a2a <__do_global_dtors_aux+0x1a>
  402a19:	55                   	push   %rbp
  402a1a:	48 89 e5             	mov    %rsp,%rbp
  402a1d:	e8 7e ff ff ff       	callq  4029a0 <deregister_tm_clones>
  402a22:	5d                   	pop    %rbp
  402a23:	c6 05 4e fc 20 00 01 	movb   $0x1,0x20fc4e(%rip)        # 612678 <completed.6972>
  402a2a:	f3 c3                	repz retq 
  402a2c:	0f 1f 40 00          	nopl   0x0(%rax)

0000000000402a30 <frame_dummy>:
  402a30:	48 83 3d c8 f3 20 00 	cmpq   $0x0,0x20f3c8(%rip)        # 611e00 <__JCR_END__>
  402a37:	00 
  402a38:	74 1e                	je     402a58 <frame_dummy+0x28>
  402a3a:	b8 00 00 00 00       	mov    $0x0,%eax
  402a3f:	48 85 c0             	test   %rax,%rax
  402a42:	74 14                	je     402a58 <frame_dummy+0x28>
  402a44:	55                   	push   %rbp
  402a45:	bf 00 1e 61 00       	mov    $0x611e00,%edi
  402a4a:	48 89 e5             	mov    %rsp,%rbp
  402a4d:	ff d0                	callq  *%rax
  402a4f:	5d                   	pop    %rbp
  402a50:	e9 7b ff ff ff       	jmpq   4029d0 <register_tm_clones>
  402a55:	0f 1f 00             	nopl   (%rax)
  402a58:	e9 73 ff ff ff       	jmpq   4029d0 <register_tm_clones>

0000000000402a5d <main>:
  402a5d:	55                   	push   %rbp
  402a5e:	48 89 e5             	mov    %rsp,%rbp
  402a61:	53                   	push   %rbx
  402a62:	48 81 ec 88 00 00 00 	sub    $0x88,%rsp
  402a69:	48 8d 85 70 ff ff ff 	lea    -0x90(%rbp),%rax
  402a70:	48 89 c7             	mov    %rax,%rdi
  402a73:	e8 28 f9 ff ff       	callq  4023a0 <_ZNSsC1Ev@plt>
  402a78:	48 8d 45 80          	lea    -0x80(%rbp),%rax
  402a7c:	48 89 c7             	mov    %rax,%rdi
  402a7f:	e8 1c f9 ff ff       	callq  4023a0 <_ZNSsC1Ev@plt>
  402a84:	be 08 c3 40 00       	mov    $0x40c308,%esi
  402a89:	bf 00 25 61 00       	mov    $0x612500,%edi
  402a8e:	e8 fd fa ff ff       	callq  402590 <_ZStlsISt11char_traitsIcEERSt13basic_ostreamIcT_ES5_PKc@plt>
  402a93:	48 8d 85 70 ff ff ff 	lea    -0x90(%rbp),%rax
  402a9a:	48 89 c6             	mov    %rax,%rsi
  402a9d:	bf 40 23 61 00       	mov    $0x612340,%edi
  402aa2:	e8 79 f9 ff ff       	callq  402420 <_ZSt7getlineIcSt11char_traitsIcESaIcEERSt13basic_istreamIT_T0_ES7_RSbIS4_S5_T1_E@plt>
  402aa7:	48 8d 85 70 ff ff ff 	lea    -0x90(%rbp),%rax
  402aae:	be 2c c3 40 00       	mov    $0x40c32c,%esi
  402ab3:	48 89 c7             	mov    %rax,%rdi
  402ab6:	e8 65 0a 00 00       	callq  403520 <_ZSteqIcSt11char_traitsIcESaIcEEbRKSbIT_T0_T1_EPKS3_>
  402abb:	84 c0                	test   %al,%al
  402abd:	74 14                	je     402ad3 <main+0x76>
  402abf:	be 2d c3 40 00       	mov    $0x40c32d,%esi
  402ac4:	bf 00 25 61 00       	mov    $0x612500,%edi
  402ac9:	e8 c2 fa ff ff       	callq  402590 <_ZStlsISt11char_traitsIcEERSt13basic_ostreamIcT_ES5_PKc@plt>
  402ace:	e9 b4 00 00 00       	jmpq   402b87 <main+0x12a>
  402ad3:	be 37 c3 40 00       	mov    $0x40c337,%esi
  402ad8:	bf 00 25 61 00       	mov    $0x612500,%edi
  402add:	e8 ae fa ff ff       	callq  402590 <_ZStlsISt11char_traitsIcEERSt13basic_ostreamIcT_ES5_PKc@plt>
  402ae2:	48 8d 45 80          	lea    -0x80(%rbp),%rax
  402ae6:	48 89 c6             	mov    %rax,%rsi
  402ae9:	bf 40 23 61 00       	mov    $0x612340,%edi
  402aee:	e8 2d f9 ff ff       	callq  402420 <_ZSt7getlineIcSt11char_traitsIcESaIcEERSt13basic_istreamIT_T0_ES7_RSbIS4_S5_T1_E@plt>
  402af3:	48 8d 55 80          	lea    -0x80(%rbp),%rdx
  402af7:	48 8d 45 a0          	lea    -0x60(%rbp),%rax
  402afb:	48 89 d6             	mov    %rdx,%rsi
  402afe:	48 89 c7             	mov    %rax,%rdi
  402b01:	e8 0a fa ff ff       	callq  402510 <_ZNSsC1ERKSs@plt>
  402b06:	48 8d 95 70 ff ff ff 	lea    -0x90(%rbp),%rdx
  402b0d:	48 8d 45 90          	lea    -0x70(%rbp),%rax
  402b11:	48 89 d6             	mov    %rdx,%rsi
  402b14:	48 89 c7             	mov    %rax,%rdi
  402b17:	e8 f4 f9 ff ff       	callq  402510 <_ZNSsC1ERKSs@plt>
  402b1c:	48 8d 45 b0          	lea    -0x50(%rbp),%rax
  402b20:	48 8d 55 a0          	lea    -0x60(%rbp),%rdx
  402b24:	48 8d 4d 90          	lea    -0x70(%rbp),%rcx
  402b28:	48 89 ce             	mov    %rcx,%rsi
  402b2b:	48 89 c7             	mov    %rax,%rdi
  402b2e:	e8 5e 01 00 00       	callq  402c91 <_Z9getLadderSsSs>
  402b33:	48 8d 45 90          	lea    -0x70(%rbp),%rax
  402b37:	48 89 c7             	mov    %rax,%rdi
  402b3a:	e8 61 fa ff ff       	callq  4025a0 <_ZNSsD1Ev@plt>
  402b3f:	48 8d 45 a0          	lea    -0x60(%rbp),%rax
  402b43:	48 89 c7             	mov    %rax,%rdi
  402b46:	e8 55 fa ff ff       	callq  4025a0 <_ZNSsD1Ev@plt>
  402b4b:	48 8d 55 b0          	lea    -0x50(%rbp),%rdx
  402b4f:	48 8d 45 d0          	lea    -0x30(%rbp),%rax
  402b53:	48 89 d6             	mov    %rdx,%rsi
  402b56:	48 89 c7             	mov    %rax,%rdi
  402b59:	e8 52 0a 00 00       	callq  4035b0 <_ZNSt6vectorISsSaISsEEC1ERKS1_>
  402b5e:	48 8d 45 d0          	lea    -0x30(%rbp),%rax
  402b62:	48 89 c7             	mov    %rax,%rdi
  402b65:	e8 d0 06 00 00       	callq  40323a <_Z11printLadderSt6vectorISsSaISsEE>
  402b6a:	48 8d 45 d0          	lea    -0x30(%rbp),%rax
  402b6e:	48 89 c7             	mov    %rax,%rdi
  402b71:	e8 d4 09 00 00       	callq  40354a <_ZNSt6vectorISsSaISsEED1Ev>
  402b76:	48 8d 45 b0          	lea    -0x50(%rbp),%rax
  402b7a:	48 89 c7             	mov    %rax,%rdi
  402b7d:	e8 c8 09 00 00       	callq  40354a <_ZNSt6vectorISsSaISsEED1Ev>
  402b82:	e9 fd fe ff ff       	jmpq   402a84 <main+0x27>
  402b87:	bb 00 00 00 00       	mov    $0x0,%ebx
  402b8c:	48 8d 45 80          	lea    -0x80(%rbp),%rax
  402b90:	48 89 c7             	mov    %rax,%rdi
  402b93:	e8 08 fa ff ff       	callq  4025a0 <_ZNSsD1Ev@plt>
  402b98:	48 8d 85 70 ff ff ff 	lea    -0x90(%rbp),%rax
  402b9f:	48 89 c7             	mov    %rax,%rdi
  402ba2:	e8 f9 f9 ff ff       	callq  4025a0 <_ZNSsD1Ev@plt>
  402ba7:	89 d8                	mov    %ebx,%eax
  402ba9:	e9 94 00 00 00       	jmpq   402c42 <main+0x1e5>
  402bae:	48 89 c3             	mov    %rax,%rbx
  402bb1:	48 8d 45 90          	lea    -0x70(%rbp),%rax
  402bb5:	48 89 c7             	mov    %rax,%rdi
  402bb8:	e8 e3 f9 ff ff       	callq  4025a0 <_ZNSsD1Ev@plt>
  402bbd:	eb 14                	jmp    402bd3 <main+0x176>
  402bbf:	48 89 c3             	mov    %rax,%rbx
  402bc2:	48 8d 45 b0          	lea    -0x50(%rbp),%rax
  402bc6:	48 89 c7             	mov    %rax,%rdi
  402bc9:	e8 7c 09 00 00       	callq  40354a <_ZNSt6vectorISsSaISsEED1Ev>
  402bce:	eb 03                	jmp    402bd3 <main+0x176>
  402bd0:	48 89 c3             	mov    %rax,%rbx
  402bd3:	48 8d 45 a0          	lea    -0x60(%rbp),%rax
  402bd7:	48 89 c7             	mov    %rax,%rdi
  402bda:	e8 c1 f9 ff ff       	callq  4025a0 <_ZNSsD1Ev@plt>
  402bdf:	eb 36                	jmp    402c17 <main+0x1ba>
  402be1:	48 89 c3             	mov    %rax,%rbx
  402be4:	48 8d 45 b0          	lea    -0x50(%rbp),%rax
  402be8:	48 89 c7             	mov    %rax,%rdi
  402beb:	e8 5a 09 00 00       	callq  40354a <_ZNSt6vectorISsSaISsEED1Ev>
  402bf0:	eb 25                	jmp    402c17 <main+0x1ba>
  402bf2:	48 89 c3             	mov    %rax,%rbx
  402bf5:	48 8d 45 d0          	lea    -0x30(%rbp),%rax
  402bf9:	48 89 c7             	mov    %rax,%rdi
  402bfc:	e8 49 09 00 00       	callq  40354a <_ZNSt6vectorISsSaISsEED1Ev>
  402c01:	eb 03                	jmp    402c06 <main+0x1a9>
  402c03:	48 89 c3             	mov    %rax,%rbx
  402c06:	48 8d 45 b0          	lea    -0x50(%rbp),%rax
  402c0a:	48 89 c7             	mov    %rax,%rdi
  402c0d:	e8 38 09 00 00       	callq  40354a <_ZNSt6vectorISsSaISsEED1Ev>
  402c12:	eb 03                	jmp    402c17 <main+0x1ba>
  402c14:	48 89 c3             	mov    %rax,%rbx
  402c17:	48 8d 45 80          	lea    -0x80(%rbp),%rax
  402c1b:	48 89 c7             	mov    %rax,%rdi
  402c1e:	e8 7d f9 ff ff       	callq  4025a0 <_ZNSsD1Ev@plt>
  402c23:	eb 03                	jmp    402c28 <main+0x1cb>
  402c25:	48 89 c3             	mov    %rax,%rbx
  402c28:	48 8d 85 70 ff ff ff 	lea    -0x90(%rbp),%rax
  402c2f:	48 89 c7             	mov    %rax,%rdi
  402c32:	e8 69 f9 ff ff       	callq  4025a0 <_ZNSsD1Ev@plt>
  402c37:	48 89 d8             	mov    %rbx,%rax
  402c3a:	48 89 c7             	mov    %rax,%rdi
  402c3d:	e8 8e fc ff ff       	callq  4028d0 <_Unwind_Resume@plt>
  402c42:	48 81 c4 88 00 00 00 	add    $0x88,%rsp
  402c49:	5b                   	pop    %rbx
  402c4a:	5d                   	pop    %rbp
  402c4b:	c3                   	retq   

0000000000402c4c <_Z3logSs>:
  402c4c:	55                   	push   %rbp
  402c4d:	48 89 e5             	mov    %rsp,%rbp
  402c50:	48 83 ec 10          	sub    $0x10,%rsp
  402c54:	48 89 7d f8          	mov    %rdi,-0x8(%rbp)
  402c58:	48 8b 45 f8          	mov    -0x8(%rbp),%rax
  402c5c:	48 89 c7             	mov    %rax,%rdi
  402c5f:	e8 dc f7 ff ff       	callq  402440 <_ZNKSs5c_strEv@plt>
  402c64:	48 89 c2             	mov    %rax,%rdx
  402c67:	48 8b 05 6a fa 20 00 	mov    0x20fa6a(%rip),%rax        # 6126d8 <Log>
  402c6e:	be 50 c3 40 00       	mov    $0x40c350,%esi
  402c73:	48 89 c7             	mov    %rax,%rdi
  402c76:	b8 00 00 00 00       	mov    $0x0,%eax
  402c7b:	e8 20 fc ff ff       	callq  4028a0 <fprintf@plt>
  402c80:	48 8b 05 51 fa 20 00 	mov    0x20fa51(%rip),%rax        # 6126d8 <Log>
  402c87:	48 89 c7             	mov    %rax,%rdi
  402c8a:	e8 d1 fc ff ff       	callq  402960 <fflush@plt>
  402c8f:	c9                   	leaveq 
  402c90:	c3                   	retq   

0000000000402c91 <_Z9getLadderSsSs>:
  402c91:	55                   	push   %rbp
  402c92:	48 89 e5             	mov    %rsp,%rbp
  402c95:	41 55                	push   %r13
  402c97:	41 54                	push   %r12
  402c99:	53                   	push   %rbx
  402c9a:	48 81 ec 48 01 00 00 	sub    $0x148,%rsp
  402ca1:	48 89 bd b8 fe ff ff 	mov    %rdi,-0x148(%rbp)
  402ca8:	48 89 b5 b0 fe ff ff 	mov    %rsi,-0x150(%rbp)
  402caf:	48 89 95 a8 fe ff ff 	mov    %rdx,-0x158(%rbp)
  402cb6:	48 8d 85 30 ff ff ff 	lea    -0xd0(%rbp),%rax
  402cbd:	48 89 c7             	mov    %rax,%rdi
  402cc0:	e8 a9 09 00 00       	callq  40366e <_ZNSt5dequeIPSt6vectorISsSaISsEESaIS3_EEC1Ev>
  402cc5:	48 8d 45 80          	lea    -0x80(%rbp),%rax
  402cc9:	48 89 c7             	mov    %rax,%rdi
  402ccc:	e8 3f 0a 00 00       	callq  403710 <_ZNSaISsEC1Ev>
  402cd1:	4c 8d 65 80          	lea    -0x80(%rbp),%r12
  402cd5:	bf 18 00 00 00       	mov    $0x18,%edi
  402cda:	e8 e1 fb ff ff       	callq  4028c0 <_Znwm@plt>
  402cdf:	48 89 c3             	mov    %rax,%rbx
  402ce2:	48 8b 85 b0 fe ff ff 	mov    -0x150(%rbp),%rax
  402ce9:	4c 89 e1             	mov    %r12,%rcx
  402cec:	48 89 c2             	mov    %rax,%rdx
  402cef:	be 01 00 00 00       	mov    $0x1,%esi
  402cf4:	48 89 df             	mov    %rbx,%rdi
  402cf7:	e8 48 0a 00 00       	callq  403744 <_ZNSt6vectorISsSaISsEEC1EmRKSsRKS0_>
  402cfc:	48 89 9d 18 ff ff ff 	mov    %rbx,-0xe8(%rbp)
  402d03:	48 8d 45 80          	lea    -0x80(%rbp),%rax
  402d07:	48 89 c7             	mov    %rax,%rdi
  402d0a:	e8 1b 0a 00 00       	callq  40372a <_ZNSaISsED1Ev>
  402d0f:	48 8d 45 80          	lea    -0x80(%rbp),%rax
  402d13:	48 89 c7             	mov    %rax,%rdi
  402d16:	e8 7d 33 00 00       	callq  406098 <_ZN7LexiconC1Ev>
  402d1b:	48 8b 95 b0 fe ff ff 	mov    -0x150(%rbp),%rdx
  402d22:	48 8d 85 20 ff ff ff 	lea    -0xe0(%rbp),%rax
  402d29:	48 89 d6             	mov    %rdx,%rsi
  402d2c:	48 89 c7             	mov    %rax,%rdi
  402d2f:	e8 dc f7 ff ff       	callq  402510 <_ZNSsC1ERKSs@plt>
  402d34:	48 8d 95 20 ff ff ff 	lea    -0xe0(%rbp),%rdx
  402d3b:	48 8d 45 80          	lea    -0x80(%rbp),%rax
  402d3f:	48 89 d6             	mov    %rdx,%rsi
  402d42:	48 89 c7             	mov    %rax,%rdi
  402d45:	e8 1a 42 00 00       	callq  406f64 <_ZN7Lexicon3addESs>
  402d4a:	48 8d 85 20 ff ff ff 	lea    -0xe0(%rbp),%rax
  402d51:	48 89 c7             	mov    %rax,%rdi
  402d54:	e8 47 f8 ff ff       	callq  4025a0 <_ZNSsD1Ev@plt>
  402d59:	48 8b 85 b8 fe ff ff 	mov    -0x148(%rbp),%rax
  402d60:	48 89 c7             	mov    %rax,%rdi
  402d63:	e8 46 0a 00 00       	callq  4037ae <_ZNSt6vectorISsSaISsEEC1Ev>
  402d68:	48 8d 95 18 ff ff ff 	lea    -0xe8(%rbp),%rdx
  402d6f:	48 8d 85 30 ff ff ff 	lea    -0xd0(%rbp),%rax
  402d76:	48 89 d6             	mov    %rdx,%rsi
  402d79:	48 89 c7             	mov    %rax,%rdi
  402d7c:	e8 47 0a 00 00       	callq  4037c8 <_ZNSt5dequeIPSt6vectorISsSaISsEESaIS3_EE9push_backERKS3_>
  402d81:	e9 60 03 00 00       	jmpq   4030e6 <_Z9getLadderSsSs+0x455>
  402d86:	48 8d 85 30 ff ff ff 	lea    -0xd0(%rbp),%rax
  402d8d:	48 89 c7             	mov    %rax,%rdi
  402d90:	e8 cd 0a 00 00       	callq  403862 <_ZNSt5dequeIPSt6vectorISsSaISsEESaIS3_EE5frontEv>
  402d95:	48 8b 00             	mov    (%rax),%rax
  402d98:	48 89 85 28 ff ff ff 	mov    %rax,-0xd8(%rbp)
  402d9f:	48 8b 85 28 ff ff ff 	mov    -0xd8(%rbp),%rax
  402da6:	48 89 c7             	mov    %rax,%rdi
  402da9:	e8 e2 0a 00 00       	callq  403890 <_ZNKSt6vectorISsSaISsEE4sizeEv>
  402dae:	48 8d 50 ff          	lea    -0x1(%rax),%rdx
  402db2:	48 8b 85 28 ff ff ff 	mov    -0xd8(%rbp),%rax
  402db9:	48 89 d6             	mov    %rdx,%rsi
  402dbc:	48 89 c7             	mov    %rax,%rdi
  402dbf:	e8 f2 0a 00 00       	callq  4038b6 <_ZNSt6vectorISsSaISsEE2atEm>
  402dc4:	48 8b 95 a8 fe ff ff 	mov    -0x158(%rbp),%rdx
  402dcb:	48 89 d6             	mov    %rdx,%rsi
  402dce:	48 89 c7             	mov    %rax,%rdi
  402dd1:	e8 18 0b 00 00       	callq  4038ee <_ZSteqIcEN9__gnu_cxx11__enable_ifIXsrSt9__is_charIT_E7__valueEbE6__typeERKSbIS3_St11char_traitsIS3_ESaIS3_EESC_>
  402dd6:	84 c0                	test   %al,%al
  402dd8:	74 3a                	je     402e14 <_Z9getLadderSsSs+0x183>
  402dda:	48 8b 95 28 ff ff ff 	mov    -0xd8(%rbp),%rdx
  402de1:	48 8b 85 b8 fe ff ff 	mov    -0x148(%rbp),%rax
  402de8:	48 89 d6             	mov    %rdx,%rsi
  402deb:	48 89 c7             	mov    %rax,%rdi
  402dee:	e8 7f 0b 00 00       	callq  403972 <_ZNSt6vectorISsSaISsEEaSERKS1_>
  402df3:	48 8b 9d 28 ff ff ff 	mov    -0xd8(%rbp),%rbx
  402dfa:	48 85 db             	test   %rbx,%rbx
  402dfd:	74 10                	je     402e0f <_Z9getLadderSsSs+0x17e>
  402dff:	48 89 df             	mov    %rbx,%rdi
  402e02:	e8 43 07 00 00       	callq  40354a <_ZNSt6vectorISsSaISsEED1Ev>
  402e07:	48 89 df             	mov    %rbx,%rdi
  402e0a:	e8 51 f6 ff ff       	callq  402460 <_ZdlPv@plt>
  402e0f:	e9 ec 02 00 00       	jmpq   403100 <_Z9getLadderSsSs+0x46f>
  402e14:	48 8b 85 28 ff ff ff 	mov    -0xd8(%rbp),%rax
  402e1b:	48 89 c7             	mov    %rax,%rdi
  402e1e:	e8 6d 0a 00 00       	callq  403890 <_ZNKSt6vectorISsSaISsEE4sizeEv>
  402e23:	48 8d 50 ff          	lea    -0x1(%rax),%rdx
  402e27:	48 8b 85 28 ff ff ff 	mov    -0xd8(%rbp),%rax
  402e2e:	48 89 d6             	mov    %rdx,%rsi
  402e31:	48 89 c7             	mov    %rax,%rdi
  402e34:	e8 7d 0a 00 00       	callq  4038b6 <_ZNSt6vectorISsSaISsEE2atEm>
  402e39:	48 89 c2             	mov    %rax,%rdx
  402e3c:	48 8d 85 d0 fe ff ff 	lea    -0x130(%rbp),%rax
  402e43:	48 89 d6             	mov    %rdx,%rsi
  402e46:	48 89 c7             	mov    %rax,%rdi
  402e49:	e8 c2 f6 ff ff       	callq  402510 <_ZNSsC1ERKSs@plt>
  402e4e:	c7 85 c0 fe ff ff 00 	movl   $0x0,-0x140(%rbp)
  402e55:	00 00 00 
  402e58:	e9 29 02 00 00       	jmpq   403086 <_Z9getLadderSsSs+0x3f5>
  402e5d:	8b 85 c0 fe ff ff    	mov    -0x140(%rbp),%eax
  402e63:	48 63 d0             	movslq %eax,%rdx
  402e66:	48 8d 85 d0 fe ff ff 	lea    -0x130(%rbp),%rax
  402e6d:	48 89 d6             	mov    %rdx,%rsi
  402e70:	48 89 c7             	mov    %rax,%rdi
  402e73:	e8 d8 f7 ff ff       	callq  402650 <_ZNSsixEm@plt>
  402e78:	0f b6 00             	movzbl (%rax),%eax
  402e7b:	0f be c0             	movsbl %al,%eax
  402e7e:	89 85 c8 fe ff ff    	mov    %eax,-0x138(%rbp)
  402e84:	8b 85 c8 fe ff ff    	mov    -0x138(%rbp),%eax
  402e8a:	83 e8 61             	sub    $0x61,%eax
  402e8d:	89 85 cc fe ff ff    	mov    %eax,-0x134(%rbp)
  402e93:	c7 85 c4 fe ff ff 01 	movl   $0x1,-0x13c(%rbp)
  402e9a:	00 00 00 
  402e9d:	e9 d0 01 00 00       	jmpq   403072 <_Z9getLadderSsSs+0x3e1>
  402ea2:	48 8d 95 d0 fe ff ff 	lea    -0x130(%rbp),%rdx
  402ea9:	48 8d 85 e0 fe ff ff 	lea    -0x120(%rbp),%rax
  402eb0:	48 89 d6             	mov    %rdx,%rsi
  402eb3:	48 89 c7             	mov    %rax,%rdi
  402eb6:	e8 55 f6 ff ff       	callq  402510 <_ZNSsC1ERKSs@plt>
  402ebb:	8b 85 c0 fe ff ff    	mov    -0x140(%rbp),%eax
  402ec1:	48 63 d0             	movslq %eax,%rdx
  402ec4:	48 8d 85 e0 fe ff ff 	lea    -0x120(%rbp),%rax
  402ecb:	48 89 d6             	mov    %rdx,%rsi
  402ece:	48 89 c7             	mov    %rax,%rdi
  402ed1:	e8 7a f7 ff ff       	callq  402650 <_ZNSsixEm@plt>
  402ed6:	48 89 c6             	mov    %rax,%rsi
  402ed9:	8b 85 c4 fe ff ff    	mov    -0x13c(%rbp),%eax
  402edf:	8b 95 cc fe ff ff    	mov    -0x134(%rbp),%edx
  402ee5:	8d 0c 02             	lea    (%rdx,%rax,1),%ecx
  402ee8:	ba 4f ec c4 4e       	mov    $0x4ec4ec4f,%edx
  402eed:	89 c8                	mov    %ecx,%eax
  402eef:	f7 ea                	imul   %edx
  402ef1:	c1 fa 03             	sar    $0x3,%edx
  402ef4:	89 c8                	mov    %ecx,%eax
  402ef6:	c1 f8 1f             	sar    $0x1f,%eax
  402ef9:	29 c2                	sub    %eax,%edx
  402efb:	89 d0                	mov    %edx,%eax
  402efd:	6b c0 1a             	imul   $0x1a,%eax,%eax
  402f00:	29 c1                	sub    %eax,%ecx
  402f02:	89 c8                	mov    %ecx,%eax
  402f04:	83 c0 61             	add    $0x61,%eax
  402f07:	88 06                	mov    %al,(%rsi)
  402f09:	bb 00 00 00 00       	mov    $0x0,%ebx
  402f0e:	41 bc 00 00 00 00    	mov    $0x0,%r12d
  402f14:	48 8d 95 e0 fe ff ff 	lea    -0x120(%rbp),%rdx
  402f1b:	48 8d 85 f0 fe ff ff 	lea    -0x110(%rbp),%rax
  402f22:	48 89 d6             	mov    %rdx,%rsi
  402f25:	48 89 c7             	mov    %rax,%rdi
  402f28:	e8 e3 f5 ff ff       	callq  402510 <_ZNSsC1ERKSs@plt>
  402f2d:	bb 01 00 00 00       	mov    $0x1,%ebx
  402f32:	48 8d 85 f0 fe ff ff 	lea    -0x110(%rbp),%rax
  402f39:	48 89 c6             	mov    %rax,%rsi
  402f3c:	bf 80 26 61 00       	mov    $0x612680,%edi
  402f41:	e8 b6 3f 00 00       	callq  406efc <_ZNK7Lexicon8containsESs>
  402f46:	84 c0                	test   %al,%al
  402f48:	74 43                	je     402f8d <_Z9getLadderSsSs+0x2fc>
  402f4a:	48 8d 95 e0 fe ff ff 	lea    -0x120(%rbp),%rdx
  402f51:	48 8d 85 00 ff ff ff 	lea    -0x100(%rbp),%rax
  402f58:	48 89 d6             	mov    %rdx,%rsi
  402f5b:	48 89 c7             	mov    %rax,%rdi
  402f5e:	e8 ad f5 ff ff       	callq  402510 <_ZNSsC1ERKSs@plt>
  402f63:	41 bc 01 00 00 00    	mov    $0x1,%r12d
  402f69:	48 8d 95 00 ff ff ff 	lea    -0x100(%rbp),%rdx
  402f70:	48 8d 45 80          	lea    -0x80(%rbp),%rax
  402f74:	48 89 d6             	mov    %rdx,%rsi
  402f77:	48 89 c7             	mov    %rax,%rdi
  402f7a:	e8 7d 3f 00 00       	callq  406efc <_ZNK7Lexicon8containsESs>
  402f7f:	83 f0 01             	xor    $0x1,%eax
  402f82:	84 c0                	test   %al,%al
  402f84:	74 07                	je     402f8d <_Z9getLadderSsSs+0x2fc>
  402f86:	b8 01 00 00 00       	mov    $0x1,%eax
  402f8b:	eb 05                	jmp    402f92 <_Z9getLadderSsSs+0x301>
  402f8d:	b8 00 00 00 00       	mov    $0x0,%eax
  402f92:	41 89 c5             	mov    %eax,%r13d
  402f95:	45 84 e4             	test   %r12b,%r12b
  402f98:	74 0f                	je     402fa9 <_Z9getLadderSsSs+0x318>
  402f9a:	48 8d 85 00 ff ff ff 	lea    -0x100(%rbp),%rax
  402fa1:	48 89 c7             	mov    %rax,%rdi
  402fa4:	e8 f7 f5 ff ff       	callq  4025a0 <_ZNSsD1Ev@plt>
  402fa9:	84 db                	test   %bl,%bl
  402fab:	74 10                	je     402fbd <_Z9getLadderSsSs+0x32c>
  402fad:	90                   	nop
  402fae:	48 8d 85 f0 fe ff ff 	lea    -0x110(%rbp),%rax
  402fb5:	48 89 c7             	mov    %rax,%rdi
  402fb8:	e8 e3 f5 ff ff       	callq  4025a0 <_ZNSsD1Ev@plt>
  402fbd:	45 84 ed             	test   %r13b,%r13b
  402fc0:	0f 84 96 00 00 00    	je     40305c <_Z9getLadderSsSs+0x3cb>
  402fc6:	bf 18 00 00 00       	mov    $0x18,%edi
  402fcb:	e8 f0 f8 ff ff       	callq  4028c0 <_Znwm@plt>
  402fd0:	48 89 c3             	mov    %rax,%rbx
  402fd3:	48 8b 85 28 ff ff ff 	mov    -0xd8(%rbp),%rax
  402fda:	48 89 c6             	mov    %rax,%rsi
  402fdd:	48 89 df             	mov    %rbx,%rdi
  402fe0:	e8 cb 05 00 00       	callq  4035b0 <_ZNSt6vectorISsSaISsEEC1ERKS1_>
  402fe5:	48 89 9d 20 ff ff ff 	mov    %rbx,-0xe0(%rbp)
  402fec:	48 8b 85 20 ff ff ff 	mov    -0xe0(%rbp),%rax
  402ff3:	48 8d 95 e0 fe ff ff 	lea    -0x120(%rbp),%rdx
  402ffa:	48 89 d6             	mov    %rdx,%rsi
  402ffd:	48 89 c7             	mov    %rax,%rdi
  403000:	e8 a7 0b 00 00       	callq  403bac <_ZNSt6vectorISsSaISsEE9push_backERKSs>
  403005:	48 8d 95 20 ff ff ff 	lea    -0xe0(%rbp),%rdx
  40300c:	48 8d 85 30 ff ff ff 	lea    -0xd0(%rbp),%rax
  403013:	48 89 d6             	mov    %rdx,%rsi
  403016:	48 89 c7             	mov    %rax,%rdi
  403019:	e8 aa 07 00 00       	callq  4037c8 <_ZNSt5dequeIPSt6vectorISsSaISsEESaIS3_EE9push_backERKS3_>
  40301e:	48 8d 95 e0 fe ff ff 	lea    -0x120(%rbp),%rdx
  403025:	48 8d 85 10 ff ff ff 	lea    -0xf0(%rbp),%rax
  40302c:	48 89 d6             	mov    %rdx,%rsi
  40302f:	48 89 c7             	mov    %rax,%rdi
  403032:	e8 d9 f4 ff ff       	callq  402510 <_ZNSsC1ERKSs@plt>
  403037:	48 8d 95 10 ff ff ff 	lea    -0xf0(%rbp),%rdx
  40303e:	48 8d 45 80          	lea    -0x80(%rbp),%rax
  403042:	48 89 d6             	mov    %rdx,%rsi
  403045:	48 89 c7             	mov    %rax,%rdi
  403048:	e8 17 3f 00 00       	callq  406f64 <_ZN7Lexicon3addESs>
  40304d:	48 8d 85 10 ff ff ff 	lea    -0xf0(%rbp),%rax
  403054:	48 89 c7             	mov    %rax,%rdi
  403057:	e8 44 f5 ff ff       	callq  4025a0 <_ZNSsD1Ev@plt>
  40305c:	48 8d 85 e0 fe ff ff 	lea    -0x120(%rbp),%rax
  403063:	48 89 c7             	mov    %rax,%rdi
  403066:	e8 35 f5 ff ff       	callq  4025a0 <_ZNSsD1Ev@plt>
  40306b:	83 85 c4 fe ff ff 01 	addl   $0x1,-0x13c(%rbp)
  403072:	83 bd c4 fe ff ff 19 	cmpl   $0x19,-0x13c(%rbp)
  403079:	0f 8e 23 fe ff ff    	jle    402ea2 <_Z9getLadderSsSs+0x211>
  40307f:	83 85 c0 fe ff ff 01 	addl   $0x1,-0x140(%rbp)
  403086:	8b 85 c0 fe ff ff    	mov    -0x140(%rbp),%eax
  40308c:	48 63 d8             	movslq %eax,%rbx
  40308f:	48 8d 85 d0 fe ff ff 	lea    -0x130(%rbp),%rax
  403096:	48 89 c7             	mov    %rax,%rdi
  403099:	e8 02 f4 ff ff       	callq  4024a0 <_ZNKSs4sizeEv@plt>
  40309e:	48 39 c3             	cmp    %rax,%rbx
  4030a1:	0f 92 c0             	setb   %al
  4030a4:	84 c0                	test   %al,%al
  4030a6:	0f 85 b1 fd ff ff    	jne    402e5d <_Z9getLadderSsSs+0x1cc>
  4030ac:	48 8d 85 30 ff ff ff 	lea    -0xd0(%rbp),%rax
  4030b3:	48 89 c7             	mov    %rax,%rdi
  4030b6:	e8 6b 0b 00 00       	callq  403c26 <_ZNSt5dequeIPSt6vectorISsSaISsEESaIS3_EE9pop_frontEv>
  4030bb:	48 8b 9d 28 ff ff ff 	mov    -0xd8(%rbp),%rbx
  4030c2:	48 85 db             	test   %rbx,%rbx
  4030c5:	74 10                	je     4030d7 <_Z9getLadderSsSs+0x446>
  4030c7:	48 89 df             	mov    %rbx,%rdi
  4030ca:	e8 7b 04 00 00       	callq  40354a <_ZNSt6vectorISsSaISsEED1Ev>
  4030cf:	48 89 df             	mov    %rbx,%rdi
  4030d2:	e8 89 f3 ff ff       	callq  402460 <_ZdlPv@plt>
  4030d7:	48 8d 85 d0 fe ff ff 	lea    -0x130(%rbp),%rax
  4030de:	48 89 c7             	mov    %rax,%rdi
  4030e1:	e8 ba f4 ff ff       	callq  4025a0 <_ZNSsD1Ev@plt>
  4030e6:	48 8d 85 30 ff ff ff 	lea    -0xd0(%rbp),%rax
  4030ed:	48 89 c7             	mov    %rax,%rdi
  4030f0:	e8 43 07 00 00       	callq  403838 <_ZNKSt5dequeIPSt6vectorISsSaISsEESaIS3_EE5emptyEv>
  4030f5:	83 f0 01             	xor    $0x1,%eax
  4030f8:	84 c0                	test   %al,%al
  4030fa:	0f 85 86 fc ff ff    	jne    402d86 <_Z9getLadderSsSs+0xf5>
  403100:	90                   	nop
  403101:	48 8d 45 80          	lea    -0x80(%rbp),%rax
  403105:	48 89 c7             	mov    %rax,%rdi
  403108:	e8 b5 30 00 00       	callq  4061c2 <_ZN7LexiconD1Ev>
  40310d:	48 8d 85 30 ff ff ff 	lea    -0xd0(%rbp),%rax
  403114:	48 89 c7             	mov    %rax,%rdi
  403117:	e8 6c 05 00 00       	callq  403688 <_ZNSt5dequeIPSt6vectorISsSaISsEESaIS3_EED1Ev>
  40311c:	e9 04 01 00 00       	jmpq   403225 <_Z9getLadderSsSs+0x594>
  403121:	49 89 c4             	mov    %rax,%r12
  403124:	48 89 df             	mov    %rbx,%rdi
  403127:	e8 34 f3 ff ff       	callq  402460 <_ZdlPv@plt>
  40312c:	4c 89 e3             	mov    %r12,%rbx
  40312f:	eb 03                	jmp    403134 <_Z9getLadderSsSs+0x4a3>
  403131:	48 89 c3             	mov    %rax,%rbx
  403134:	48 8d 45 80          	lea    -0x80(%rbp),%rax
  403138:	48 89 c7             	mov    %rax,%rdi
  40313b:	e8 ea 05 00 00       	callq  40372a <_ZNSaISsED1Ev>
  403140:	e9 c6 00 00 00       	jmpq   40320b <_Z9getLadderSsSs+0x57a>
  403145:	48 89 c3             	mov    %rax,%rbx
  403148:	48 8d 85 20 ff ff ff 	lea    -0xe0(%rbp),%rax
  40314f:	48 89 c7             	mov    %rax,%rdi
  403152:	e8 49 f4 ff ff       	callq  4025a0 <_ZNSsD1Ev@plt>
  403157:	e9 9e 00 00 00       	jmpq   4031fa <_Z9getLadderSsSs+0x569>
  40315c:	49 89 c5             	mov    %rax,%r13
  40315f:	45 84 e4             	test   %r12b,%r12b
  403162:	74 0f                	je     403173 <_Z9getLadderSsSs+0x4e2>
  403164:	48 8d 85 00 ff ff ff 	lea    -0x100(%rbp),%rax
  40316b:	48 89 c7             	mov    %rax,%rdi
  40316e:	e8 2d f4 ff ff       	callq  4025a0 <_ZNSsD1Ev@plt>
  403173:	4d 89 ec             	mov    %r13,%r12
  403176:	eb 03                	jmp    40317b <_Z9getLadderSsSs+0x4ea>
  403178:	49 89 c4             	mov    %rax,%r12
  40317b:	84 db                	test   %bl,%bl
  40317d:	74 12                	je     403191 <_Z9getLadderSsSs+0x500>
  40317f:	90                   	nop
  403180:	48 8d 85 f0 fe ff ff 	lea    -0x110(%rbp),%rax
  403187:	48 89 c7             	mov    %rax,%rdi
  40318a:	e8 11 f4 ff ff       	callq  4025a0 <_ZNSsD1Ev@plt>
  40318f:	eb 01                	jmp    403192 <_Z9getLadderSsSs+0x501>
  403191:	90                   	nop
  403192:	4c 89 e3             	mov    %r12,%rbx
  403195:	eb 27                	jmp    4031be <_Z9getLadderSsSs+0x52d>
  403197:	49 89 c4             	mov    %rax,%r12
  40319a:	48 89 df             	mov    %rbx,%rdi
  40319d:	e8 be f2 ff ff       	callq  402460 <_ZdlPv@plt>
  4031a2:	4c 89 e3             	mov    %r12,%rbx
  4031a5:	eb 17                	jmp    4031be <_Z9getLadderSsSs+0x52d>
  4031a7:	48 89 c3             	mov    %rax,%rbx
  4031aa:	48 8d 85 10 ff ff ff 	lea    -0xf0(%rbp),%rax
  4031b1:	48 89 c7             	mov    %rax,%rdi
  4031b4:	e8 e7 f3 ff ff       	callq  4025a0 <_ZNSsD1Ev@plt>
  4031b9:	eb 03                	jmp    4031be <_Z9getLadderSsSs+0x52d>
  4031bb:	48 89 c3             	mov    %rax,%rbx
  4031be:	48 8d 85 e0 fe ff ff 	lea    -0x120(%rbp),%rax
  4031c5:	48 89 c7             	mov    %rax,%rdi
  4031c8:	e8 d3 f3 ff ff       	callq  4025a0 <_ZNSsD1Ev@plt>
  4031cd:	eb 03                	jmp    4031d2 <_Z9getLadderSsSs+0x541>
  4031cf:	48 89 c3             	mov    %rax,%rbx
  4031d2:	48 8d 85 d0 fe ff ff 	lea    -0x130(%rbp),%rax
  4031d9:	48 89 c7             	mov    %rax,%rdi
  4031dc:	e8 bf f3 ff ff       	callq  4025a0 <_ZNSsD1Ev@plt>
  4031e1:	eb 03                	jmp    4031e6 <_Z9getLadderSsSs+0x555>
  4031e3:	48 89 c3             	mov    %rax,%rbx
  4031e6:	48 8b 85 b8 fe ff ff 	mov    -0x148(%rbp),%rax
  4031ed:	48 89 c7             	mov    %rax,%rdi
  4031f0:	e8 55 03 00 00       	callq  40354a <_ZNSt6vectorISsSaISsEED1Ev>
  4031f5:	eb 03                	jmp    4031fa <_Z9getLadderSsSs+0x569>
  4031f7:	48 89 c3             	mov    %rax,%rbx
  4031fa:	48 8d 45 80          	lea    -0x80(%rbp),%rax
  4031fe:	48 89 c7             	mov    %rax,%rdi
  403201:	e8 bc 2f 00 00       	callq  4061c2 <_ZN7LexiconD1Ev>
  403206:	eb 03                	jmp    40320b <_Z9getLadderSsSs+0x57a>
  403208:	48 89 c3             	mov    %rax,%rbx
  40320b:	48 8d 85 30 ff ff ff 	lea    -0xd0(%rbp),%rax
  403212:	48 89 c7             	mov    %rax,%rdi
  403215:	e8 6e 04 00 00       	callq  403688 <_ZNSt5dequeIPSt6vectorISsSaISsEESaIS3_EED1Ev>
  40321a:	48 89 d8             	mov    %rbx,%rax
  40321d:	48 89 c7             	mov    %rax,%rdi
  403220:	e8 ab f6 ff ff       	callq  4028d0 <_Unwind_Resume@plt>
  403225:	48 8b 85 b8 fe ff ff 	mov    -0x148(%rbp),%rax
  40322c:	48 81 c4 48 01 00 00 	add    $0x148,%rsp
  403233:	5b                   	pop    %rbx
  403234:	41 5c                	pop    %r12
  403236:	41 5d                	pop    %r13
  403238:	5d                   	pop    %rbp
  403239:	c3                   	retq   

000000000040323a <_Z11printLadderSt6vectorISsSaISsEE>:
  40323a:	55                   	push   %rbp
  40323b:	48 89 e5             	mov    %rsp,%rbp
  40323e:	53                   	push   %rbx
  40323f:	48 83 ec 28          	sub    $0x28,%rsp
  403243:	48 89 7d d8          	mov    %rdi,-0x28(%rbp)
  403247:	c7 45 ec 00 00 00 00 	movl   $0x0,-0x14(%rbp)
  40324e:	eb 33                	jmp    403283 <_Z11printLadderSt6vectorISsSaISsEE+0x49>
  403250:	8b 45 ec             	mov    -0x14(%rbp),%eax
  403253:	48 63 d0             	movslq %eax,%rdx
  403256:	48 8b 45 d8          	mov    -0x28(%rbp),%rax
  40325a:	48 89 d6             	mov    %rdx,%rsi
  40325d:	48 89 c7             	mov    %rax,%rdi
  403260:	e8 21 0a 00 00       	callq  403c86 <_ZNSt6vectorISsSaISsEEixEm>
  403265:	48 89 c6             	mov    %rax,%rsi
  403268:	bf 00 25 61 00       	mov    $0x612500,%edi
  40326d:	e8 5e f4 ff ff       	callq  4026d0 <_ZStlsIcSt11char_traitsIcESaIcEERSt13basic_ostreamIT_T0_ES7_RKSbIS4_S5_T1_E@plt>
  403272:	be 20 00 00 00       	mov    $0x20,%esi
  403277:	48 89 c7             	mov    %rax,%rdi
  40327a:	e8 d1 f2 ff ff       	callq  402550 <_ZStlsISt11char_traitsIcEERSt13basic_ostreamIcT_ES5_c@plt>
  40327f:	83 45 ec 01          	addl   $0x1,-0x14(%rbp)
  403283:	8b 45 ec             	mov    -0x14(%rbp),%eax
  403286:	48 63 d8             	movslq %eax,%rbx
  403289:	48 8b 45 d8          	mov    -0x28(%rbp),%rax
  40328d:	48 89 c7             	mov    %rax,%rdi
  403290:	e8 fb 05 00 00       	callq  403890 <_ZNKSt6vectorISsSaISsEE4sizeEv>
  403295:	48 39 c3             	cmp    %rax,%rbx
  403298:	0f 92 c0             	setb   %al
  40329b:	84 c0                	test   %al,%al
  40329d:	75 b1                	jne    403250 <_Z11printLadderSt6vectorISsSaISsEE+0x16>
  40329f:	be 40 28 40 00       	mov    $0x402840,%esi
  4032a4:	bf 00 25 61 00       	mov    $0x612500,%edi
  4032a9:	e8 22 f5 ff ff       	callq  4027d0 <_ZNSolsEPFRSoS_E@plt>
  4032ae:	48 83 c4 28          	add    $0x28,%rsp
  4032b2:	5b                   	pop    %rbx
  4032b3:	5d                   	pop    %rbp
  4032b4:	c3                   	retq   

00000000004032b5 <_Z11printLadderPSt6vectorISsSaISsEE>:
  4032b5:	55                   	push   %rbp
  4032b6:	48 89 e5             	mov    %rsp,%rbp
  4032b9:	53                   	push   %rbx
  4032ba:	48 83 ec 38          	sub    $0x38,%rsp
  4032be:	48 89 7d c8          	mov    %rdi,-0x38(%rbp)
  4032c2:	48 8b 55 c8          	mov    -0x38(%rbp),%rdx
  4032c6:	48 8d 45 d0          	lea    -0x30(%rbp),%rax
  4032ca:	48 89 d6             	mov    %rdx,%rsi
  4032cd:	48 89 c7             	mov    %rax,%rdi
  4032d0:	e8 db 02 00 00       	callq  4035b0 <_ZNSt6vectorISsSaISsEEC1ERKS1_>
  4032d5:	48 8d 45 d0          	lea    -0x30(%rbp),%rax
  4032d9:	48 89 c7             	mov    %rax,%rdi
  4032dc:	e8 59 ff ff ff       	callq  40323a <_Z11printLadderSt6vectorISsSaISsEE>
  4032e1:	48 8d 45 d0          	lea    -0x30(%rbp),%rax
  4032e5:	48 89 c7             	mov    %rax,%rdi
  4032e8:	e8 5d 02 00 00       	callq  40354a <_ZNSt6vectorISsSaISsEED1Ev>
  4032ed:	eb 1a                	jmp    403309 <_Z11printLadderPSt6vectorISsSaISsEE+0x54>
  4032ef:	48 89 c3             	mov    %rax,%rbx
  4032f2:	48 8d 45 d0          	lea    -0x30(%rbp),%rax
  4032f6:	48 89 c7             	mov    %rax,%rdi
  4032f9:	e8 4c 02 00 00       	callq  40354a <_ZNSt6vectorISsSaISsEED1Ev>
  4032fe:	48 89 d8             	mov    %rbx,%rax
  403301:	48 89 c7             	mov    %rax,%rdi
  403304:	e8 c7 f5 ff ff       	callq  4028d0 <_Unwind_Resume@plt>
  403309:	48 83 c4 38          	add    $0x38,%rsp
  40330d:	5b                   	pop    %rbx
  40330e:	5d                   	pop    %rbp
  40330f:	c3                   	retq   

0000000000403310 <_Z9logLadderSt6vectorISsSaISsEE>:
  403310:	55                   	push   %rbp
  403311:	48 89 e5             	mov    %rsp,%rbp
  403314:	53                   	push   %rbx
  403315:	48 83 ec 28          	sub    $0x28,%rsp
  403319:	48 89 7d d8          	mov    %rdi,-0x28(%rbp)
  40331d:	c7 45 ec 00 00 00 00 	movl   $0x0,-0x14(%rbp)
  403324:	eb 3d                	jmp    403363 <_Z9logLadderSt6vectorISsSaISsEE+0x53>
  403326:	8b 45 ec             	mov    -0x14(%rbp),%eax
  403329:	48 63 d0             	movslq %eax,%rdx
  40332c:	48 8b 45 d8          	mov    -0x28(%rbp),%rax
  403330:	48 89 d6             	mov    %rdx,%rsi
  403333:	48 89 c7             	mov    %rax,%rdi
  403336:	e8 4b 09 00 00       	callq  403c86 <_ZNSt6vectorISsSaISsEEixEm>
  40333b:	48 89 c7             	mov    %rax,%rdi
  40333e:	e8 fd f0 ff ff       	callq  402440 <_ZNKSs5c_strEv@plt>
  403343:	48 89 c2             	mov    %rax,%rdx
  403346:	48 8b 05 8b f3 20 00 	mov    0x20f38b(%rip),%rax        # 6126d8 <Log>
  40334d:	be 54 c3 40 00       	mov    $0x40c354,%esi
  403352:	48 89 c7             	mov    %rax,%rdi
  403355:	b8 00 00 00 00       	mov    $0x0,%eax
  40335a:	e8 41 f5 ff ff       	callq  4028a0 <fprintf@plt>
  40335f:	83 45 ec 01          	addl   $0x1,-0x14(%rbp)
  403363:	8b 45 ec             	mov    -0x14(%rbp),%eax
  403366:	48 63 d8             	movslq %eax,%rbx
  403369:	48 8b 45 d8          	mov    -0x28(%rbp),%rax
  40336d:	48 89 c7             	mov    %rax,%rdi
  403370:	e8 1b 05 00 00       	callq  403890 <_ZNKSt6vectorISsSaISsEE4sizeEv>
  403375:	48 39 c3             	cmp    %rax,%rbx
  403378:	0f 92 c0             	setb   %al
  40337b:	84 c0                	test   %al,%al
  40337d:	75 a7                	jne    403326 <_Z9logLadderSt6vectorISsSaISsEE+0x16>
  40337f:	48 8b 05 52 f3 20 00 	mov    0x20f352(%rip),%rax        # 6126d8 <Log>
  403386:	48 89 c6             	mov    %rax,%rsi
  403389:	bf 0a 00 00 00       	mov    $0xa,%edi
  40338e:	e8 1d f2 ff ff       	callq  4025b0 <fputc@plt>
  403393:	48 8b 05 3e f3 20 00 	mov    0x20f33e(%rip),%rax        # 6126d8 <Log>
  40339a:	48 89 c7             	mov    %rax,%rdi
  40339d:	e8 be f5 ff ff       	callq  402960 <fflush@plt>
  4033a2:	48 83 c4 28          	add    $0x28,%rsp
  4033a6:	5b                   	pop    %rbx
  4033a7:	5d                   	pop    %rbp
  4033a8:	c3                   	retq   

00000000004033a9 <_Z41__static_initialization_and_destruction_0ii>:
  4033a9:	55                   	push   %rbp
  4033aa:	48 89 e5             	mov    %rsp,%rbp
  4033ad:	53                   	push   %rbx
  4033ae:	48 83 ec 38          	sub    $0x38,%rsp
  4033b2:	89 7d cc             	mov    %edi,-0x34(%rbp)
  4033b5:	89 75 c8             	mov    %esi,-0x38(%rbp)
  4033b8:	83 7d cc 01          	cmpl   $0x1,-0x34(%rbp)
  4033bc:	0f 85 cc 00 00 00    	jne    40348e <_Z41__static_initialization_and_destruction_0ii+0xe5>
  4033c2:	81 7d c8 ff ff 00 00 	cmpl   $0xffff,-0x38(%rbp)
  4033c9:	0f 85 bf 00 00 00    	jne    40348e <_Z41__static_initialization_and_destruction_0ii+0xe5>
  4033cf:	bf e0 26 61 00       	mov    $0x6126e0,%edi
  4033d4:	e8 d7 f0 ff ff       	callq  4024b0 <_ZNSt8ios_base4InitC1Ev@plt>
  4033d9:	ba 30 23 61 00       	mov    $0x612330,%edx
  4033de:	be e0 26 61 00       	mov    $0x6126e0,%esi
  4033e3:	bf 80 25 40 00       	mov    $0x402580,%edi
  4033e8:	e8 43 f1 ff ff       	callq  402530 <__cxa_atexit@plt>
  4033ed:	48 8d 45 df          	lea    -0x21(%rbp),%rax
  4033f1:	48 89 c7             	mov    %rax,%rdi
  4033f4:	e8 77 f4 ff ff       	callq  402870 <_ZNSaIcEC1Ev@plt>
  4033f9:	48 8d 55 df          	lea    -0x21(%rbp),%rdx
  4033fd:	48 8d 45 e0          	lea    -0x20(%rbp),%rax
  403401:	be 85 c3 40 00       	mov    $0x40c385,%esi
  403406:	48 89 c7             	mov    %rax,%rdi
  403409:	e8 12 f2 ff ff       	callq  402620 <_ZNSsC1EPKcRKSaIcE@plt>
  40340e:	48 8d 45 e0          	lea    -0x20(%rbp),%rax
  403412:	48 89 c6             	mov    %rax,%rsi
  403415:	bf 80 26 61 00       	mov    $0x612680,%edi
  40341a:	e8 d7 2c 00 00       	callq  4060f6 <_ZN7LexiconC1ESs>
  40341f:	48 8d 45 e0          	lea    -0x20(%rbp),%rax
  403423:	48 89 c7             	mov    %rax,%rdi
  403426:	e8 75 f1 ff ff       	callq  4025a0 <_ZNSsD1Ev@plt>
  40342b:	48 8d 45 df          	lea    -0x21(%rbp),%rax
  40342f:	48 89 c7             	mov    %rax,%rdi
  403432:	e8 f9 f2 ff ff       	callq  402730 <_ZNSaIcED1Ev@plt>
  403437:	ba 30 23 61 00       	mov    $0x612330,%edx
  40343c:	be 80 26 61 00       	mov    $0x612680,%esi
  403441:	bf c2 61 40 00       	mov    $0x4061c2,%edi
  403446:	e8 e5 f0 ff ff       	callq  402530 <__cxa_atexit@plt>
  40344b:	be 96 c3 40 00       	mov    $0x40c396,%esi
  403450:	bf 98 c3 40 00       	mov    $0x40c398,%edi
  403455:	e8 76 f0 ff ff       	callq  4024d0 <fopen@plt>
  40345a:	48 89 05 77 f2 20 00 	mov    %rax,0x20f277(%rip)        # 6126d8 <Log>
  403461:	eb 2b                	jmp    40348e <_Z41__static_initialization_and_destruction_0ii+0xe5>
  403463:	48 89 c3             	mov    %rax,%rbx
  403466:	48 8d 45 e0          	lea    -0x20(%rbp),%rax
  40346a:	48 89 c7             	mov    %rax,%rdi
  40346d:	e8 2e f1 ff ff       	callq  4025a0 <_ZNSsD1Ev@plt>
  403472:	eb 03                	jmp    403477 <_Z41__static_initialization_and_destruction_0ii+0xce>
  403474:	48 89 c3             	mov    %rax,%rbx
  403477:	48 8d 45 df          	lea    -0x21(%rbp),%rax
  40347b:	48 89 c7             	mov    %rax,%rdi
  40347e:	e8 ad f2 ff ff       	callq  402730 <_ZNSaIcED1Ev@plt>
  403483:	48 89 d8             	mov    %rbx,%rax
  403486:	48 89 c7             	mov    %rax,%rdi
  403489:	e8 42 f4 ff ff       	callq  4028d0 <_Unwind_Resume@plt>
  40348e:	48 83 c4 38          	add    $0x38,%rsp
  403492:	5b                   	pop    %rbx
  403493:	5d                   	pop    %rbp
  403494:	c3                   	retq   

0000000000403495 <_GLOBAL__sub_I_dict>:
  403495:	55                   	push   %rbp
  403496:	48 89 e5             	mov    %rsp,%rbp
  403499:	be ff ff 00 00       	mov    $0xffff,%esi
  40349e:	bf 01 00 00 00       	mov    $0x1,%edi
  4034a3:	e8 01 ff ff ff       	callq  4033a9 <_Z41__static_initialization_and_destruction_0ii>
  4034a8:	5d                   	pop    %rbp
  4034a9:	c3                   	retq   

00000000004034aa <_ZNSt11char_traitsIcE7compareEPKcS2_m>:
  4034aa:	55                   	push   %rbp
  4034ab:	48 89 e5             	mov    %rsp,%rbp
  4034ae:	48 83 ec 20          	sub    $0x20,%rsp
  4034b2:	48 89 7d f8          	mov    %rdi,-0x8(%rbp)
  4034b6:	48 89 75 f0          	mov    %rsi,-0x10(%rbp)
  4034ba:	48 89 55 e8          	mov    %rdx,-0x18(%rbp)
  4034be:	48 8b 55 e8          	mov    -0x18(%rbp),%rdx
  4034c2:	48 8b 4d f0          	mov    -0x10(%rbp),%rcx
  4034c6:	48 8b 45 f8          	mov    -0x8(%rbp),%rax
  4034ca:	48 89 ce             	mov    %rcx,%rsi
  4034cd:	48 89 c7             	mov    %rax,%rdi
  4034d0:	e8 cb f2 ff ff       	callq  4027a0 <memcmp@plt>
  4034d5:	c9                   	leaveq 
  4034d6:	c3                   	retq   

00000000004034d7 <_ZnwmPv>:
  4034d7:	55                   	push   %rbp
  4034d8:	48 89 e5             	mov    %rsp,%rbp
  4034db:	48 89 7d f8          	mov    %rdi,-0x8(%rbp)
  4034df:	48 89 75 f0          	mov    %rsi,-0x10(%rbp)
  4034e3:	48 8b 45 f0          	mov    -0x10(%rbp),%rax
  4034e7:	5d                   	pop    %rbp
  4034e8:	c3                   	retq   

00000000004034e9 <_ZdlPvS_>:
  4034e9:	55                   	push   %rbp
  4034ea:	48 89 e5             	mov    %rsp,%rbp
  4034ed:	48 89 7d f8          	mov    %rdi,-0x8(%rbp)
  4034f1:	48 89 75 f0          	mov    %rsi,-0x10(%rbp)
  4034f5:	5d                   	pop    %rbp
  4034f6:	c3                   	retq   

00000000004034f7 <_ZSt16__deque_buf_sizem>:
  4034f7:	55                   	push   %rbp
  4034f8:	48 89 e5             	mov    %rsp,%rbp
  4034fb:	48 89 7d f8          	mov    %rdi,-0x8(%rbp)
  4034ff:	48 81 7d f8 ff 01 00 	cmpq   $0x1ff,-0x8(%rbp)
  403506:	00 
  403507:	77 10                	ja     403519 <_ZSt16__deque_buf_sizem+0x22>
  403509:	b8 00 02 00 00       	mov    $0x200,%eax
  40350e:	ba 00 00 00 00       	mov    $0x0,%edx
  403513:	48 f7 75 f8          	divq   -0x8(%rbp)
  403517:	eb 05                	jmp    40351e <_ZSt16__deque_buf_sizem+0x27>
  403519:	b8 01 00 00 00       	mov    $0x1,%eax
  40351e:	5d                   	pop    %rbp
  40351f:	c3                   	retq   

0000000000403520 <_ZSteqIcSt11char_traitsIcESaIcEEbRKSbIT_T0_T1_EPKS3_>:
  403520:	55                   	push   %rbp
  403521:	48 89 e5             	mov    %rsp,%rbp
  403524:	48 83 ec 10          	sub    $0x10,%rsp
  403528:	48 89 7d f8          	mov    %rdi,-0x8(%rbp)
  40352c:	48 89 75 f0          	mov    %rsi,-0x10(%rbp)
  403530:	48 8b 55 f0          	mov    -0x10(%rbp),%rdx
  403534:	48 8b 45 f8          	mov    -0x8(%rbp),%rax
  403538:	48 89 d6             	mov    %rdx,%rsi
  40353b:	48 89 c7             	mov    %rax,%rdi
  40353e:	e8 cd f0 ff ff       	callq  402610 <_ZNKSs7compareEPKc@plt>
  403543:	85 c0                	test   %eax,%eax
  403545:	0f 94 c0             	sete   %al
  403548:	c9                   	leaveq 
  403549:	c3                   	retq   

000000000040354a <_ZNSt6vectorISsSaISsEED1Ev>:
  40354a:	55                   	push   %rbp
  40354b:	48 89 e5             	mov    %rsp,%rbp
  40354e:	53                   	push   %rbx
  40354f:	48 83 ec 18          	sub    $0x18,%rsp
  403553:	48 89 7d e8          	mov    %rdi,-0x18(%rbp)
  403557:	48 8b 45 e8          	mov    -0x18(%rbp),%rax
  40355b:	48 89 c7             	mov    %rax,%rdi
  40355e:	e8 cf 07 00 00       	callq  403d32 <_ZNSt12_Vector_baseISsSaISsEE19_M_get_Tp_allocatorEv>
  403563:	48 89 c2             	mov    %rax,%rdx
  403566:	48 8b 45 e8          	mov    -0x18(%rbp),%rax
  40356a:	48 8b 48 08          	mov    0x8(%rax),%rcx
  40356e:	48 8b 45 e8          	mov    -0x18(%rbp),%rax
  403572:	48 8b 00             	mov    (%rax),%rax
  403575:	48 89 ce             	mov    %rcx,%rsi
  403578:	48 89 c7             	mov    %rax,%rdi
  40357b:	e8 c0 07 00 00       	callq  403d40 <_ZSt8_DestroyIPSsSsEvT_S1_RSaIT0_E>
  403580:	48 8b 45 e8          	mov    -0x18(%rbp),%rax
  403584:	48 89 c7             	mov    %rax,%rdi
  403587:	e8 34 07 00 00       	callq  403cc0 <_ZNSt12_Vector_baseISsSaISsEED1Ev>
  40358c:	eb 1a                	jmp    4035a8 <_ZNSt6vectorISsSaISsEED1Ev+0x5e>
  40358e:	48 89 c3             	mov    %rax,%rbx
  403591:	48 8b 45 e8          	mov    -0x18(%rbp),%rax
  403595:	48 89 c7             	mov    %rax,%rdi
  403598:	e8 23 07 00 00       	callq  403cc0 <_ZNSt12_Vector_baseISsSaISsEED1Ev>
  40359d:	48 89 d8             	mov    %rbx,%rax
  4035a0:	48 89 c7             	mov    %rax,%rdi
  4035a3:	e8 28 f3 ff ff       	callq  4028d0 <_Unwind_Resume@plt>
  4035a8:	48 83 c4 18          	add    $0x18,%rsp
  4035ac:	5b                   	pop    %rbx
  4035ad:	5d                   	pop    %rbp
  4035ae:	c3                   	retq   
  4035af:	90                   	nop

00000000004035b0 <_ZNSt6vectorISsSaISsEEC1ERKS1_>:
  4035b0:	55                   	push   %rbp
  4035b1:	48 89 e5             	mov    %rsp,%rbp
  4035b4:	41 55                	push   %r13
  4035b6:	41 54                	push   %r12
  4035b8:	53                   	push   %rbx
  4035b9:	48 83 ec 18          	sub    $0x18,%rsp
  4035bd:	48 89 7d d8          	mov    %rdi,-0x28(%rbp)
  4035c1:	48 89 75 d0          	mov    %rsi,-0x30(%rbp)
  4035c5:	48 8b 45 d0          	mov    -0x30(%rbp),%rax
  4035c9:	48 89 c7             	mov    %rax,%rdi
  4035cc:	e8 a7 07 00 00       	callq  403d78 <_ZNKSt12_Vector_baseISsSaISsEE19_M_get_Tp_allocatorEv>
  4035d1:	48 89 c7             	mov    %rax,%rdi
  4035d4:	e8 90 07 00 00       	callq  403d69 <_ZN9__gnu_cxx14__alloc_traitsISaISsEE17_S_select_on_copyERKS1_>
  4035d9:	48 89 c3             	mov    %rax,%rbx
  4035dc:	48 8b 45 d0          	mov    -0x30(%rbp),%rax
  4035e0:	48 89 c7             	mov    %rax,%rdi
  4035e3:	e8 a8 02 00 00       	callq  403890 <_ZNKSt6vectorISsSaISsEE4sizeEv>
  4035e8:	48 89 c1             	mov    %rax,%rcx
  4035eb:	48 8b 45 d8          	mov    -0x28(%rbp),%rax
  4035ef:	48 89 da             	mov    %rbx,%rdx
  4035f2:	48 89 ce             	mov    %rcx,%rsi
  4035f5:	48 89 c7             	mov    %rax,%rdi
  4035f8:	e8 89 07 00 00       	callq  403d86 <_ZNSt12_Vector_baseISsSaISsEEC1EmRKS0_>
  4035fd:	48 8b 45 d8          	mov    -0x28(%rbp),%rax
  403601:	48 89 c7             	mov    %rax,%rdi
  403604:	e8 29 07 00 00       	callq  403d32 <_ZNSt12_Vector_baseISsSaISsEE19_M_get_Tp_allocatorEv>
  403609:	49 89 c5             	mov    %rax,%r13
  40360c:	48 8b 45 d8          	mov    -0x28(%rbp),%rax
  403610:	4c 8b 20             	mov    (%rax),%r12
  403613:	48 8b 45 d0          	mov    -0x30(%rbp),%rax
  403617:	48 89 c7             	mov    %rax,%rdi
  40361a:	e8 f5 07 00 00       	callq  403e14 <_ZNKSt6vectorISsSaISsEE3endEv>
  40361f:	48 89 c3             	mov    %rax,%rbx
  403622:	48 8b 45 d0          	mov    -0x30(%rbp),%rax
  403626:	48 89 c7             	mov    %rax,%rdi
  403629:	e8 b6 07 00 00       	callq  403de4 <_ZNKSt6vectorISsSaISsEE5beginEv>
  40362e:	4c 89 e9             	mov    %r13,%rcx
  403631:	4c 89 e2             	mov    %r12,%rdx
  403634:	48 89 de             	mov    %rbx,%rsi
  403637:	48 89 c7             	mov    %rax,%rdi
  40363a:	e8 06 08 00 00       	callq  403e45 <_ZSt22__uninitialized_copy_aIN9__gnu_cxx17__normal_iteratorIPKSsSt6vectorISsSaISsEEEEPSsSsET0_T_SA_S9_RSaIT1_E>
  40363f:	48 8b 55 d8          	mov    -0x28(%rbp),%rdx
  403643:	48 89 42 08          	mov    %rax,0x8(%rdx)
  403647:	eb 1a                	jmp    403663 <_ZNSt6vectorISsSaISsEEC1ERKS1_+0xb3>
  403649:	48 89 c3             	mov    %rax,%rbx
  40364c:	48 8b 45 d8          	mov    -0x28(%rbp),%rax
  403650:	48 89 c7             	mov    %rax,%rdi
  403653:	e8 68 06 00 00       	callq  403cc0 <_ZNSt12_Vector_baseISsSaISsEED1Ev>
  403658:	48 89 d8             	mov    %rbx,%rax
  40365b:	48 89 c7             	mov    %rax,%rdi
  40365e:	e8 6d f2 ff ff       	callq  4028d0 <_Unwind_Resume@plt>
  403663:	48 83 c4 18          	add    $0x18,%rsp
  403667:	5b                   	pop    %rbx
  403668:	41 5c                	pop    %r12
  40366a:	41 5d                	pop    %r13
  40366c:	5d                   	pop    %rbp
  40366d:	c3                   	retq   

000000000040366e <_ZNSt5dequeIPSt6vectorISsSaISsEESaIS3_EEC1Ev>:
  40366e:	55                   	push   %rbp
  40366f:	48 89 e5             	mov    %rsp,%rbp
  403672:	48 83 ec 10          	sub    $0x10,%rsp
  403676:	48 89 7d f8          	mov    %rdi,-0x8(%rbp)
  40367a:	48 8b 45 f8          	mov    -0x8(%rbp),%rax
  40367e:	48 89 c7             	mov    %rax,%rdi
  403681:	e8 0a 08 00 00       	callq  403e90 <_ZNSt11_Deque_baseIPSt6vectorISsSaISsEESaIS3_EEC1Ev>
  403686:	c9                   	leaveq 
  403687:	c3                   	retq   

0000000000403688 <_ZNSt5dequeIPSt6vectorISsSaISsEESaIS3_EED1Ev>:
  403688:	55                   	push   %rbp
  403689:	48 89 e5             	mov    %rsp,%rbp
  40368c:	53                   	push   %rbx
  40368d:	48 83 ec 58          	sub    $0x58,%rsp
  403691:	48 89 7d a8          	mov    %rdi,-0x58(%rbp)
  403695:	48 8b 45 a8          	mov    -0x58(%rbp),%rax
  403699:	48 89 c7             	mov    %rax,%rdi
  40369c:	e8 23 09 00 00       	callq  403fc4 <_ZNSt11_Deque_baseIPSt6vectorISsSaISsEESaIS3_EE19_M_get_Tp_allocatorEv>
  4036a1:	48 89 c3             	mov    %rax,%rbx
  4036a4:	48 8d 45 d0          	lea    -0x30(%rbp),%rax
  4036a8:	48 8b 55 a8          	mov    -0x58(%rbp),%rdx
  4036ac:	48 89 d6             	mov    %rdx,%rsi
  4036af:	48 89 c7             	mov    %rax,%rdi
  4036b2:	e8 df 08 00 00       	callq  403f96 <_ZNSt5dequeIPSt6vectorISsSaISsEESaIS3_EE3endEv>
  4036b7:	48 8d 45 b0          	lea    -0x50(%rbp),%rax
  4036bb:	48 8b 55 a8          	mov    -0x58(%rbp),%rdx
  4036bf:	48 89 d6             	mov    %rdx,%rsi
  4036c2:	48 89 c7             	mov    %rax,%rdi
  4036c5:	e8 9e 08 00 00       	callq  403f68 <_ZNSt5dequeIPSt6vectorISsSaISsEESaIS3_EE5beginEv>
  4036ca:	48 8d 55 d0          	lea    -0x30(%rbp),%rdx
  4036ce:	48 8d 75 b0          	lea    -0x50(%rbp),%rsi
  4036d2:	48 8b 45 a8          	mov    -0x58(%rbp),%rax
  4036d6:	48 89 d9             	mov    %rbx,%rcx
  4036d9:	48 89 c7             	mov    %rax,%rdi
  4036dc:	e8 3d 09 00 00       	callq  40401e <_ZNSt5dequeIPSt6vectorISsSaISsEESaIS3_EE15_M_destroy_dataESt15_Deque_iteratorIS3_RS3_PS3_ES9_RKS4_>
  4036e1:	48 8b 45 a8          	mov    -0x58(%rbp),%rax
  4036e5:	48 89 c7             	mov    %rax,%rdi
  4036e8:	e8 f1 07 00 00       	callq  403ede <_ZNSt11_Deque_baseIPSt6vectorISsSaISsEESaIS3_EED1Ev>
  4036ed:	eb 1a                	jmp    403709 <_ZNSt5dequeIPSt6vectorISsSaISsEESaIS3_EED1Ev+0x81>
  4036ef:	48 89 c3             	mov    %rax,%rbx
  4036f2:	48 8b 45 a8          	mov    -0x58(%rbp),%rax
  4036f6:	48 89 c7             	mov    %rax,%rdi
  4036f9:	e8 e0 07 00 00       	callq  403ede <_ZNSt11_Deque_baseIPSt6vectorISsSaISsEESaIS3_EED1Ev>
  4036fe:	48 89 d8             	mov    %rbx,%rax
  403701:	48 89 c7             	mov    %rax,%rdi
  403704:	e8 c7 f1 ff ff       	callq  4028d0 <_Unwind_Resume@plt>
  403709:	48 83 c4 58          	add    $0x58,%rsp
  40370d:	5b                   	pop    %rbx
  40370e:	5d                   	pop    %rbp
  40370f:	c3                   	retq   

0000000000403710 <_ZNSaISsEC1Ev>:
  403710:	55                   	push   %rbp
  403711:	48 89 e5             	mov    %rsp,%rbp
  403714:	48 83 ec 10          	sub    $0x10,%rsp
  403718:	48 89 7d f8          	mov    %rdi,-0x8(%rbp)
  40371c:	48 8b 45 f8          	mov    -0x8(%rbp),%rax
  403720:	48 89 c7             	mov    %rax,%rdi
  403723:	e8 0c 09 00 00       	callq  404034 <_ZN9__gnu_cxx13new_allocatorISsEC1Ev>
  403728:	c9                   	leaveq 
  403729:	c3                   	retq   

000000000040372a <_ZNSaISsED1Ev>:
  40372a:	55                   	push   %rbp
  40372b:	48 89 e5             	mov    %rsp,%rbp
  40372e:	48 83 ec 10          	sub    $0x10,%rsp
  403732:	48 89 7d f8          	mov    %rdi,-0x8(%rbp)
  403736:	48 8b 45 f8          	mov    -0x8(%rbp),%rax
  40373a:	48 89 c7             	mov    %rax,%rdi
  40373d:	e8 fc 08 00 00       	callq  40403e <_ZN9__gnu_cxx13new_allocatorISsED1Ev>
  403742:	c9                   	leaveq 
  403743:	c3                   	retq   

0000000000403744 <_ZNSt6vectorISsSaISsEEC1EmRKSsRKS0_>:
  403744:	55                   	push   %rbp
  403745:	48 89 e5             	mov    %rsp,%rbp
  403748:	53                   	push   %rbx
  403749:	48 83 ec 28          	sub    $0x28,%rsp
  40374d:	48 89 7d e8          	mov    %rdi,-0x18(%rbp)
  403751:	48 89 75 e0          	mov    %rsi,-0x20(%rbp)
  403755:	48 89 55 d8          	mov    %rdx,-0x28(%rbp)
  403759:	48 89 4d d0          	mov    %rcx,-0x30(%rbp)
  40375d:	48 8b 45 e8          	mov    -0x18(%rbp),%rax
  403761:	48 8b 55 d0          	mov    -0x30(%rbp),%rdx
  403765:	48 8b 4d e0          	mov    -0x20(%rbp),%rcx
  403769:	48 89 ce             	mov    %rcx,%rsi
  40376c:	48 89 c7             	mov    %rax,%rdi
  40376f:	e8 12 06 00 00       	callq  403d86 <_ZNSt12_Vector_baseISsSaISsEEC1EmRKS0_>
  403774:	48 8b 55 d8          	mov    -0x28(%rbp),%rdx
  403778:	48 8b 4d e0          	mov    -0x20(%rbp),%rcx
  40377c:	48 8b 45 e8          	mov    -0x18(%rbp),%rax
  403780:	48 89 ce             	mov    %rcx,%rsi
  403783:	48 89 c7             	mov    %rax,%rdi
  403786:	e8 bd 08 00 00       	callq  404048 <_ZNSt6vectorISsSaISsEE18_M_fill_initializeEmRKSs>
  40378b:	eb 1a                	jmp    4037a7 <_ZNSt6vectorISsSaISsEEC1EmRKSsRKS0_+0x63>
  40378d:	48 89 c3             	mov    %rax,%rbx
  403790:	48 8b 45 e8          	mov    -0x18(%rbp),%rax
  403794:	48 89 c7             	mov    %rax,%rdi
  403797:	e8 24 05 00 00       	callq  403cc0 <_ZNSt12_Vector_baseISsSaISsEED1Ev>
  40379c:	48 89 d8             	mov    %rbx,%rax
  40379f:	48 89 c7             	mov    %rax,%rdi
  4037a2:	e8 29 f1 ff ff       	callq  4028d0 <_Unwind_Resume@plt>
  4037a7:	48 83 c4 28          	add    $0x28,%rsp
  4037ab:	5b                   	pop    %rbx
  4037ac:	5d                   	pop    %rbp
  4037ad:	c3                   	retq   

00000000004037ae <_ZNSt6vectorISsSaISsEEC1Ev>:
  4037ae:	55                   	push   %rbp
  4037af:	48 89 e5             	mov    %rsp,%rbp
  4037b2:	48 83 ec 10          	sub    $0x10,%rsp
  4037b6:	48 89 7d f8          	mov    %rdi,-0x8(%rbp)
  4037ba:	48 8b 45 f8          	mov    -0x8(%rbp),%rax
  4037be:	48 89 c7             	mov    %rax,%rdi
  4037c1:	e8 ce 08 00 00       	callq  404094 <_ZNSt12_Vector_baseISsSaISsEEC1Ev>
  4037c6:	c9                   	leaveq 
  4037c7:	c3                   	retq   

00000000004037c8 <_ZNSt5dequeIPSt6vectorISsSaISsEESaIS3_EE9push_backERKS3_>:
  4037c8:	55                   	push   %rbp
  4037c9:	48 89 e5             	mov    %rsp,%rbp
  4037cc:	48 83 ec 10          	sub    $0x10,%rsp
  4037d0:	48 89 7d f8          	mov    %rdi,-0x8(%rbp)
  4037d4:	48 89 75 f0          	mov    %rsi,-0x10(%rbp)
  4037d8:	48 8b 45 f8          	mov    -0x8(%rbp),%rax
  4037dc:	48 8b 50 30          	mov    0x30(%rax),%rdx
  4037e0:	48 8b 45 f8          	mov    -0x8(%rbp),%rax
  4037e4:	48 8b 40 40          	mov    0x40(%rax),%rax
  4037e8:	48 83 e8 08          	sub    $0x8,%rax
  4037ec:	48 39 c2             	cmp    %rax,%rdx
  4037ef:	74 31                	je     403822 <_ZNSt5dequeIPSt6vectorISsSaISsEESaIS3_EE9push_backERKS3_+0x5a>
  4037f1:	48 8b 45 f8          	mov    -0x8(%rbp),%rax
  4037f5:	48 8b 48 30          	mov    0x30(%rax),%rcx
  4037f9:	48 8b 45 f8          	mov    -0x8(%rbp),%rax
  4037fd:	48 8b 55 f0          	mov    -0x10(%rbp),%rdx
  403801:	48 89 ce             	mov    %rcx,%rsi
  403804:	48 89 c7             	mov    %rax,%rdi
  403807:	e8 a2 08 00 00       	callq  4040ae <_ZN9__gnu_cxx13new_allocatorIPSt6vectorISsSaISsEEE9constructEPS4_RKS4_>
  40380c:	48 8b 45 f8          	mov    -0x8(%rbp),%rax
  403810:	48 8b 40 30          	mov    0x30(%rax),%rax
  403814:	48 8d 50 08          	lea    0x8(%rax),%rdx
  403818:	48 8b 45 f8          	mov    -0x8(%rbp),%rax
  40381c:	48 89 50 30          	mov    %rdx,0x30(%rax)
  403820:	eb 13                	jmp    403835 <_ZNSt5dequeIPSt6vectorISsSaISsEESaIS3_EE9push_backERKS3_+0x6d>
  403822:	48 8b 55 f0          	mov    -0x10(%rbp),%rdx
  403826:	48 8b 45 f8          	mov    -0x8(%rbp),%rax
  40382a:	48 89 d6             	mov    %rdx,%rsi
  40382d:	48 89 c7             	mov    %rax,%rdi
  403830:	e8 af 08 00 00       	callq  4040e4 <_ZNSt5dequeIPSt6vectorISsSaISsEESaIS3_EE16_M_push_back_auxERKS3_>
  403835:	c9                   	leaveq 
  403836:	c3                   	retq   
  403837:	90                   	nop

0000000000403838 <_ZNKSt5dequeIPSt6vectorISsSaISsEESaIS3_EE5emptyEv>:
  403838:	55                   	push   %rbp
  403839:	48 89 e5             	mov    %rsp,%rbp
  40383c:	48 83 ec 10          	sub    $0x10,%rsp
  403840:	48 89 7d f8          	mov    %rdi,-0x8(%rbp)
  403844:	48 8b 45 f8          	mov    -0x8(%rbp),%rax
  403848:	48 8d 50 10          	lea    0x10(%rax),%rdx
  40384c:	48 8b 45 f8          	mov    -0x8(%rbp),%rax
  403850:	48 83 c0 30          	add    $0x30,%rax
  403854:	48 89 d6             	mov    %rdx,%rsi
  403857:	48 89 c7             	mov    %rax,%rdi
  40385a:	e8 53 09 00 00       	callq  4041b2 <_ZSteqIPSt6vectorISsSaISsEERS3_PS3_EbRKSt15_Deque_iteratorIT_T0_T1_ESC_>
  40385f:	c9                   	leaveq 
  403860:	c3                   	retq   
  403861:	90                   	nop

0000000000403862 <_ZNSt5dequeIPSt6vectorISsSaISsEESaIS3_EE5frontEv>:
  403862:	55                   	push   %rbp
  403863:	48 89 e5             	mov    %rsp,%rbp
  403866:	48 83 ec 30          	sub    $0x30,%rsp
  40386a:	48 89 7d d8          	mov    %rdi,-0x28(%rbp)
  40386e:	48 8d 45 e0          	lea    -0x20(%rbp),%rax
  403872:	48 8b 55 d8          	mov    -0x28(%rbp),%rdx
  403876:	48 89 d6             	mov    %rdx,%rsi
  403879:	48 89 c7             	mov    %rax,%rdi
  40387c:	e8 e7 06 00 00       	callq  403f68 <_ZNSt5dequeIPSt6vectorISsSaISsEESaIS3_EE5beginEv>
  403881:	48 8d 45 e0          	lea    -0x20(%rbp),%rax
  403885:	48 89 c7             	mov    %rax,%rdi
  403888:	e8 47 09 00 00       	callq  4041d4 <_ZNKSt15_Deque_iteratorIPSt6vectorISsSaISsEERS3_PS3_EdeEv>
  40388d:	c9                   	leaveq 
  40388e:	c3                   	retq   
  40388f:	90                   	nop

0000000000403890 <_ZNKSt6vectorISsSaISsEE4sizeEv>:
  403890:	55                   	push   %rbp
  403891:	48 89 e5             	mov    %rsp,%rbp
  403894:	48 89 7d f8          	mov    %rdi,-0x8(%rbp)
  403898:	48 8b 45 f8          	mov    -0x8(%rbp),%rax
  40389c:	48 8b 40 08          	mov    0x8(%rax),%rax
  4038a0:	48 89 c2             	mov    %rax,%rdx
  4038a3:	48 8b 45 f8          	mov    -0x8(%rbp),%rax
  4038a7:	48 8b 00             	mov    (%rax),%rax
  4038aa:	48 29 c2             	sub    %rax,%rdx
  4038ad:	48 89 d0             	mov    %rdx,%rax
  4038b0:	48 c1 f8 03          	sar    $0x3,%rax
  4038b4:	5d                   	pop    %rbp
  4038b5:	c3                   	retq   

00000000004038b6 <_ZNSt6vectorISsSaISsEE2atEm>:
  4038b6:	55                   	push   %rbp
  4038b7:	48 89 e5             	mov    %rsp,%rbp
  4038ba:	48 83 ec 10          	sub    $0x10,%rsp
  4038be:	48 89 7d f8          	mov    %rdi,-0x8(%rbp)
  4038c2:	48 89 75 f0          	mov    %rsi,-0x10(%rbp)
  4038c6:	48 8b 55 f0          	mov    -0x10(%rbp),%rdx
  4038ca:	48 8b 45 f8          	mov    -0x8(%rbp),%rax
  4038ce:	48 89 d6             	mov    %rdx,%rsi
  4038d1:	48 89 c7             	mov    %rax,%rdi
  4038d4:	e8 0d 09 00 00       	callq  4041e6 <_ZNKSt6vectorISsSaISsEE14_M_range_checkEm>
  4038d9:	48 8b 55 f0          	mov    -0x10(%rbp),%rdx
  4038dd:	48 8b 45 f8          	mov    -0x8(%rbp),%rax
  4038e1:	48 89 d6             	mov    %rdx,%rsi
  4038e4:	48 89 c7             	mov    %rax,%rdi
  4038e7:	e8 9a 03 00 00       	callq  403c86 <_ZNSt6vectorISsSaISsEEixEm>
  4038ec:	c9                   	leaveq 
  4038ed:	c3                   	retq   

00000000004038ee <_ZSteqIcEN9__gnu_cxx11__enable_ifIXsrSt9__is_charIT_E7__valueEbE6__typeERKSbIS3_St11char_traitsIS3_ESaIS3_EESC_>:
  4038ee:	55                   	push   %rbp
  4038ef:	48 89 e5             	mov    %rsp,%rbp
  4038f2:	41 54                	push   %r12
  4038f4:	53                   	push   %rbx
  4038f5:	48 83 ec 10          	sub    $0x10,%rsp
  4038f9:	48 89 7d e8          	mov    %rdi,-0x18(%rbp)
  4038fd:	48 89 75 e0          	mov    %rsi,-0x20(%rbp)
  403901:	48 8b 45 e8          	mov    -0x18(%rbp),%rax
  403905:	48 89 c7             	mov    %rax,%rdi
  403908:	e8 93 eb ff ff       	callq  4024a0 <_ZNKSs4sizeEv@plt>
  40390d:	48 89 c3             	mov    %rax,%rbx
  403910:	48 8b 45 e0          	mov    -0x20(%rbp),%rax
  403914:	48 89 c7             	mov    %rax,%rdi
  403917:	e8 84 eb ff ff       	callq  4024a0 <_ZNKSs4sizeEv@plt>
  40391c:	48 39 c3             	cmp    %rax,%rbx
  40391f:	75 43                	jne    403964 <_ZSteqIcEN9__gnu_cxx11__enable_ifIXsrSt9__is_charIT_E7__valueEbE6__typeERKSbIS3_St11char_traitsIS3_ESaIS3_EESC_+0x76>
  403921:	48 8b 45 e8          	mov    -0x18(%rbp),%rax
  403925:	48 89 c7             	mov    %rax,%rdi
  403928:	e8 73 eb ff ff       	callq  4024a0 <_ZNKSs4sizeEv@plt>
  40392d:	49 89 c4             	mov    %rax,%r12
  403930:	48 8b 45 e0          	mov    -0x20(%rbp),%rax
  403934:	48 89 c7             	mov    %rax,%rdi
  403937:	e8 84 ed ff ff       	callq  4026c0 <_ZNKSs4dataEv@plt>
  40393c:	48 89 c3             	mov    %rax,%rbx
  40393f:	48 8b 45 e8          	mov    -0x18(%rbp),%rax
  403943:	48 89 c7             	mov    %rax,%rdi
  403946:	e8 75 ed ff ff       	callq  4026c0 <_ZNKSs4dataEv@plt>
  40394b:	4c 89 e2             	mov    %r12,%rdx
  40394e:	48 89 de             	mov    %rbx,%rsi
  403951:	48 89 c7             	mov    %rax,%rdi
  403954:	e8 51 fb ff ff       	callq  4034aa <_ZNSt11char_traitsIcE7compareEPKcS2_m>
  403959:	85 c0                	test   %eax,%eax
  40395b:	75 07                	jne    403964 <_ZSteqIcEN9__gnu_cxx11__enable_ifIXsrSt9__is_charIT_E7__valueEbE6__typeERKSbIS3_St11char_traitsIS3_ESaIS3_EESC_+0x76>
  40395d:	b8 01 00 00 00       	mov    $0x1,%eax
  403962:	eb 05                	jmp    403969 <_ZSteqIcEN9__gnu_cxx11__enable_ifIXsrSt9__is_charIT_E7__valueEbE6__typeERKSbIS3_St11char_traitsIS3_ESaIS3_EESC_+0x7b>
  403964:	b8 00 00 00 00       	mov    $0x0,%eax
  403969:	48 83 c4 10          	add    $0x10,%rsp
  40396d:	5b                   	pop    %rbx
  40396e:	41 5c                	pop    %r12
  403970:	5d                   	pop    %rbp
  403971:	c3                   	retq   

0000000000403972 <_ZNSt6vectorISsSaISsEEaSERKS1_>:
  403972:	55                   	push   %rbp
  403973:	48 89 e5             	mov    %rsp,%rbp
  403976:	41 56                	push   %r14
  403978:	41 55                	push   %r13
  40397a:	41 54                	push   %r12
  40397c:	53                   	push   %rbx
  40397d:	48 83 ec 20          	sub    $0x20,%rsp
  403981:	48 89 7d c8          	mov    %rdi,-0x38(%rbp)
  403985:	48 89 75 c0          	mov    %rsi,-0x40(%rbp)
  403989:	48 8b 45 c0          	mov    -0x40(%rbp),%rax
  40398d:	48 3b 45 c8          	cmp    -0x38(%rbp),%rax
  403991:	0f 84 03 02 00 00    	je     403b9a <_ZNSt6vectorISsSaISsEEaSERKS1_+0x228>
  403997:	48 8b 45 c0          	mov    -0x40(%rbp),%rax
  40399b:	48 89 c7             	mov    %rax,%rdi
  40399e:	e8 ed fe ff ff       	callq  403890 <_ZNKSt6vectorISsSaISsEE4sizeEv>
  4039a3:	48 89 45 d0          	mov    %rax,-0x30(%rbp)
  4039a7:	48 8b 45 c8          	mov    -0x38(%rbp),%rax
  4039ab:	48 89 c7             	mov    %rax,%rdi
  4039ae:	e8 67 08 00 00       	callq  40421a <_ZNKSt6vectorISsSaISsEE8capacityEv>
  4039b3:	48 3b 45 d0          	cmp    -0x30(%rbp),%rax
  4039b7:	0f 92 c0             	setb   %al
  4039ba:	84 c0                	test   %al,%al
  4039bc:	0f 84 bd 00 00 00    	je     403a7f <_ZNSt6vectorISsSaISsEEaSERKS1_+0x10d>
  4039c2:	48 8b 45 c0          	mov    -0x40(%rbp),%rax
  4039c6:	48 89 c7             	mov    %rax,%rdi
  4039c9:	e8 46 04 00 00       	callq  403e14 <_ZNKSt6vectorISsSaISsEE3endEv>
  4039ce:	48 89 c3             	mov    %rax,%rbx
  4039d1:	48 8b 45 c0          	mov    -0x40(%rbp),%rax
  4039d5:	48 89 c7             	mov    %rax,%rdi
  4039d8:	e8 07 04 00 00       	callq  403de4 <_ZNKSt6vectorISsSaISsEE5beginEv>
  4039dd:	48 89 c2             	mov    %rax,%rdx
  4039e0:	48 8b 75 d0          	mov    -0x30(%rbp),%rsi
  4039e4:	48 8b 45 c8          	mov    -0x38(%rbp),%rax
  4039e8:	48 89 d9             	mov    %rbx,%rcx
  4039eb:	48 89 c7             	mov    %rax,%rdi
  4039ee:	e8 4d 08 00 00       	callq  404240 <_ZNSt6vectorISsSaISsEE20_M_allocate_and_copyIN9__gnu_cxx17__normal_iteratorIPKSsS1_EEEEPSsmT_S9_>
  4039f3:	48 89 45 d8          	mov    %rax,-0x28(%rbp)
  4039f7:	48 8b 45 c8          	mov    -0x38(%rbp),%rax
  4039fb:	48 89 c7             	mov    %rax,%rdi
  4039fe:	e8 2f 03 00 00       	callq  403d32 <_ZNSt12_Vector_baseISsSaISsEE19_M_get_Tp_allocatorEv>
  403a03:	48 89 c2             	mov    %rax,%rdx
  403a06:	48 8b 45 c8          	mov    -0x38(%rbp),%rax
  403a0a:	48 8b 48 08          	mov    0x8(%rax),%rcx
  403a0e:	48 8b 45 c8          	mov    -0x38(%rbp),%rax
  403a12:	48 8b 00             	mov    (%rax),%rax
  403a15:	48 89 ce             	mov    %rcx,%rsi
  403a18:	48 89 c7             	mov    %rax,%rdi
  403a1b:	e8 20 03 00 00       	callq  403d40 <_ZSt8_DestroyIPSsSsEvT_S1_RSaIT0_E>
  403a20:	48 8b 45 c8          	mov    -0x38(%rbp),%rax
  403a24:	48 8b 40 10          	mov    0x10(%rax),%rax
  403a28:	48 89 c2             	mov    %rax,%rdx
  403a2b:	48 8b 45 c8          	mov    -0x38(%rbp),%rax
  403a2f:	48 8b 00             	mov    (%rax),%rax
  403a32:	48 29 c2             	sub    %rax,%rdx
  403a35:	48 89 d0             	mov    %rdx,%rax
  403a38:	48 c1 f8 03          	sar    $0x3,%rax
  403a3c:	48 89 c2             	mov    %rax,%rdx
  403a3f:	48 8b 45 c8          	mov    -0x38(%rbp),%rax
  403a43:	48 8b 08             	mov    (%rax),%rcx
  403a46:	48 8b 45 c8          	mov    -0x38(%rbp),%rax
  403a4a:	48 89 ce             	mov    %rcx,%rsi
  403a4d:	48 89 c7             	mov    %rax,%rdi
  403a50:	e8 83 08 00 00       	callq  4042d8 <_ZNSt12_Vector_baseISsSaISsEE13_M_deallocateEPSsm>
  403a55:	48 8b 45 c8          	mov    -0x38(%rbp),%rax
  403a59:	48 8b 55 d8          	mov    -0x28(%rbp),%rdx
  403a5d:	48 89 10             	mov    %rdx,(%rax)
  403a60:	48 8b 45 c8          	mov    -0x38(%rbp),%rax
  403a64:	48 8b 00             	mov    (%rax),%rax
  403a67:	48 8b 55 d0          	mov    -0x30(%rbp),%rdx
  403a6b:	48 c1 e2 03          	shl    $0x3,%rdx
  403a6f:	48 01 c2             	add    %rax,%rdx
  403a72:	48 8b 45 c8          	mov    -0x38(%rbp),%rax
  403a76:	48 89 50 10          	mov    %rdx,0x10(%rax)
  403a7a:	e9 01 01 00 00       	jmpq   403b80 <_ZNSt6vectorISsSaISsEEaSERKS1_+0x20e>
  403a7f:	48 8b 45 c8          	mov    -0x38(%rbp),%rax
  403a83:	48 89 c7             	mov    %rax,%rdi
  403a86:	e8 05 fe ff ff       	callq  403890 <_ZNKSt6vectorISsSaISsEE4sizeEv>
  403a8b:	48 3b 45 d0          	cmp    -0x30(%rbp),%rax
  403a8f:	0f 93 c0             	setae  %al
  403a92:	84 c0                	test   %al,%al
  403a94:	74 69                	je     403aff <_ZNSt6vectorISsSaISsEEaSERKS1_+0x18d>
  403a96:	48 8b 45 c8          	mov    -0x38(%rbp),%rax
  403a9a:	48 89 c7             	mov    %rax,%rdi
  403a9d:	e8 90 02 00 00       	callq  403d32 <_ZNSt12_Vector_baseISsSaISsEE19_M_get_Tp_allocatorEv>
  403aa2:	49 89 c4             	mov    %rax,%r12
  403aa5:	48 8b 45 c8          	mov    -0x38(%rbp),%rax
  403aa9:	48 89 c7             	mov    %rax,%rdi
  403aac:	e8 c7 08 00 00       	callq  404378 <_ZNSt6vectorISsSaISsEE3endEv>
  403ab1:	48 89 c3             	mov    %rax,%rbx
  403ab4:	48 8b 45 c8          	mov    -0x38(%rbp),%rax
  403ab8:	48 89 c7             	mov    %rax,%rdi
  403abb:	e8 4c 08 00 00       	callq  40430c <_ZNSt6vectorISsSaISsEE5beginEv>
  403ac0:	49 89 c6             	mov    %rax,%r14
  403ac3:	48 8b 45 c0          	mov    -0x40(%rbp),%rax
  403ac7:	48 89 c7             	mov    %rax,%rdi
  403aca:	e8 45 03 00 00       	callq  403e14 <_ZNKSt6vectorISsSaISsEE3endEv>
  403acf:	49 89 c5             	mov    %rax,%r13
  403ad2:	48 8b 45 c0          	mov    -0x40(%rbp),%rax
  403ad6:	48 89 c7             	mov    %rax,%rdi
  403ad9:	e8 06 03 00 00       	callq  403de4 <_ZNKSt6vectorISsSaISsEE5beginEv>
  403ade:	4c 89 f2             	mov    %r14,%rdx
  403ae1:	4c 89 ee             	mov    %r13,%rsi
  403ae4:	48 89 c7             	mov    %rax,%rdi
  403ae7:	e8 45 08 00 00       	callq  404331 <_ZSt4copyIN9__gnu_cxx17__normal_iteratorIPKSsSt6vectorISsSaISsEEEENS1_IPSsS6_EEET0_T_SB_SA_>
  403aec:	4c 89 e2             	mov    %r12,%rdx
  403aef:	48 89 de             	mov    %rbx,%rsi
  403af2:	48 89 c7             	mov    %rax,%rdi
  403af5:	e8 a7 08 00 00       	callq  4043a1 <_ZSt8_DestroyIN9__gnu_cxx17__normal_iteratorIPSsSt6vectorISsSaISsEEEESsEvT_S7_RSaIT0_E>
  403afa:	e9 81 00 00 00       	jmpq   403b80 <_ZNSt6vectorISsSaISsEEaSERKS1_+0x20e>
  403aff:	48 8b 45 c8          	mov    -0x38(%rbp),%rax
  403b03:	48 8b 18             	mov    (%rax),%rbx
  403b06:	48 8b 45 c0          	mov    -0x40(%rbp),%rax
  403b0a:	4c 8b 20             	mov    (%rax),%r12
  403b0d:	48 8b 45 c8          	mov    -0x38(%rbp),%rax
  403b11:	48 89 c7             	mov    %rax,%rdi
  403b14:	e8 77 fd ff ff       	callq  403890 <_ZNKSt6vectorISsSaISsEE4sizeEv>
  403b19:	48 c1 e0 03          	shl    $0x3,%rax
  403b1d:	49 8d 0c 04          	lea    (%r12,%rax,1),%rcx
  403b21:	48 8b 45 c0          	mov    -0x40(%rbp),%rax
  403b25:	48 8b 00             	mov    (%rax),%rax
  403b28:	48 89 da             	mov    %rbx,%rdx
  403b2b:	48 89 ce             	mov    %rcx,%rsi
  403b2e:	48 89 c7             	mov    %rax,%rdi
  403b31:	e8 94 08 00 00       	callq  4043ca <_ZSt4copyIPSsS0_ET0_T_S2_S1_>
  403b36:	48 8b 45 c8          	mov    -0x38(%rbp),%rax
  403b3a:	48 89 c7             	mov    %rax,%rdi
  403b3d:	e8 f0 01 00 00       	callq  403d32 <_ZNSt12_Vector_baseISsSaISsEE19_M_get_Tp_allocatorEv>
  403b42:	49 89 c5             	mov    %rax,%r13
  403b45:	48 8b 45 c8          	mov    -0x38(%rbp),%rax
  403b49:	4c 8b 60 08          	mov    0x8(%rax),%r12
  403b4d:	48 8b 45 c0          	mov    -0x40(%rbp),%rax
  403b51:	48 8b 58 08          	mov    0x8(%rax),%rbx
  403b55:	48 8b 45 c0          	mov    -0x40(%rbp),%rax
  403b59:	4c 8b 30             	mov    (%rax),%r14
  403b5c:	48 8b 45 c8          	mov    -0x38(%rbp),%rax
  403b60:	48 89 c7             	mov    %rax,%rdi
  403b63:	e8 28 fd ff ff       	callq  403890 <_ZNKSt6vectorISsSaISsEE4sizeEv>
  403b68:	48 c1 e0 03          	shl    $0x3,%rax
  403b6c:	4c 01 f0             	add    %r14,%rax
  403b6f:	4c 89 e9             	mov    %r13,%rcx
  403b72:	4c 89 e2             	mov    %r12,%rdx
  403b75:	48 89 de             	mov    %rbx,%rsi
  403b78:	48 89 c7             	mov    %rax,%rdi
  403b7b:	e8 90 08 00 00       	callq  404410 <_ZSt22__uninitialized_copy_aIPSsS0_SsET0_T_S2_S1_RSaIT1_E>
  403b80:	48 8b 45 c8          	mov    -0x38(%rbp),%rax
  403b84:	48 8b 00             	mov    (%rax),%rax
  403b87:	48 8b 55 d0          	mov    -0x30(%rbp),%rdx
  403b8b:	48 c1 e2 03          	shl    $0x3,%rdx
  403b8f:	48 01 c2             	add    %rax,%rdx
  403b92:	48 8b 45 c8          	mov    -0x38(%rbp),%rax
  403b96:	48 89 50 08          	mov    %rdx,0x8(%rax)
  403b9a:	48 8b 45 c8          	mov    -0x38(%rbp),%rax
  403b9e:	48 83 c4 20          	add    $0x20,%rsp
  403ba2:	5b                   	pop    %rbx
  403ba3:	41 5c                	pop    %r12
  403ba5:	41 5d                	pop    %r13
  403ba7:	41 5e                	pop    %r14
  403ba9:	5d                   	pop    %rbp
  403baa:	c3                   	retq   
  403bab:	90                   	nop

0000000000403bac <_ZNSt6vectorISsSaISsEE9push_backERKSs>:
  403bac:	55                   	push   %rbp
  403bad:	48 89 e5             	mov    %rsp,%rbp
  403bb0:	48 83 ec 10          	sub    $0x10,%rsp
  403bb4:	48 89 7d f8          	mov    %rdi,-0x8(%rbp)
  403bb8:	48 89 75 f0          	mov    %rsi,-0x10(%rbp)
  403bbc:	48 8b 45 f8          	mov    -0x8(%rbp),%rax
  403bc0:	48 8b 50 08          	mov    0x8(%rax),%rdx
  403bc4:	48 8b 45 f8          	mov    -0x8(%rbp),%rax
  403bc8:	48 8b 40 10          	mov    0x10(%rax),%rax
  403bcc:	48 39 c2             	cmp    %rax,%rdx
  403bcf:	74 31                	je     403c02 <_ZNSt6vectorISsSaISsEE9push_backERKSs+0x56>
  403bd1:	48 8b 45 f8          	mov    -0x8(%rbp),%rax
  403bd5:	48 8b 48 08          	mov    0x8(%rax),%rcx
  403bd9:	48 8b 45 f8          	mov    -0x8(%rbp),%rax
  403bdd:	48 8b 55 f0          	mov    -0x10(%rbp),%rdx
  403be1:	48 89 ce             	mov    %rcx,%rsi
  403be4:	48 89 c7             	mov    %rax,%rdi
  403be7:	e8 55 08 00 00       	callq  404441 <_ZN9__gnu_cxx14__alloc_traitsISaISsEE9constructISsEEvRS1_PSsRKT_>
  403bec:	48 8b 45 f8          	mov    -0x8(%rbp),%rax
  403bf0:	48 8b 40 08          	mov    0x8(%rax),%rax
  403bf4:	48 8d 50 08          	lea    0x8(%rax),%rdx
  403bf8:	48 8b 45 f8          	mov    -0x8(%rbp),%rax
  403bfc:	48 89 50 08          	mov    %rdx,0x8(%rax)
  403c00:	eb 22                	jmp    403c24 <_ZNSt6vectorISsSaISsEE9push_backERKSs+0x78>
  403c02:	48 8b 45 f8          	mov    -0x8(%rbp),%rax
  403c06:	48 89 c7             	mov    %rax,%rdi
  403c09:	e8 6a 07 00 00       	callq  404378 <_ZNSt6vectorISsSaISsEE3endEv>
  403c0e:	48 89 c1             	mov    %rax,%rcx
  403c11:	48 8b 55 f0          	mov    -0x10(%rbp),%rdx
  403c15:	48 8b 45 f8          	mov    -0x8(%rbp),%rax
  403c19:	48 89 ce             	mov    %rcx,%rsi
  403c1c:	48 89 c7             	mov    %rax,%rdi
  403c1f:	e8 4a 08 00 00       	callq  40446e <_ZNSt6vectorISsSaISsEE13_M_insert_auxEN9__gnu_cxx17__normal_iteratorIPSsS1_EERKSs>
  403c24:	c9                   	leaveq 
  403c25:	c3                   	retq   

0000000000403c26 <_ZNSt5dequeIPSt6vectorISsSaISsEESaIS3_EE9pop_frontEv>:
  403c26:	55                   	push   %rbp
  403c27:	48 89 e5             	mov    %rsp,%rbp
  403c2a:	48 83 ec 10          	sub    $0x10,%rsp
  403c2e:	48 89 7d f8          	mov    %rdi,-0x8(%rbp)
  403c32:	48 8b 45 f8          	mov    -0x8(%rbp),%rax
  403c36:	48 8b 50 10          	mov    0x10(%rax),%rdx
  403c3a:	48 8b 45 f8          	mov    -0x8(%rbp),%rax
  403c3e:	48 8b 40 20          	mov    0x20(%rax),%rax
  403c42:	48 83 e8 08          	sub    $0x8,%rax
  403c46:	48 39 c2             	cmp    %rax,%rdx
  403c49:	74 2d                	je     403c78 <_ZNSt5dequeIPSt6vectorISsSaISsEESaIS3_EE9pop_frontEv+0x52>
  403c4b:	48 8b 45 f8          	mov    -0x8(%rbp),%rax
  403c4f:	48 8b 50 10          	mov    0x10(%rax),%rdx
  403c53:	48 8b 45 f8          	mov    -0x8(%rbp),%rax
  403c57:	48 89 d6             	mov    %rdx,%rsi
  403c5a:	48 89 c7             	mov    %rax,%rdi
  403c5d:	e8 2c 0b 00 00       	callq  40478e <_ZN9__gnu_cxx13new_allocatorIPSt6vectorISsSaISsEEE7destroyEPS4_>
  403c62:	48 8b 45 f8          	mov    -0x8(%rbp),%rax
  403c66:	48 8b 40 10          	mov    0x10(%rax),%rax
  403c6a:	48 8d 50 08          	lea    0x8(%rax),%rdx
  403c6e:	48 8b 45 f8          	mov    -0x8(%rbp),%rax
  403c72:	48 89 50 10          	mov    %rdx,0x10(%rax)
  403c76:	eb 0c                	jmp    403c84 <_ZNSt5dequeIPSt6vectorISsSaISsEESaIS3_EE9pop_frontEv+0x5e>
  403c78:	48 8b 45 f8          	mov    -0x8(%rbp),%rax
  403c7c:	48 89 c7             	mov    %rax,%rdi
  403c7f:	e8 18 0b 00 00       	callq  40479c <_ZNSt5dequeIPSt6vectorISsSaISsEESaIS3_EE16_M_pop_front_auxEv>
  403c84:	c9                   	leaveq 
  403c85:	c3                   	retq   

0000000000403c86 <_ZNSt6vectorISsSaISsEEixEm>:
  403c86:	55                   	push   %rbp
  403c87:	48 89 e5             	mov    %rsp,%rbp
  403c8a:	48 89 7d f8          	mov    %rdi,-0x8(%rbp)
  403c8e:	48 89 75 f0          	mov    %rsi,-0x10(%rbp)
  403c92:	48 8b 45 f8          	mov    -0x8(%rbp),%rax
  403c96:	48 8b 00             	mov    (%rax),%rax
  403c99:	48 8b 55 f0          	mov    -0x10(%rbp),%rdx
  403c9d:	48 c1 e2 03          	shl    $0x3,%rdx
  403ca1:	48 01 d0             	add    %rdx,%rax
  403ca4:	5d                   	pop    %rbp
  403ca5:	c3                   	retq   

0000000000403ca6 <_ZNSt12_Vector_baseISsSaISsEE12_Vector_implD1Ev>:
  403ca6:	55                   	push   %rbp
  403ca7:	48 89 e5             	mov    %rsp,%rbp
  403caa:	48 83 ec 10          	sub    $0x10,%rsp
  403cae:	48 89 7d f8          	mov    %rdi,-0x8(%rbp)
  403cb2:	48 8b 45 f8          	mov    -0x8(%rbp),%rax
  403cb6:	48 89 c7             	mov    %rax,%rdi
  403cb9:	e8 6c fa ff ff       	callq  40372a <_ZNSaISsED1Ev>
  403cbe:	c9                   	leaveq 
  403cbf:	c3                   	retq   

0000000000403cc0 <_ZNSt12_Vector_baseISsSaISsEED1Ev>:
  403cc0:	55                   	push   %rbp
  403cc1:	48 89 e5             	mov    %rsp,%rbp
  403cc4:	53                   	push   %rbx
  403cc5:	48 83 ec 18          	sub    $0x18,%rsp
  403cc9:	48 89 7d e8          	mov    %rdi,-0x18(%rbp)
  403ccd:	48 8b 45 e8          	mov    -0x18(%rbp),%rax
  403cd1:	48 8b 40 10          	mov    0x10(%rax),%rax
  403cd5:	48 89 c2             	mov    %rax,%rdx
  403cd8:	48 8b 45 e8          	mov    -0x18(%rbp),%rax
  403cdc:	48 8b 00             	mov    (%rax),%rax
  403cdf:	48 29 c2             	sub    %rax,%rdx
  403ce2:	48 89 d0             	mov    %rdx,%rax
  403ce5:	48 c1 f8 03          	sar    $0x3,%rax
  403ce9:	48 89 c2             	mov    %rax,%rdx
  403cec:	48 8b 45 e8          	mov    -0x18(%rbp),%rax
  403cf0:	48 8b 08             	mov    (%rax),%rcx
  403cf3:	48 8b 45 e8          	mov    -0x18(%rbp),%rax
  403cf7:	48 89 ce             	mov    %rcx,%rsi
  403cfa:	48 89 c7             	mov    %rax,%rdi
  403cfd:	e8 d6 05 00 00       	callq  4042d8 <_ZNSt12_Vector_baseISsSaISsEE13_M_deallocateEPSsm>
  403d02:	48 8b 45 e8          	mov    -0x18(%rbp),%rax
  403d06:	48 89 c7             	mov    %rax,%rdi
  403d09:	e8 98 ff ff ff       	callq  403ca6 <_ZNSt12_Vector_baseISsSaISsEE12_Vector_implD1Ev>
  403d0e:	eb 1a                	jmp    403d2a <_ZNSt12_Vector_baseISsSaISsEED1Ev+0x6a>
  403d10:	48 89 c3             	mov    %rax,%rbx
  403d13:	48 8b 45 e8          	mov    -0x18(%rbp),%rax
  403d17:	48 89 c7             	mov    %rax,%rdi
  403d1a:	e8 87 ff ff ff       	callq  403ca6 <_ZNSt12_Vector_baseISsSaISsEE12_Vector_implD1Ev>
  403d1f:	48 89 d8             	mov    %rbx,%rax
  403d22:	48 89 c7             	mov    %rax,%rdi
  403d25:	e8 a6 eb ff ff       	callq  4028d0 <_Unwind_Resume@plt>
  403d2a:	48 83 c4 18          	add    $0x18,%rsp
  403d2e:	5b                   	pop    %rbx
  403d2f:	5d                   	pop    %rbp
  403d30:	c3                   	retq   
  403d31:	90                   	nop

0000000000403d32 <_ZNSt12_Vector_baseISsSaISsEE19_M_get_Tp_allocatorEv>:
  403d32:	55                   	push   %rbp
  403d33:	48 89 e5             	mov    %rsp,%rbp
  403d36:	48 89 7d f8          	mov    %rdi,-0x8(%rbp)
  403d3a:	48 8b 45 f8          	mov    -0x8(%rbp),%rax
  403d3e:	5d                   	pop    %rbp
  403d3f:	c3                   	retq   

0000000000403d40 <_ZSt8_DestroyIPSsSsEvT_S1_RSaIT0_E>:
  403d40:	55                   	push   %rbp
  403d41:	48 89 e5             	mov    %rsp,%rbp
  403d44:	48 83 ec 20          	sub    $0x20,%rsp
  403d48:	48 89 7d f8          	mov    %rdi,-0x8(%rbp)
  403d4c:	48 89 75 f0          	mov    %rsi,-0x10(%rbp)
  403d50:	48 89 55 e8          	mov    %rdx,-0x18(%rbp)
  403d54:	48 8b 55 f0          	mov    -0x10(%rbp),%rdx
  403d58:	48 8b 45 f8          	mov    -0x8(%rbp),%rax
  403d5c:	48 89 d6             	mov    %rdx,%rsi
  403d5f:	48 89 c7             	mov    %rax,%rdi
  403d62:	e8 a0 0a 00 00       	callq  404807 <_ZSt8_DestroyIPSsEvT_S1_>
  403d67:	c9                   	leaveq 
  403d68:	c3                   	retq   

0000000000403d69 <_ZN9__gnu_cxx14__alloc_traitsISaISsEE17_S_select_on_copyERKS1_>:
  403d69:	55                   	push   %rbp
  403d6a:	48 89 e5             	mov    %rsp,%rbp
  403d6d:	48 89 7d f8          	mov    %rdi,-0x8(%rbp)
  403d71:	48 8b 45 f8          	mov    -0x8(%rbp),%rax
  403d75:	5d                   	pop    %rbp
  403d76:	c3                   	retq   
  403d77:	90                   	nop

0000000000403d78 <_ZNKSt12_Vector_baseISsSaISsEE19_M_get_Tp_allocatorEv>:
  403d78:	55                   	push   %rbp
  403d79:	48 89 e5             	mov    %rsp,%rbp
  403d7c:	48 89 7d f8          	mov    %rdi,-0x8(%rbp)
  403d80:	48 8b 45 f8          	mov    -0x8(%rbp),%rax
  403d84:	5d                   	pop    %rbp
  403d85:	c3                   	retq   

0000000000403d86 <_ZNSt12_Vector_baseISsSaISsEEC1EmRKS0_>:
  403d86:	55                   	push   %rbp
  403d87:	48 89 e5             	mov    %rsp,%rbp
  403d8a:	53                   	push   %rbx
  403d8b:	48 83 ec 28          	sub    $0x28,%rsp
  403d8f:	48 89 7d e8          	mov    %rdi,-0x18(%rbp)
  403d93:	48 89 75 e0          	mov    %rsi,-0x20(%rbp)
  403d97:	48 89 55 d8          	mov    %rdx,-0x28(%rbp)
  403d9b:	48 8b 45 e8          	mov    -0x18(%rbp),%rax
  403d9f:	48 8b 55 d8          	mov    -0x28(%rbp),%rdx
  403da3:	48 89 d6             	mov    %rdx,%rsi
  403da6:	48 89 c7             	mov    %rax,%rdi
  403da9:	e8 7e 0a 00 00       	callq  40482c <_ZNSt12_Vector_baseISsSaISsEE12_Vector_implC1ERKS0_>
  403dae:	48 8b 55 e0          	mov    -0x20(%rbp),%rdx
  403db2:	48 8b 45 e8          	mov    -0x18(%rbp),%rax
  403db6:	48 89 d6             	mov    %rdx,%rsi
  403db9:	48 89 c7             	mov    %rax,%rdi
  403dbc:	e8 b3 0a 00 00       	callq  404874 <_ZNSt12_Vector_baseISsSaISsEE17_M_create_storageEm>
  403dc1:	eb 1a                	jmp    403ddd <_ZNSt12_Vector_baseISsSaISsEEC1EmRKS0_+0x57>
  403dc3:	48 89 c3             	mov    %rax,%rbx
  403dc6:	48 8b 45 e8          	mov    -0x18(%rbp),%rax
  403dca:	48 89 c7             	mov    %rax,%rdi
  403dcd:	e8 d4 fe ff ff       	callq  403ca6 <_ZNSt12_Vector_baseISsSaISsEE12_Vector_implD1Ev>
  403dd2:	48 89 d8             	mov    %rbx,%rax
  403dd5:	48 89 c7             	mov    %rax,%rdi
  403dd8:	e8 f3 ea ff ff       	callq  4028d0 <_Unwind_Resume@plt>
  403ddd:	48 83 c4 28          	add    $0x28,%rsp
  403de1:	5b                   	pop    %rbx
  403de2:	5d                   	pop    %rbp
  403de3:	c3                   	retq   

0000000000403de4 <_ZNKSt6vectorISsSaISsEE5beginEv>:
  403de4:	55                   	push   %rbp
  403de5:	48 89 e5             	mov    %rsp,%rbp
  403de8:	48 83 ec 20          	sub    $0x20,%rsp
  403dec:	48 89 7d e8          	mov    %rdi,-0x18(%rbp)
  403df0:	48 8b 45 e8          	mov    -0x18(%rbp),%rax
  403df4:	48 8b 00             	mov    (%rax),%rax
  403df7:	48 89 45 f8          	mov    %rax,-0x8(%rbp)
  403dfb:	48 8d 55 f8          	lea    -0x8(%rbp),%rdx
  403dff:	48 8d 45 f0          	lea    -0x10(%rbp),%rax
  403e03:	48 89 d6             	mov    %rdx,%rsi
  403e06:	48 89 c7             	mov    %rax,%rdi
  403e09:	e8 bc 0a 00 00       	callq  4048ca <_ZN9__gnu_cxx17__normal_iteratorIPKSsSt6vectorISsSaISsEEEC1ERKS2_>
  403e0e:	48 8b 45 f0          	mov    -0x10(%rbp),%rax
  403e12:	c9                   	leaveq 
  403e13:	c3                   	retq   

0000000000403e14 <_ZNKSt6vectorISsSaISsEE3endEv>:
  403e14:	55                   	push   %rbp
  403e15:	48 89 e5             	mov    %rsp,%rbp
  403e18:	48 83 ec 20          	sub    $0x20,%rsp
  403e1c:	48 89 7d e8          	mov    %rdi,-0x18(%rbp)
  403e20:	48 8b 45 e8          	mov    -0x18(%rbp),%rax
  403e24:	48 8b 40 08          	mov    0x8(%rax),%rax
  403e28:	48 89 45 f8          	mov    %rax,-0x8(%rbp)
  403e2c:	48 8d 55 f8          	lea    -0x8(%rbp),%rdx
  403e30:	48 8d 45 f0          	lea    -0x10(%rbp),%rax
  403e34:	48 89 d6             	mov    %rdx,%rsi
  403e37:	48 89 c7             	mov    %rax,%rdi
  403e3a:	e8 8b 0a 00 00       	callq  4048ca <_ZN9__gnu_cxx17__normal_iteratorIPKSsSt6vectorISsSaISsEEEC1ERKS2_>
  403e3f:	48 8b 45 f0          	mov    -0x10(%rbp),%rax
  403e43:	c9                   	leaveq 
  403e44:	c3                   	retq   

0000000000403e45 <_ZSt22__uninitialized_copy_aIN9__gnu_cxx17__normal_iteratorIPKSsSt6vectorISsSaISsEEEEPSsSsET0_T_SA_S9_RSaIT1_E>:
  403e45:	55                   	push   %rbp
  403e46:	48 89 e5             	mov    %rsp,%rbp
  403e49:	48 83 ec 20          	sub    $0x20,%rsp
  403e4d:	48 89 7d f0          	mov    %rdi,-0x10(%rbp)
  403e51:	48 89 75 e0          	mov    %rsi,-0x20(%rbp)
  403e55:	48 89 55 e8          	mov    %rdx,-0x18(%rbp)
  403e59:	48 89 4d f8          	mov    %rcx,-0x8(%rbp)
  403e5d:	48 8b 55 e8          	mov    -0x18(%rbp),%rdx
  403e61:	48 8b 4d e0          	mov    -0x20(%rbp),%rcx
  403e65:	48 8b 45 f0          	mov    -0x10(%rbp),%rax
  403e69:	48 89 ce             	mov    %rcx,%rsi
  403e6c:	48 89 c7             	mov    %rax,%rdi
  403e6f:	e8 72 0a 00 00       	callq  4048e6 <_ZSt18uninitialized_copyIN9__gnu_cxx17__normal_iteratorIPKSsSt6vectorISsSaISsEEEEPSsET0_T_SA_S9_>
  403e74:	c9                   	leaveq 
  403e75:	c3                   	retq   

0000000000403e76 <_ZNSt11_Deque_baseIPSt6vectorISsSaISsEESaIS3_EE11_Deque_implD1Ev>:
  403e76:	55                   	push   %rbp
  403e77:	48 89 e5             	mov    %rsp,%rbp
  403e7a:	48 83 ec 10          	sub    $0x10,%rsp
  403e7e:	48 89 7d f8          	mov    %rdi,-0x8(%rbp)
  403e82:	48 8b 45 f8          	mov    -0x8(%rbp),%rax
  403e86:	48 89 c7             	mov    %rax,%rdi
  403e89:	e8 d8 0a 00 00       	callq  404966 <_ZNSaIPSt6vectorISsSaISsEEED1Ev>
  403e8e:	c9                   	leaveq 
  403e8f:	c3                   	retq   

0000000000403e90 <_ZNSt11_Deque_baseIPSt6vectorISsSaISsEESaIS3_EEC1Ev>:
  403e90:	55                   	push   %rbp
  403e91:	48 89 e5             	mov    %rsp,%rbp
  403e94:	53                   	push   %rbx
  403e95:	48 83 ec 18          	sub    $0x18,%rsp
  403e99:	48 89 7d e8          	mov    %rdi,-0x18(%rbp)
  403e9d:	48 8b 45 e8          	mov    -0x18(%rbp),%rax
  403ea1:	48 89 c7             	mov    %rax,%rdi
  403ea4:	e8 6b 0a 00 00       	callq  404914 <_ZNSt11_Deque_baseIPSt6vectorISsSaISsEESaIS3_EE11_Deque_implC1Ev>
  403ea9:	48 8b 45 e8          	mov    -0x18(%rbp),%rax
  403ead:	be 00 00 00 00       	mov    $0x0,%esi
  403eb2:	48 89 c7             	mov    %rax,%rdi
  403eb5:	e8 c6 0a 00 00       	callq  404980 <_ZNSt11_Deque_baseIPSt6vectorISsSaISsEESaIS3_EE17_M_initialize_mapEm>
  403eba:	eb 1a                	jmp    403ed6 <_ZNSt11_Deque_baseIPSt6vectorISsSaISsEESaIS3_EEC1Ev+0x46>
  403ebc:	48 89 c3             	mov    %rax,%rbx
  403ebf:	48 8b 45 e8          	mov    -0x18(%rbp),%rax
  403ec3:	48 89 c7             	mov    %rax,%rdi
  403ec6:	e8 ab ff ff ff       	callq  403e76 <_ZNSt11_Deque_baseIPSt6vectorISsSaISsEESaIS3_EE11_Deque_implD1Ev>
  403ecb:	48 89 d8             	mov    %rbx,%rax
  403ece:	48 89 c7             	mov    %rax,%rdi
  403ed1:	e8 fa e9 ff ff       	callq  4028d0 <_Unwind_Resume@plt>
  403ed6:	48 83 c4 18          	add    $0x18,%rsp
  403eda:	5b                   	pop    %rbx
  403edb:	5d                   	pop    %rbp
  403edc:	c3                   	retq   
  403edd:	90                   	nop

0000000000403ede <_ZNSt11_Deque_baseIPSt6vectorISsSaISsEESaIS3_EED1Ev>:
  403ede:	55                   	push   %rbp
  403edf:	48 89 e5             	mov    %rsp,%rbp
  403ee2:	53                   	push   %rbx
  403ee3:	48 83 ec 18          	sub    $0x18,%rsp
  403ee7:	48 89 7d e8          	mov    %rdi,-0x18(%rbp)
  403eeb:	48 8b 45 e8          	mov    -0x18(%rbp),%rax
  403eef:	48 8b 00             	mov    (%rax),%rax
  403ef2:	48 85 c0             	test   %rax,%rax
  403ef5:	74 41                	je     403f38 <_ZNSt11_Deque_baseIPSt6vectorISsSaISsEESaIS3_EED1Ev+0x5a>
  403ef7:	48 8b 45 e8          	mov    -0x18(%rbp),%rax
  403efb:	48 8b 40 48          	mov    0x48(%rax),%rax
  403eff:	48 8d 50 08          	lea    0x8(%rax),%rdx
  403f03:	48 8b 45 e8          	mov    -0x18(%rbp),%rax
  403f07:	48 8b 48 28          	mov    0x28(%rax),%rcx
  403f0b:	48 8b 45 e8          	mov    -0x18(%rbp),%rax
  403f0f:	48 89 ce             	mov    %rcx,%rsi
  403f12:	48 89 c7             	mov    %rax,%rdi
  403f15:	e8 0e 0c 00 00       	callq  404b28 <_ZNSt11_Deque_baseIPSt6vectorISsSaISsEESaIS3_EE16_M_destroy_nodesEPPS3_S7_>
  403f1a:	48 8b 45 e8          	mov    -0x18(%rbp),%rax
  403f1e:	48 8b 50 08          	mov    0x8(%rax),%rdx
  403f22:	48 8b 45 e8          	mov    -0x18(%rbp),%rax
  403f26:	48 8b 08             	mov    (%rax),%rcx
  403f29:	48 8b 45 e8          	mov    -0x18(%rbp),%rax
  403f2d:	48 89 ce             	mov    %rcx,%rsi
  403f30:	48 89 c7             	mov    %rax,%rdi
  403f33:	e8 36 0c 00 00       	callq  404b6e <_ZNSt11_Deque_baseIPSt6vectorISsSaISsEESaIS3_EE17_M_deallocate_mapEPPS3_m>
  403f38:	48 8b 45 e8          	mov    -0x18(%rbp),%rax
  403f3c:	48 89 c7             	mov    %rax,%rdi
  403f3f:	e8 32 ff ff ff       	callq  403e76 <_ZNSt11_Deque_baseIPSt6vectorISsSaISsEESaIS3_EE11_Deque_implD1Ev>
  403f44:	eb 1a                	jmp    403f60 <_ZNSt11_Deque_baseIPSt6vectorISsSaISsEESaIS3_EED1Ev+0x82>
  403f46:	48 89 c3             	mov    %rax,%rbx
  403f49:	48 8b 45 e8          	mov    -0x18(%rbp),%rax
  403f4d:	48 89 c7             	mov    %rax,%rdi
  403f50:	e8 21 ff ff ff       	callq  403e76 <_ZNSt11_Deque_baseIPSt6vectorISsSaISsEESaIS3_EE11_Deque_implD1Ev>
  403f55:	48 89 d8             	mov    %rbx,%rax
  403f58:	48 89 c7             	mov    %rax,%rdi
  403f5b:	e8 70 e9 ff ff       	callq  4028d0 <_Unwind_Resume@plt>
  403f60:	48 83 c4 18          	add    $0x18,%rsp
  403f64:	5b                   	pop    %rbx
  403f65:	5d                   	pop    %rbp
  403f66:	c3                   	retq   
  403f67:	90                   	nop

0000000000403f68 <_ZNSt5dequeIPSt6vectorISsSaISsEESaIS3_EE5beginEv>:
  403f68:	55                   	push   %rbp
  403f69:	48 89 e5             	mov    %rsp,%rbp
  403f6c:	48 83 ec 10          	sub    $0x10,%rsp
  403f70:	48 89 7d f8          	mov    %rdi,-0x8(%rbp)
  403f74:	48 89 75 f0          	mov    %rsi,-0x10(%rbp)
  403f78:	48 8b 45 f0          	mov    -0x10(%rbp),%rax
  403f7c:	48 8d 50 10          	lea    0x10(%rax),%rdx
  403f80:	48 8b 45 f8          	mov    -0x8(%rbp),%rax
  403f84:	48 89 d6             	mov    %rdx,%rsi
  403f87:	48 89 c7             	mov    %rax,%rdi
  403f8a:	e8 43 00 00 00       	callq  403fd2 <_ZNSt15_Deque_iteratorIPSt6vectorISsSaISsEERS3_PS3_EC1ERKS6_>
  403f8f:	48 8b 45 f8          	mov    -0x8(%rbp),%rax
  403f93:	c9                   	leaveq 
  403f94:	c3                   	retq   
  403f95:	90                   	nop

0000000000403f96 <_ZNSt5dequeIPSt6vectorISsSaISsEESaIS3_EE3endEv>:
  403f96:	55                   	push   %rbp
  403f97:	48 89 e5             	mov    %rsp,%rbp
  403f9a:	48 83 ec 10          	sub    $0x10,%rsp
  403f9e:	48 89 7d f8          	mov    %rdi,-0x8(%rbp)
  403fa2:	48 89 75 f0          	mov    %rsi,-0x10(%rbp)
  403fa6:	48 8b 45 f0          	mov    -0x10(%rbp),%rax
  403faa:	48 8d 50 30          	lea    0x30(%rax),%rdx
  403fae:	48 8b 45 f8          	mov    -0x8(%rbp),%rax
  403fb2:	48 89 d6             	mov    %rdx,%rsi
  403fb5:	48 89 c7             	mov    %rax,%rdi
  403fb8:	e8 15 00 00 00       	callq  403fd2 <_ZNSt15_Deque_iteratorIPSt6vectorISsSaISsEERS3_PS3_EC1ERKS6_>
  403fbd:	48 8b 45 f8          	mov    -0x8(%rbp),%rax
  403fc1:	c9                   	leaveq 
  403fc2:	c3                   	retq   
  403fc3:	90                   	nop

0000000000403fc4 <_ZNSt11_Deque_baseIPSt6vectorISsSaISsEESaIS3_EE19_M_get_Tp_allocatorEv>:
  403fc4:	55                   	push   %rbp
  403fc5:	48 89 e5             	mov    %rsp,%rbp
  403fc8:	48 89 7d f8          	mov    %rdi,-0x8(%rbp)
  403fcc:	48 8b 45 f8          	mov    -0x8(%rbp),%rax
  403fd0:	5d                   	pop    %rbp
  403fd1:	c3                   	retq   

0000000000403fd2 <_ZNSt15_Deque_iteratorIPSt6vectorISsSaISsEERS3_PS3_EC1ERKS6_>:
  403fd2:	55                   	push   %rbp
  403fd3:	48 89 e5             	mov    %rsp,%rbp
  403fd6:	48 89 7d f8          	mov    %rdi,-0x8(%rbp)
  403fda:	48 89 75 f0          	mov    %rsi,-0x10(%rbp)
  403fde:	48 8b 45 f0          	mov    -0x10(%rbp),%rax
  403fe2:	48 8b 10             	mov    (%rax),%rdx
  403fe5:	48 8b 45 f8          	mov    -0x8(%rbp),%rax
  403fe9:	48 89 10             	mov    %rdx,(%rax)
  403fec:	48 8b 45 f0          	mov    -0x10(%rbp),%rax
  403ff0:	48 8b 50 08          	mov    0x8(%rax),%rdx
  403ff4:	48 8b 45 f8          	mov    -0x8(%rbp),%rax
  403ff8:	48 89 50 08          	mov    %rdx,0x8(%rax)
  403ffc:	48 8b 45 f0          	mov    -0x10(%rbp),%rax
  404000:	48 8b 50 10          	mov    0x10(%rax),%rdx
  404004:	48 8b 45 f8          	mov    -0x8(%rbp),%rax
  404008:	48 89 50 10          	mov    %rdx,0x10(%rax)
  40400c:	48 8b 45 f0          	mov    -0x10(%rbp),%rax
  404010:	48 8b 50 18          	mov    0x18(%rax),%rdx
  404014:	48 8b 45 f8          	mov    -0x8(%rbp),%rax
  404018:	48 89 50 18          	mov    %rdx,0x18(%rax)
  40401c:	5d                   	pop    %rbp
  40401d:	c3                   	retq   

000000000040401e <_ZNSt5dequeIPSt6vectorISsSaISsEESaIS3_EE15_M_destroy_dataESt15_Deque_iteratorIS3_RS3_PS3_ES9_RKS4_>:
  40401e:	55                   	push   %rbp
  40401f:	48 89 e5             	mov    %rsp,%rbp
  404022:	48 89 7d d8          	mov    %rdi,-0x28(%rbp)
  404026:	48 89 75 d0          	mov    %rsi,-0x30(%rbp)
  40402a:	48 89 55 c8          	mov    %rdx,-0x38(%rbp)
  40402e:	48 89 4d c0          	mov    %rcx,-0x40(%rbp)
  404032:	5d                   	pop    %rbp
  404033:	c3                   	retq   

0000000000404034 <_ZN9__gnu_cxx13new_allocatorISsEC1Ev>:
  404034:	55                   	push   %rbp
  404035:	48 89 e5             	mov    %rsp,%rbp
  404038:	48 89 7d f8          	mov    %rdi,-0x8(%rbp)
  40403c:	5d                   	pop    %rbp
  40403d:	c3                   	retq   

000000000040403e <_ZN9__gnu_cxx13new_allocatorISsED1Ev>:
  40403e:	55                   	push   %rbp
  40403f:	48 89 e5             	mov    %rsp,%rbp
  404042:	48 89 7d f8          	mov    %rdi,-0x8(%rbp)
  404046:	5d                   	pop    %rbp
  404047:	c3                   	retq   

0000000000404048 <_ZNSt6vectorISsSaISsEE18_M_fill_initializeEmRKSs>:
  404048:	55                   	push   %rbp
  404049:	48 89 e5             	mov    %rsp,%rbp
  40404c:	48 83 ec 20          	sub    $0x20,%rsp
  404050:	48 89 7d f8          	mov    %rdi,-0x8(%rbp)
  404054:	48 89 75 f0          	mov    %rsi,-0x10(%rbp)
  404058:	48 89 55 e8          	mov    %rdx,-0x18(%rbp)
  40405c:	48 8b 45 f8          	mov    -0x8(%rbp),%rax
  404060:	48 89 c7             	mov    %rax,%rdi
  404063:	e8 ca fc ff ff       	callq  403d32 <_ZNSt12_Vector_baseISsSaISsEE19_M_get_Tp_allocatorEv>
  404068:	48 89 c1             	mov    %rax,%rcx
  40406b:	48 8b 45 f8          	mov    -0x8(%rbp),%rax
  40406f:	48 8b 00             	mov    (%rax),%rax
  404072:	48 8b 55 e8          	mov    -0x18(%rbp),%rdx
  404076:	48 8b 75 f0          	mov    -0x10(%rbp),%rsi
  40407a:	48 89 c7             	mov    %rax,%rdi
  40407d:	e8 38 0b 00 00       	callq  404bba <_ZSt24__uninitialized_fill_n_aIPSsmSsSsEvT_T0_RKT1_RSaIT2_E>
  404082:	48 8b 45 f8          	mov    -0x8(%rbp),%rax
  404086:	48 8b 50 10          	mov    0x10(%rax),%rdx
  40408a:	48 8b 45 f8          	mov    -0x8(%rbp),%rax
  40408e:	48 89 50 08          	mov    %rdx,0x8(%rax)
  404092:	c9                   	leaveq 
  404093:	c3                   	retq   

0000000000404094 <_ZNSt12_Vector_baseISsSaISsEEC1Ev>:
  404094:	55                   	push   %rbp
  404095:	48 89 e5             	mov    %rsp,%rbp
  404098:	48 83 ec 10          	sub    $0x10,%rsp
  40409c:	48 89 7d f8          	mov    %rdi,-0x8(%rbp)
  4040a0:	48 8b 45 f8          	mov    -0x8(%rbp),%rax
  4040a4:	48 89 c7             	mov    %rax,%rdi
  4040a7:	e8 40 0b 00 00       	callq  404bec <_ZNSt12_Vector_baseISsSaISsEE12_Vector_implC1Ev>
  4040ac:	c9                   	leaveq 
  4040ad:	c3                   	retq   

00000000004040ae <_ZN9__gnu_cxx13new_allocatorIPSt6vectorISsSaISsEEE9constructEPS4_RKS4_>:
  4040ae:	55                   	push   %rbp
  4040af:	48 89 e5             	mov    %rsp,%rbp
  4040b2:	48 83 ec 20          	sub    $0x20,%rsp
  4040b6:	48 89 7d f8          	mov    %rdi,-0x8(%rbp)
  4040ba:	48 89 75 f0          	mov    %rsi,-0x10(%rbp)
  4040be:	48 89 55 e8          	mov    %rdx,-0x18(%rbp)
  4040c2:	48 8b 45 f0          	mov    -0x10(%rbp),%rax
  4040c6:	48 89 c6             	mov    %rax,%rsi
  4040c9:	bf 08 00 00 00       	mov    $0x8,%edi
  4040ce:	e8 04 f4 ff ff       	callq  4034d7 <_ZnwmPv>
  4040d3:	48 85 c0             	test   %rax,%rax
  4040d6:	74 0a                	je     4040e2 <_ZN9__gnu_cxx13new_allocatorIPSt6vectorISsSaISsEEE9constructEPS4_RKS4_+0x34>
  4040d8:	48 8b 55 e8          	mov    -0x18(%rbp),%rdx
  4040dc:	48 8b 12             	mov    (%rdx),%rdx
  4040df:	48 89 10             	mov    %rdx,(%rax)
  4040e2:	c9                   	leaveq 
  4040e3:	c3                   	retq   

00000000004040e4 <_ZNSt5dequeIPSt6vectorISsSaISsEESaIS3_EE16_M_push_back_auxERKS3_>:
  4040e4:	55                   	push   %rbp
  4040e5:	48 89 e5             	mov    %rsp,%rbp
  4040e8:	53                   	push   %rbx
  4040e9:	48 83 ec 18          	sub    $0x18,%rsp
  4040ed:	48 89 7d e8          	mov    %rdi,-0x18(%rbp)
  4040f1:	48 89 75 e0          	mov    %rsi,-0x20(%rbp)
  4040f5:	48 8b 45 e8          	mov    -0x18(%rbp),%rax
  4040f9:	be 01 00 00 00       	mov    $0x1,%esi
  4040fe:	48 89 c7             	mov    %rax,%rdi
  404101:	e8 24 0b 00 00       	callq  404c2a <_ZNSt5dequeIPSt6vectorISsSaISsEESaIS3_EE22_M_reserve_map_at_backEm>
  404106:	48 8b 45 e8          	mov    -0x18(%rbp),%rax
  40410a:	48 8b 40 48          	mov    0x48(%rax),%rax
  40410e:	48 8d 58 08          	lea    0x8(%rax),%rbx
  404112:	48 8b 45 e8          	mov    -0x18(%rbp),%rax
  404116:	48 89 c7             	mov    %rax,%rdi
  404119:	e8 6e 0b 00 00       	callq  404c8c <_ZNSt11_Deque_baseIPSt6vectorISsSaISsEESaIS3_EE16_M_allocate_nodeEv>
  40411e:	48 89 03             	mov    %rax,(%rbx)
  404121:	48 8b 45 e8          	mov    -0x18(%rbp),%rax
  404125:	48 8b 48 30          	mov    0x30(%rax),%rcx
  404129:	48 8b 45 e8          	mov    -0x18(%rbp),%rax
  40412d:	48 8b 55 e0          	mov    -0x20(%rbp),%rdx
  404131:	48 89 ce             	mov    %rcx,%rsi
  404134:	48 89 c7             	mov    %rax,%rdi
  404137:	e8 72 ff ff ff       	callq  4040ae <_ZN9__gnu_cxx13new_allocatorIPSt6vectorISsSaISsEEE9constructEPS4_RKS4_>
  40413c:	48 8b 45 e8          	mov    -0x18(%rbp),%rax
  404140:	48 8b 40 48          	mov    0x48(%rax),%rax
  404144:	48 8d 50 08          	lea    0x8(%rax),%rdx
  404148:	48 8b 45 e8          	mov    -0x18(%rbp),%rax
  40414c:	48 83 c0 30          	add    $0x30,%rax
  404150:	48 89 d6             	mov    %rdx,%rsi
  404153:	48 89 c7             	mov    %rax,%rdi
  404156:	e8 61 0b 00 00       	callq  404cbc <_ZNSt15_Deque_iteratorIPSt6vectorISsSaISsEERS3_PS3_E11_M_set_nodeEPS5_>
  40415b:	48 8b 45 e8          	mov    -0x18(%rbp),%rax
  40415f:	48 8b 50 38          	mov    0x38(%rax),%rdx
  404163:	48 8b 45 e8          	mov    -0x18(%rbp),%rax
  404167:	48 89 50 30          	mov    %rdx,0x30(%rax)
  40416b:	eb 3e                	jmp    4041ab <_ZNSt5dequeIPSt6vectorISsSaISsEESaIS3_EE16_M_push_back_auxERKS3_+0xc7>
  40416d:	48 89 c3             	mov    %rax,%rbx
  404170:	e8 9b e6 ff ff       	callq  402810 <__cxa_end_catch@plt>
  404175:	48 89 d8             	mov    %rbx,%rax
  404178:	48 89 c7             	mov    %rax,%rdi
  40417b:	e8 50 e7 ff ff       	callq  4028d0 <_Unwind_Resume@plt>
  404180:	48 89 c7             	mov    %rax,%rdi
  404183:	e8 c8 e6 ff ff       	callq  402850 <__cxa_begin_catch@plt>
  404188:	48 8b 45 e8          	mov    -0x18(%rbp),%rax
  40418c:	48 8b 40 48          	mov    0x48(%rax),%rax
  404190:	48 83 c0 08          	add    $0x8,%rax
  404194:	48 8b 10             	mov    (%rax),%rdx
  404197:	48 8b 45 e8          	mov    -0x18(%rbp),%rax
  40419b:	48 89 d6             	mov    %rdx,%rsi
  40419e:	48 89 c7             	mov    %rax,%rdi
  4041a1:	e8 66 0b 00 00       	callq  404d0c <_ZNSt11_Deque_baseIPSt6vectorISsSaISsEESaIS3_EE18_M_deallocate_nodeEPS3_>
  4041a6:	e8 e5 e2 ff ff       	callq  402490 <__cxa_rethrow@plt>
  4041ab:	48 83 c4 18          	add    $0x18,%rsp
  4041af:	5b                   	pop    %rbx
  4041b0:	5d                   	pop    %rbp
  4041b1:	c3                   	retq   

00000000004041b2 <_ZSteqIPSt6vectorISsSaISsEERS3_PS3_EbRKSt15_Deque_iteratorIT_T0_T1_ESC_>:
  4041b2:	55                   	push   %rbp
  4041b3:	48 89 e5             	mov    %rsp,%rbp
  4041b6:	48 89 7d f8          	mov    %rdi,-0x8(%rbp)
  4041ba:	48 89 75 f0          	mov    %rsi,-0x10(%rbp)
  4041be:	48 8b 45 f8          	mov    -0x8(%rbp),%rax
  4041c2:	48 8b 10             	mov    (%rax),%rdx
  4041c5:	48 8b 45 f0          	mov    -0x10(%rbp),%rax
  4041c9:	48 8b 00             	mov    (%rax),%rax
  4041cc:	48 39 c2             	cmp    %rax,%rdx
  4041cf:	0f 94 c0             	sete   %al
  4041d2:	5d                   	pop    %rbp
  4041d3:	c3                   	retq   

00000000004041d4 <_ZNKSt15_Deque_iteratorIPSt6vectorISsSaISsEERS3_PS3_EdeEv>:
  4041d4:	55                   	push   %rbp
  4041d5:	48 89 e5             	mov    %rsp,%rbp
  4041d8:	48 89 7d f8          	mov    %rdi,-0x8(%rbp)
  4041dc:	48 8b 45 f8          	mov    -0x8(%rbp),%rax
  4041e0:	48 8b 00             	mov    (%rax),%rax
  4041e3:	5d                   	pop    %rbp
  4041e4:	c3                   	retq   
  4041e5:	90                   	nop

00000000004041e6 <_ZNKSt6vectorISsSaISsEE14_M_range_checkEm>:
  4041e6:	55                   	push   %rbp
  4041e7:	48 89 e5             	mov    %rsp,%rbp
  4041ea:	48 83 ec 10          	sub    $0x10,%rsp
  4041ee:	48 89 7d f8          	mov    %rdi,-0x8(%rbp)
  4041f2:	48 89 75 f0          	mov    %rsi,-0x10(%rbp)
  4041f6:	48 8b 45 f8          	mov    -0x8(%rbp),%rax
  4041fa:	48 89 c7             	mov    %rax,%rdi
  4041fd:	e8 8e f6 ff ff       	callq  403890 <_ZNKSt6vectorISsSaISsEE4sizeEv>
  404202:	48 3b 45 f0          	cmp    -0x10(%rbp),%rax
  404206:	0f 96 c0             	setbe  %al
  404209:	84 c0                	test   %al,%al
  40420b:	74 0a                	je     404217 <_ZNKSt6vectorISsSaISsEE14_M_range_checkEm+0x31>
  40420d:	bf 58 c3 40 00       	mov    $0x40c358,%edi
  404212:	e8 29 e3 ff ff       	callq  402540 <_ZSt20__throw_out_of_rangePKc@plt>
  404217:	c9                   	leaveq 
  404218:	c3                   	retq   
  404219:	90                   	nop

000000000040421a <_ZNKSt6vectorISsSaISsEE8capacityEv>:
  40421a:	55                   	push   %rbp
  40421b:	48 89 e5             	mov    %rsp,%rbp
  40421e:	48 89 7d f8          	mov    %rdi,-0x8(%rbp)
  404222:	48 8b 45 f8          	mov    -0x8(%rbp),%rax
  404226:	48 8b 40 10          	mov    0x10(%rax),%rax
  40422a:	48 89 c2             	mov    %rax,%rdx
  40422d:	48 8b 45 f8          	mov    -0x8(%rbp),%rax
  404231:	48 8b 00             	mov    (%rax),%rax
  404234:	48 29 c2             	sub    %rax,%rdx
  404237:	48 89 d0             	mov    %rdx,%rax
  40423a:	48 c1 f8 03          	sar    $0x3,%rax
  40423e:	5d                   	pop    %rbp
  40423f:	c3                   	retq   

0000000000404240 <_ZNSt6vectorISsSaISsEE20_M_allocate_and_copyIN9__gnu_cxx17__normal_iteratorIPKSsS1_EEEEPSsmT_S9_>:
  404240:	55                   	push   %rbp
  404241:	48 89 e5             	mov    %rsp,%rbp
  404244:	53                   	push   %rbx
  404245:	48 83 ec 48          	sub    $0x48,%rsp
  404249:	48 89 7d d8          	mov    %rdi,-0x28(%rbp)
  40424d:	48 89 75 d0          	mov    %rsi,-0x30(%rbp)
  404251:	48 89 55 c0          	mov    %rdx,-0x40(%rbp)
  404255:	48 89 4d b0          	mov    %rcx,-0x50(%rbp)
  404259:	48 8b 45 d8          	mov    -0x28(%rbp),%rax
  40425d:	48 8b 55 d0          	mov    -0x30(%rbp),%rdx
  404261:	48 89 d6             	mov    %rdx,%rsi
  404264:	48 89 c7             	mov    %rax,%rdi
  404267:	e8 d2 0a 00 00       	callq  404d3e <_ZNSt12_Vector_baseISsSaISsEE11_M_allocateEm>
  40426c:	48 89 45 e8          	mov    %rax,-0x18(%rbp)
  404270:	48 8b 45 d8          	mov    -0x28(%rbp),%rax
  404274:	48 89 c7             	mov    %rax,%rdi
  404277:	e8 b6 fa ff ff       	callq  403d32 <_ZNSt12_Vector_baseISsSaISsEE19_M_get_Tp_allocatorEv>
  40427c:	48 89 c1             	mov    %rax,%rcx
  40427f:	48 8b 55 e8          	mov    -0x18(%rbp),%rdx
  404283:	48 8b 75 b0          	mov    -0x50(%rbp),%rsi
  404287:	48 8b 45 c0          	mov    -0x40(%rbp),%rax
  40428b:	48 89 c7             	mov    %rax,%rdi
  40428e:	e8 b2 fb ff ff       	callq  403e45 <_ZSt22__uninitialized_copy_aIN9__gnu_cxx17__normal_iteratorIPKSsSt6vectorISsSaISsEEEEPSsSsET0_T_SA_S9_RSaIT1_E>
  404293:	48 8b 45 e8          	mov    -0x18(%rbp),%rax
  404297:	eb 37                	jmp    4042d0 <_ZNSt6vectorISsSaISsEE20_M_allocate_and_copyIN9__gnu_cxx17__normal_iteratorIPKSsS1_EEEEPSsmT_S9_+0x90>
  404299:	48 89 c3             	mov    %rax,%rbx
  40429c:	e8 6f e5 ff ff       	callq  402810 <__cxa_end_catch@plt>
  4042a1:	48 89 d8             	mov    %rbx,%rax
  4042a4:	48 89 c7             	mov    %rax,%rdi
  4042a7:	e8 24 e6 ff ff       	callq  4028d0 <_Unwind_Resume@plt>
  4042ac:	48 89 c7             	mov    %rax,%rdi
  4042af:	e8 9c e5 ff ff       	callq  402850 <__cxa_begin_catch@plt>
  4042b4:	48 8b 45 d8          	mov    -0x28(%rbp),%rax
  4042b8:	48 8b 55 d0          	mov    -0x30(%rbp),%rdx
  4042bc:	48 8b 4d e8          	mov    -0x18(%rbp),%rcx
  4042c0:	48 89 ce             	mov    %rcx,%rsi
  4042c3:	48 89 c7             	mov    %rax,%rdi
  4042c6:	e8 0d 00 00 00       	callq  4042d8 <_ZNSt12_Vector_baseISsSaISsEE13_M_deallocateEPSsm>
  4042cb:	e8 c0 e1 ff ff       	callq  402490 <__cxa_rethrow@plt>
  4042d0:	48 83 c4 48          	add    $0x48,%rsp
  4042d4:	5b                   	pop    %rbx
  4042d5:	5d                   	pop    %rbp
  4042d6:	c3                   	retq   
  4042d7:	90                   	nop

00000000004042d8 <_ZNSt12_Vector_baseISsSaISsEE13_M_deallocateEPSsm>:
  4042d8:	55                   	push   %rbp
  4042d9:	48 89 e5             	mov    %rsp,%rbp
  4042dc:	48 83 ec 20          	sub    $0x20,%rsp
  4042e0:	48 89 7d f8          	mov    %rdi,-0x8(%rbp)
  4042e4:	48 89 75 f0          	mov    %rsi,-0x10(%rbp)
  4042e8:	48 89 55 e8          	mov    %rdx,-0x18(%rbp)
  4042ec:	48 83 7d f0 00       	cmpq   $0x0,-0x10(%rbp)
  4042f1:	74 17                	je     40430a <_ZNSt12_Vector_baseISsSaISsEE13_M_deallocateEPSsm+0x32>
  4042f3:	48 8b 45 f8          	mov    -0x8(%rbp),%rax
  4042f7:	48 8b 55 e8          	mov    -0x18(%rbp),%rdx
  4042fb:	48 8b 4d f0          	mov    -0x10(%rbp),%rcx
  4042ff:	48 89 ce             	mov    %rcx,%rsi
  404302:	48 89 c7             	mov    %rax,%rdi
  404305:	e8 6c 0a 00 00       	callq  404d76 <_ZN9__gnu_cxx13new_allocatorISsE10deallocateEPSsm>
  40430a:	c9                   	leaveq 
  40430b:	c3                   	retq   

000000000040430c <_ZNSt6vectorISsSaISsEE5beginEv>:
  40430c:	55                   	push   %rbp
  40430d:	48 89 e5             	mov    %rsp,%rbp
  404310:	48 83 ec 20          	sub    $0x20,%rsp
  404314:	48 89 7d e8          	mov    %rdi,-0x18(%rbp)
  404318:	48 8b 55 e8          	mov    -0x18(%rbp),%rdx
  40431c:	48 8d 45 f0          	lea    -0x10(%rbp),%rax
  404320:	48 89 d6             	mov    %rdx,%rsi
  404323:	48 89 c7             	mov    %rax,%rdi
  404326:	e8 6d 0a 00 00       	callq  404d98 <_ZN9__gnu_cxx17__normal_iteratorIPSsSt6vectorISsSaISsEEEC1ERKS1_>
  40432b:	48 8b 45 f0          	mov    -0x10(%rbp),%rax
  40432f:	c9                   	leaveq 
  404330:	c3                   	retq   

0000000000404331 <_ZSt4copyIN9__gnu_cxx17__normal_iteratorIPKSsSt6vectorISsSaISsEEEENS1_IPSsS6_EEET0_T_SB_SA_>:
  404331:	55                   	push   %rbp
  404332:	48 89 e5             	mov    %rsp,%rbp
  404335:	53                   	push   %rbx
  404336:	48 83 ec 38          	sub    $0x38,%rsp
  40433a:	48 89 7d e0          	mov    %rdi,-0x20(%rbp)
  40433e:	48 89 75 d0          	mov    %rsi,-0x30(%rbp)
  404342:	48 89 55 c0          	mov    %rdx,-0x40(%rbp)
  404346:	48 8b 45 d0          	mov    -0x30(%rbp),%rax
  40434a:	48 89 c7             	mov    %rax,%rdi
  40434d:	e8 62 0a 00 00       	callq  404db4 <_ZSt12__miter_baseIN9__gnu_cxx17__normal_iteratorIPKSsSt6vectorISsSaISsEEEEENSt11_Miter_baseIT_E13iterator_typeES9_>
  404352:	48 89 c3             	mov    %rax,%rbx
  404355:	48 8b 45 e0          	mov    -0x20(%rbp),%rax
  404359:	48 89 c7             	mov    %rax,%rdi
  40435c:	e8 53 0a 00 00       	callq  404db4 <_ZSt12__miter_baseIN9__gnu_cxx17__normal_iteratorIPKSsSt6vectorISsSaISsEEEEENSt11_Miter_baseIT_E13iterator_typeES9_>
  404361:	48 8b 55 c0          	mov    -0x40(%rbp),%rdx
  404365:	48 89 de             	mov    %rbx,%rsi
  404368:	48 89 c7             	mov    %rax,%rdi
  40436b:	e8 5e 0a 00 00       	callq  404dce <_ZSt14__copy_move_a2ILb0EN9__gnu_cxx17__normal_iteratorIPKSsSt6vectorISsSaISsEEEENS1_IPSsS6_EEET1_T0_SB_SA_>
  404370:	48 83 c4 38          	add    $0x38,%rsp
  404374:	5b                   	pop    %rbx
  404375:	5d                   	pop    %rbp
  404376:	c3                   	retq   
  404377:	90                   	nop

0000000000404378 <_ZNSt6vectorISsSaISsEE3endEv>:
  404378:	55                   	push   %rbp
  404379:	48 89 e5             	mov    %rsp,%rbp
  40437c:	48 83 ec 20          	sub    $0x20,%rsp
  404380:	48 89 7d e8          	mov    %rdi,-0x18(%rbp)
  404384:	48 8b 45 e8          	mov    -0x18(%rbp),%rax
  404388:	48 8d 50 08          	lea    0x8(%rax),%rdx
  40438c:	48 8d 45 f0          	lea    -0x10(%rbp),%rax
  404390:	48 89 d6             	mov    %rdx,%rsi
  404393:	48 89 c7             	mov    %rax,%rdi
  404396:	e8 fd 09 00 00       	callq  404d98 <_ZN9__gnu_cxx17__normal_iteratorIPSsSt6vectorISsSaISsEEEC1ERKS1_>
  40439b:	48 8b 45 f0          	mov    -0x10(%rbp),%rax
  40439f:	c9                   	leaveq 
  4043a0:	c3                   	retq   

00000000004043a1 <_ZSt8_DestroyIN9__gnu_cxx17__normal_iteratorIPSsSt6vectorISsSaISsEEEESsEvT_S7_RSaIT0_E>:
  4043a1:	55                   	push   %rbp
  4043a2:	48 89 e5             	mov    %rsp,%rbp
  4043a5:	48 83 ec 20          	sub    $0x20,%rsp
  4043a9:	48 89 7d f0          	mov    %rdi,-0x10(%rbp)
  4043ad:	48 89 75 e0          	mov    %rsi,-0x20(%rbp)
  4043b1:	48 89 55 e8          	mov    %rdx,-0x18(%rbp)
  4043b5:	48 8b 55 e0          	mov    -0x20(%rbp),%rdx
  4043b9:	48 8b 45 f0          	mov    -0x10(%rbp),%rax
  4043bd:	48 89 d6             	mov    %rdx,%rsi
  4043c0:	48 89 c7             	mov    %rax,%rdi
  4043c3:	e8 79 0a 00 00       	callq  404e41 <_ZSt8_DestroyIN9__gnu_cxx17__normal_iteratorIPSsSt6vectorISsSaISsEEEEEvT_S7_>
  4043c8:	c9                   	leaveq 
  4043c9:	c3                   	retq   

00000000004043ca <_ZSt4copyIPSsS0_ET0_T_S2_S1_>:
  4043ca:	55                   	push   %rbp
  4043cb:	48 89 e5             	mov    %rsp,%rbp
  4043ce:	53                   	push   %rbx
  4043cf:	48 83 ec 28          	sub    $0x28,%rsp
  4043d3:	48 89 7d e8          	mov    %rdi,-0x18(%rbp)
  4043d7:	48 89 75 e0          	mov    %rsi,-0x20(%rbp)
  4043db:	48 89 55 d8          	mov    %rdx,-0x28(%rbp)
  4043df:	48 8b 45 e0          	mov    -0x20(%rbp),%rax
  4043e3:	48 89 c7             	mov    %rax,%rdi
  4043e6:	e8 7b 0a 00 00       	callq  404e66 <_ZSt12__miter_baseIPSsENSt11_Miter_baseIT_E13iterator_typeES2_>
  4043eb:	48 89 c3             	mov    %rax,%rbx
  4043ee:	48 8b 45 e8          	mov    -0x18(%rbp),%rax
  4043f2:	48 89 c7             	mov    %rax,%rdi
  4043f5:	e8 6c 0a 00 00       	callq  404e66 <_ZSt12__miter_baseIPSsENSt11_Miter_baseIT_E13iterator_typeES2_>
  4043fa:	48 8b 55 d8          	mov    -0x28(%rbp),%rdx
  4043fe:	48 89 de             	mov    %rbx,%rsi
  404401:	48 89 c7             	mov    %rax,%rdi
  404404:	e8 77 0a 00 00       	callq  404e80 <_ZSt14__copy_move_a2ILb0EPSsS0_ET1_T0_S2_S1_>
  404409:	48 83 c4 28          	add    $0x28,%rsp
  40440d:	5b                   	pop    %rbx
  40440e:	5d                   	pop    %rbp
  40440f:	c3                   	retq   

0000000000404410 <_ZSt22__uninitialized_copy_aIPSsS0_SsET0_T_S2_S1_RSaIT1_E>:
  404410:	55                   	push   %rbp
  404411:	48 89 e5             	mov    %rsp,%rbp
  404414:	48 83 ec 20          	sub    $0x20,%rsp
  404418:	48 89 7d f8          	mov    %rdi,-0x8(%rbp)
  40441c:	48 89 75 f0          	mov    %rsi,-0x10(%rbp)
  404420:	48 89 55 e8          	mov    %rdx,-0x18(%rbp)
  404424:	48 89 4d e0          	mov    %rcx,-0x20(%rbp)
  404428:	48 8b 55 e8          	mov    -0x18(%rbp),%rdx
  40442c:	48 8b 4d f0          	mov    -0x10(%rbp),%rcx
  404430:	48 8b 45 f8          	mov    -0x8(%rbp),%rax
  404434:	48 89 ce             	mov    %rcx,%rsi
  404437:	48 89 c7             	mov    %rax,%rdi
  40443a:	e8 99 0a 00 00       	callq  404ed8 <_ZSt18uninitialized_copyIPSsS0_ET0_T_S2_S1_>
  40443f:	c9                   	leaveq 
  404440:	c3                   	retq   

0000000000404441 <_ZN9__gnu_cxx14__alloc_traitsISaISsEE9constructISsEEvRS1_PSsRKT_>:
  404441:	55                   	push   %rbp
  404442:	48 89 e5             	mov    %rsp,%rbp
  404445:	48 83 ec 20          	sub    $0x20,%rsp
  404449:	48 89 7d f8          	mov    %rdi,-0x8(%rbp)
  40444d:	48 89 75 f0          	mov    %rsi,-0x10(%rbp)
  404451:	48 89 55 e8          	mov    %rdx,-0x18(%rbp)
  404455:	48 8b 55 e8          	mov    -0x18(%rbp),%rdx
  404459:	48 8b 4d f0          	mov    -0x10(%rbp),%rcx
  40445d:	48 8b 45 f8          	mov    -0x8(%rbp),%rax
  404461:	48 89 ce             	mov    %rcx,%rsi
  404464:	48 89 c7             	mov    %rax,%rdi
  404467:	e8 9a 0a 00 00       	callq  404f06 <_ZN9__gnu_cxx13new_allocatorISsE9constructEPSsRKSs>
  40446c:	c9                   	leaveq 
  40446d:	c3                   	retq   

000000000040446e <_ZNSt6vectorISsSaISsEE13_M_insert_auxEN9__gnu_cxx17__normal_iteratorIPSsS1_EERKSs>:
  40446e:	55                   	push   %rbp
  40446f:	48 89 e5             	mov    %rsp,%rbp
  404472:	41 54                	push   %r12
  404474:	53                   	push   %rbx
  404475:	48 83 ec 50          	sub    $0x50,%rsp
  404479:	48 89 7d b8          	mov    %rdi,-0x48(%rbp)
  40447d:	48 89 75 b0          	mov    %rsi,-0x50(%rbp)
  404481:	48 89 55 a8          	mov    %rdx,-0x58(%rbp)
  404485:	48 8b 45 b8          	mov    -0x48(%rbp),%rax
  404489:	48 8b 50 08          	mov    0x8(%rax),%rdx
  40448d:	48 8b 45 b8          	mov    -0x48(%rbp),%rax
  404491:	48 8b 40 10          	mov    0x10(%rax),%rax
  404495:	48 39 c2             	cmp    %rax,%rdx
  404498:	0f 84 ab 00 00 00    	je     404549 <_ZNSt6vectorISsSaISsEE13_M_insert_auxEN9__gnu_cxx17__normal_iteratorIPSsS1_EERKSs+0xdb>
  40449e:	48 8b 45 b8          	mov    -0x48(%rbp),%rax
  4044a2:	48 8b 40 08          	mov    0x8(%rax),%rax
  4044a6:	48 8d 50 f8          	lea    -0x8(%rax),%rdx
  4044aa:	48 8b 45 b8          	mov    -0x48(%rbp),%rax
  4044ae:	48 8b 48 08          	mov    0x8(%rax),%rcx
  4044b2:	48 8b 45 b8          	mov    -0x48(%rbp),%rax
  4044b6:	48 89 ce             	mov    %rcx,%rsi
  4044b9:	48 89 c7             	mov    %rax,%rdi
  4044bc:	e8 80 ff ff ff       	callq  404441 <_ZN9__gnu_cxx14__alloc_traitsISaISsEE9constructISsEEvRS1_PSsRKT_>
  4044c1:	48 8b 45 b8          	mov    -0x48(%rbp),%rax
  4044c5:	48 8b 40 08          	mov    0x8(%rax),%rax
  4044c9:	48 8d 50 08          	lea    0x8(%rax),%rdx
  4044cd:	48 8b 45 b8          	mov    -0x48(%rbp),%rax
  4044d1:	48 89 50 08          	mov    %rdx,0x8(%rax)
  4044d5:	48 8b 55 a8          	mov    -0x58(%rbp),%rdx
  4044d9:	48 8d 45 c0          	lea    -0x40(%rbp),%rax
  4044dd:	48 89 d6             	mov    %rdx,%rsi
  4044e0:	48 89 c7             	mov    %rax,%rdi
  4044e3:	e8 28 e0 ff ff       	callq  402510 <_ZNSsC1ERKSs@plt>
  4044e8:	48 8b 45 b8          	mov    -0x48(%rbp),%rax
  4044ec:	48 8b 40 08          	mov    0x8(%rax),%rax
  4044f0:	4c 8d 60 f8          	lea    -0x8(%rax),%r12
  4044f4:	48 8b 45 b8          	mov    -0x48(%rbp),%rax
  4044f8:	48 8b 40 08          	mov    0x8(%rax),%rax
  4044fc:	48 8d 58 f0          	lea    -0x10(%rax),%rbx
  404500:	48 8d 45 b0          	lea    -0x50(%rbp),%rax
  404504:	48 89 c7             	mov    %rax,%rdi
  404507:	e8 64 0a 00 00       	callq  404f70 <_ZNK9__gnu_cxx17__normal_iteratorIPSsSt6vectorISsSaISsEEE4baseEv>
  40450c:	48 8b 00             	mov    (%rax),%rax
  40450f:	4c 89 e2             	mov    %r12,%rdx
  404512:	48 89 de             	mov    %rbx,%rsi
  404515:	48 89 c7             	mov    %rax,%rdi
  404518:	e8 61 0a 00 00       	callq  404f7e <_ZSt13copy_backwardIPSsS0_ET0_T_S2_S1_>
  40451d:	48 8d 45 b0          	lea    -0x50(%rbp),%rax
  404521:	48 89 c7             	mov    %rax,%rdi
  404524:	e8 9b 0a 00 00       	callq  404fc4 <_ZNK9__gnu_cxx17__normal_iteratorIPSsSt6vectorISsSaISsEEEdeEv>
  404529:	48 8d 55 c0          	lea    -0x40(%rbp),%rdx
  40452d:	48 89 d6             	mov    %rdx,%rsi
  404530:	48 89 c7             	mov    %rax,%rdi
  404533:	e8 a8 e3 ff ff       	callq  4028e0 <_ZNSsaSERKSs@plt>
  404538:	48 8d 45 c0          	lea    -0x40(%rbp),%rax
  40453c:	48 89 c7             	mov    %rax,%rdi
  40453f:	e8 5c e0 ff ff       	callq  4025a0 <_ZNSsD1Ev@plt>
  404544:	e9 3b 02 00 00       	jmpq   404784 <_ZNSt6vectorISsSaISsEE13_M_insert_auxEN9__gnu_cxx17__normal_iteratorIPSsS1_EERKSs+0x316>
  404549:	48 8b 45 b8          	mov    -0x48(%rbp),%rax
  40454d:	ba 6f c3 40 00       	mov    $0x40c36f,%edx
  404552:	be 01 00 00 00       	mov    $0x1,%esi
  404557:	48 89 c7             	mov    %rax,%rdi
  40455a:	e8 77 0a 00 00       	callq  404fd6 <_ZNKSt6vectorISsSaISsEE12_M_check_lenEmPKc>
  40455f:	48 89 45 d8          	mov    %rax,-0x28(%rbp)
  404563:	48 8b 45 b8          	mov    -0x48(%rbp),%rax
  404567:	48 89 c7             	mov    %rax,%rdi
  40456a:	e8 9d fd ff ff       	callq  40430c <_ZNSt6vectorISsSaISsEE5beginEv>
  40456f:	48 89 45 c0          	mov    %rax,-0x40(%rbp)
  404573:	48 8d 55 c0          	lea    -0x40(%rbp),%rdx
  404577:	48 8d 45 b0          	lea    -0x50(%rbp),%rax
  40457b:	48 89 d6             	mov    %rdx,%rsi
  40457e:	48 89 c7             	mov    %rax,%rdi
  404581:	e8 19 0b 00 00       	callq  40509f <_ZN9__gnu_cxxmiIPSsSt6vectorISsSaISsEEEENS_17__normal_iteratorIT_T0_E15difference_typeERKS8_SB_>
  404586:	48 89 45 e0          	mov    %rax,-0x20(%rbp)
  40458a:	48 8b 45 b8          	mov    -0x48(%rbp),%rax
  40458e:	48 8b 55 d8          	mov    -0x28(%rbp),%rdx
  404592:	48 89 d6             	mov    %rdx,%rsi
  404595:	48 89 c7             	mov    %rax,%rdi
  404598:	e8 a1 07 00 00       	callq  404d3e <_ZNSt12_Vector_baseISsSaISsEE11_M_allocateEm>
  40459d:	48 89 45 e8          	mov    %rax,-0x18(%rbp)
  4045a1:	48 8b 45 e8          	mov    -0x18(%rbp),%rax
  4045a5:	48 89 45 d0          	mov    %rax,-0x30(%rbp)
  4045a9:	48 8b 45 e0          	mov    -0x20(%rbp),%rax
  4045ad:	48 8d 14 c5 00 00 00 	lea    0x0(,%rax,8),%rdx
  4045b4:	00 
  4045b5:	48 8b 45 e8          	mov    -0x18(%rbp),%rax
  4045b9:	48 8d 0c 02          	lea    (%rdx,%rax,1),%rcx
  4045bd:	48 8b 45 b8          	mov    -0x48(%rbp),%rax
  4045c1:	48 8b 55 a8          	mov    -0x58(%rbp),%rdx
  4045c5:	48 89 ce             	mov    %rcx,%rsi
  4045c8:	48 89 c7             	mov    %rax,%rdi
  4045cb:	e8 71 fe ff ff       	callq  404441 <_ZN9__gnu_cxx14__alloc_traitsISaISsEE9constructISsEEvRS1_PSsRKT_>
  4045d0:	48 c7 45 d0 00 00 00 	movq   $0x0,-0x30(%rbp)
  4045d7:	00 
  4045d8:	48 8b 45 b8          	mov    -0x48(%rbp),%rax
  4045dc:	48 89 c7             	mov    %rax,%rdi
  4045df:	e8 4e f7 ff ff       	callq  403d32 <_ZNSt12_Vector_baseISsSaISsEE19_M_get_Tp_allocatorEv>
  4045e4:	48 89 c3             	mov    %rax,%rbx
  4045e7:	48 8d 45 b0          	lea    -0x50(%rbp),%rax
  4045eb:	48 89 c7             	mov    %rax,%rdi
  4045ee:	e8 7d 09 00 00       	callq  404f70 <_ZNK9__gnu_cxx17__normal_iteratorIPSsSt6vectorISsSaISsEEE4baseEv>
  4045f3:	48 8b 30             	mov    (%rax),%rsi
  4045f6:	48 8b 45 b8          	mov    -0x48(%rbp),%rax
  4045fa:	48 8b 00             	mov    (%rax),%rax
  4045fd:	48 8b 55 e8          	mov    -0x18(%rbp),%rdx
  404601:	48 89 d9             	mov    %rbx,%rcx
  404604:	48 89 c7             	mov    %rax,%rdi
  404607:	e8 d6 0a 00 00       	callq  4050e2 <_ZSt34__uninitialized_move_if_noexcept_aIPSsS0_SaISsEET0_T_S3_S2_RT1_>
  40460c:	48 89 45 d0          	mov    %rax,-0x30(%rbp)
  404610:	48 83 45 d0 08       	addq   $0x8,-0x30(%rbp)
  404615:	48 8b 45 b8          	mov    -0x48(%rbp),%rax
  404619:	48 89 c7             	mov    %rax,%rdi
  40461c:	e8 11 f7 ff ff       	callq  403d32 <_ZNSt12_Vector_baseISsSaISsEE19_M_get_Tp_allocatorEv>
  404621:	49 89 c4             	mov    %rax,%r12
  404624:	48 8b 45 b8          	mov    -0x48(%rbp),%rax
  404628:	48 8b 58 08          	mov    0x8(%rax),%rbx
  40462c:	48 8d 45 b0          	lea    -0x50(%rbp),%rax
  404630:	48 89 c7             	mov    %rax,%rdi
  404633:	e8 38 09 00 00       	callq  404f70 <_ZNK9__gnu_cxx17__normal_iteratorIPSsSt6vectorISsSaISsEEE4baseEv>
  404638:	48 8b 00             	mov    (%rax),%rax
  40463b:	48 8b 55 d0          	mov    -0x30(%rbp),%rdx
  40463f:	4c 89 e1             	mov    %r12,%rcx
  404642:	48 89 de             	mov    %rbx,%rsi
  404645:	48 89 c7             	mov    %rax,%rdi
  404648:	e8 95 0a 00 00       	callq  4050e2 <_ZSt34__uninitialized_move_if_noexcept_aIPSsS0_SaISsEET0_T_S3_S2_RT1_>
  40464d:	48 89 45 d0          	mov    %rax,-0x30(%rbp)
  404651:	48 8b 45 b8          	mov    -0x48(%rbp),%rax
  404655:	48 89 c7             	mov    %rax,%rdi
  404658:	e8 d5 f6 ff ff       	callq  403d32 <_ZNSt12_Vector_baseISsSaISsEE19_M_get_Tp_allocatorEv>
  40465d:	48 89 c2             	mov    %rax,%rdx
  404660:	48 8b 45 b8          	mov    -0x48(%rbp),%rax
  404664:	48 8b 48 08          	mov    0x8(%rax),%rcx
  404668:	48 8b 45 b8          	mov    -0x48(%rbp),%rax
  40466c:	48 8b 00             	mov    (%rax),%rax
  40466f:	48 89 ce             	mov    %rcx,%rsi
  404672:	48 89 c7             	mov    %rax,%rdi
  404675:	e8 c6 f6 ff ff       	callq  403d40 <_ZSt8_DestroyIPSsSsEvT_S1_RSaIT0_E>
  40467a:	48 8b 45 b8          	mov    -0x48(%rbp),%rax
  40467e:	48 8b 40 10          	mov    0x10(%rax),%rax
  404682:	48 89 c2             	mov    %rax,%rdx
  404685:	48 8b 45 b8          	mov    -0x48(%rbp),%rax
  404689:	48 8b 00             	mov    (%rax),%rax
  40468c:	48 29 c2             	sub    %rax,%rdx
  40468f:	48 89 d0             	mov    %rdx,%rax
  404692:	48 c1 f8 03          	sar    $0x3,%rax
  404696:	48 89 c2             	mov    %rax,%rdx
  404699:	48 8b 45 b8          	mov    -0x48(%rbp),%rax
  40469d:	48 8b 08             	mov    (%rax),%rcx
  4046a0:	48 8b 45 b8          	mov    -0x48(%rbp),%rax
  4046a4:	48 89 ce             	mov    %rcx,%rsi
  4046a7:	48 89 c7             	mov    %rax,%rdi
  4046aa:	e8 29 fc ff ff       	callq  4042d8 <_ZNSt12_Vector_baseISsSaISsEE13_M_deallocateEPSsm>
  4046af:	48 8b 45 b8          	mov    -0x48(%rbp),%rax
  4046b3:	48 8b 55 e8          	mov    -0x18(%rbp),%rdx
  4046b7:	48 89 10             	mov    %rdx,(%rax)
  4046ba:	48 8b 45 b8          	mov    -0x48(%rbp),%rax
  4046be:	48 8b 55 d0          	mov    -0x30(%rbp),%rdx
  4046c2:	48 89 50 08          	mov    %rdx,0x8(%rax)
  4046c6:	48 8b 45 d8          	mov    -0x28(%rbp),%rax
  4046ca:	48 8d 14 c5 00 00 00 	lea    0x0(,%rax,8),%rdx
  4046d1:	00 
  4046d2:	48 8b 45 e8          	mov    -0x18(%rbp),%rax
  4046d6:	48 01 c2             	add    %rax,%rdx
  4046d9:	48 8b 45 b8          	mov    -0x48(%rbp),%rax
  4046dd:	48 89 50 10          	mov    %rdx,0x10(%rax)
  4046e1:	e9 9e 00 00 00       	jmpq   404784 <_ZNSt6vectorISsSaISsEE13_M_insert_auxEN9__gnu_cxx17__normal_iteratorIPSsS1_EERKSs+0x316>
  4046e6:	48 89 c3             	mov    %rax,%rbx
  4046e9:	48 8d 45 c0          	lea    -0x40(%rbp),%rax
  4046ed:	48 89 c7             	mov    %rax,%rdi
  4046f0:	e8 ab de ff ff       	callq  4025a0 <_ZNSsD1Ev@plt>
  4046f5:	48 89 d8             	mov    %rbx,%rax
  4046f8:	48 89 c7             	mov    %rax,%rdi
  4046fb:	e8 d0 e1 ff ff       	callq  4028d0 <_Unwind_Resume@plt>
  404700:	48 89 c3             	mov    %rax,%rbx
  404703:	e8 08 e1 ff ff       	callq  402810 <__cxa_end_catch@plt>
  404708:	48 89 d8             	mov    %rbx,%rax
  40470b:	48 89 c7             	mov    %rax,%rdi
  40470e:	e8 bd e1 ff ff       	callq  4028d0 <_Unwind_Resume@plt>
  404713:	48 89 c7             	mov    %rax,%rdi
  404716:	e8 35 e1 ff ff       	callq  402850 <__cxa_begin_catch@plt>
  40471b:	48 83 7d d0 00       	cmpq   $0x0,-0x30(%rbp)
  404720:	75 24                	jne    404746 <_ZNSt6vectorISsSaISsEE13_M_insert_auxEN9__gnu_cxx17__normal_iteratorIPSsS1_EERKSs+0x2d8>
  404722:	48 8b 45 e0          	mov    -0x20(%rbp),%rax
  404726:	48 8d 14 c5 00 00 00 	lea    0x0(,%rax,8),%rdx
  40472d:	00 
  40472e:	48 8b 45 e8          	mov    -0x18(%rbp),%rax
  404732:	48 01 c2             	add    %rax,%rdx
  404735:	48 8b 45 b8          	mov    -0x48(%rbp),%rax
  404739:	48 89 d6             	mov    %rdx,%rsi
  40473c:	48 89 c7             	mov    %rax,%rdi
  40473f:	e8 d0 09 00 00       	callq  405114 <_ZN9__gnu_cxx14__alloc_traitsISaISsEE7destroyERS1_PSs>
  404744:	eb 22                	jmp    404768 <_ZNSt6vectorISsSaISsEE13_M_insert_auxEN9__gnu_cxx17__normal_iteratorIPSsS1_EERKSs+0x2fa>
  404746:	48 8b 45 b8          	mov    -0x48(%rbp),%rax
  40474a:	48 89 c7             	mov    %rax,%rdi
  40474d:	e8 e0 f5 ff ff       	callq  403d32 <_ZNSt12_Vector_baseISsSaISsEE19_M_get_Tp_allocatorEv>
  404752:	48 89 c2             	mov    %rax,%rdx
  404755:	48 8b 4d d0          	mov    -0x30(%rbp),%rcx
  404759:	48 8b 45 e8          	mov    -0x18(%rbp),%rax
  40475d:	48 89 ce             	mov    %rcx,%rsi
  404760:	48 89 c7             	mov    %rax,%rdi
  404763:	e8 d8 f5 ff ff       	callq  403d40 <_ZSt8_DestroyIPSsSsEvT_S1_RSaIT0_E>
  404768:	48 8b 45 b8          	mov    -0x48(%rbp),%rax
  40476c:	48 8b 55 d8          	mov    -0x28(%rbp),%rdx
  404770:	48 8b 4d e8          	mov    -0x18(%rbp),%rcx
  404774:	48 89 ce             	mov    %rcx,%rsi
  404777:	48 89 c7             	mov    %rax,%rdi
  40477a:	e8 59 fb ff ff       	callq  4042d8 <_ZNSt12_Vector_baseISsSaISsEE13_M_deallocateEPSsm>
  40477f:	e8 0c dd ff ff       	callq  402490 <__cxa_rethrow@plt>
  404784:	48 83 c4 50          	add    $0x50,%rsp
  404788:	5b                   	pop    %rbx
  404789:	41 5c                	pop    %r12
  40478b:	5d                   	pop    %rbp
  40478c:	c3                   	retq   
  40478d:	90                   	nop

000000000040478e <_ZN9__gnu_cxx13new_allocatorIPSt6vectorISsSaISsEEE7destroyEPS4_>:
  40478e:	55                   	push   %rbp
  40478f:	48 89 e5             	mov    %rsp,%rbp
  404792:	48 89 7d f8          	mov    %rdi,-0x8(%rbp)
  404796:	48 89 75 f0          	mov    %rsi,-0x10(%rbp)
  40479a:	5d                   	pop    %rbp
  40479b:	c3                   	retq   

000000000040479c <_ZNSt5dequeIPSt6vectorISsSaISsEESaIS3_EE16_M_pop_front_auxEv>:
  40479c:	55                   	push   %rbp
  40479d:	48 89 e5             	mov    %rsp,%rbp
  4047a0:	48 83 ec 10          	sub    $0x10,%rsp
  4047a4:	48 89 7d f8          	mov    %rdi,-0x8(%rbp)
  4047a8:	48 8b 45 f8          	mov    -0x8(%rbp),%rax
  4047ac:	48 8b 50 10          	mov    0x10(%rax),%rdx
  4047b0:	48 8b 45 f8          	mov    -0x8(%rbp),%rax
  4047b4:	48 89 d6             	mov    %rdx,%rsi
  4047b7:	48 89 c7             	mov    %rax,%rdi
  4047ba:	e8 cf ff ff ff       	callq  40478e <_ZN9__gnu_cxx13new_allocatorIPSt6vectorISsSaISsEEE7destroyEPS4_>
  4047bf:	48 8b 45 f8          	mov    -0x8(%rbp),%rax
  4047c3:	48 8b 50 18          	mov    0x18(%rax),%rdx
  4047c7:	48 8b 45 f8          	mov    -0x8(%rbp),%rax
  4047cb:	48 89 d6             	mov    %rdx,%rsi
  4047ce:	48 89 c7             	mov    %rax,%rdi
  4047d1:	e8 36 05 00 00       	callq  404d0c <_ZNSt11_Deque_baseIPSt6vectorISsSaISsEESaIS3_EE18_M_deallocate_nodeEPS3_>
  4047d6:	48 8b 45 f8          	mov    -0x8(%rbp),%rax
  4047da:	48 8b 40 28          	mov    0x28(%rax),%rax
  4047de:	48 8d 50 08          	lea    0x8(%rax),%rdx
  4047e2:	48 8b 45 f8          	mov    -0x8(%rbp),%rax
  4047e6:	48 83 c0 10          	add    $0x10,%rax
  4047ea:	48 89 d6             	mov    %rdx,%rsi
  4047ed:	48 89 c7             	mov    %rax,%rdi
  4047f0:	e8 c7 04 00 00       	callq  404cbc <_ZNSt15_Deque_iteratorIPSt6vectorISsSaISsEERS3_PS3_E11_M_set_nodeEPS5_>
  4047f5:	48 8b 45 f8          	mov    -0x8(%rbp),%rax
  4047f9:	48 8b 50 18          	mov    0x18(%rax),%rdx
  4047fd:	48 8b 45 f8          	mov    -0x8(%rbp),%rax
  404801:	48 89 50 10          	mov    %rdx,0x10(%rax)
  404805:	c9                   	leaveq 
  404806:	c3                   	retq   

0000000000404807 <_ZSt8_DestroyIPSsEvT_S1_>:
  404807:	55                   	push   %rbp
  404808:	48 89 e5             	mov    %rsp,%rbp
  40480b:	48 83 ec 10          	sub    $0x10,%rsp
  40480f:	48 89 7d f8          	mov    %rdi,-0x8(%rbp)
  404813:	48 89 75 f0          	mov    %rsi,-0x10(%rbp)
  404817:	48 8b 55 f0          	mov    -0x10(%rbp),%rdx
  40481b:	48 8b 45 f8          	mov    -0x8(%rbp),%rax
  40481f:	48 89 d6             	mov    %rdx,%rsi
  404822:	48 89 c7             	mov    %rax,%rdi
  404825:	e8 0f 09 00 00       	callq  405139 <_ZNSt12_Destroy_auxILb0EE9__destroyIPSsEEvT_S3_>
  40482a:	c9                   	leaveq 
  40482b:	c3                   	retq   

000000000040482c <_ZNSt12_Vector_baseISsSaISsEE12_Vector_implC1ERKS0_>:
  40482c:	55                   	push   %rbp
  40482d:	48 89 e5             	mov    %rsp,%rbp
  404830:	48 83 ec 10          	sub    $0x10,%rsp
  404834:	48 89 7d f8          	mov    %rdi,-0x8(%rbp)
  404838:	48 89 75 f0          	mov    %rsi,-0x10(%rbp)
  40483c:	48 8b 55 f0          	mov    -0x10(%rbp),%rdx
  404840:	48 8b 45 f8          	mov    -0x8(%rbp),%rax
  404844:	48 89 d6             	mov    %rdx,%rsi
  404847:	48 89 c7             	mov    %rax,%rdi
  40484a:	e8 21 09 00 00       	callq  405170 <_ZNSaISsEC1ERKS_>
  40484f:	48 8b 45 f8          	mov    -0x8(%rbp),%rax
  404853:	48 c7 00 00 00 00 00 	movq   $0x0,(%rax)
  40485a:	48 8b 45 f8          	mov    -0x8(%rbp),%rax
  40485e:	48 c7 40 08 00 00 00 	movq   $0x0,0x8(%rax)
  404865:	00 
  404866:	48 8b 45 f8          	mov    -0x8(%rbp),%rax
  40486a:	48 c7 40 10 00 00 00 	movq   $0x0,0x10(%rax)
  404871:	00 
  404872:	c9                   	leaveq 
  404873:	c3                   	retq   

0000000000404874 <_ZNSt12_Vector_baseISsSaISsEE17_M_create_storageEm>:
  404874:	55                   	push   %rbp
  404875:	48 89 e5             	mov    %rsp,%rbp
  404878:	48 83 ec 10          	sub    $0x10,%rsp
  40487c:	48 89 7d f8          	mov    %rdi,-0x8(%rbp)
  404880:	48 89 75 f0          	mov    %rsi,-0x10(%rbp)
  404884:	48 8b 55 f0          	mov    -0x10(%rbp),%rdx
  404888:	48 8b 45 f8          	mov    -0x8(%rbp),%rax
  40488c:	48 89 d6             	mov    %rdx,%rsi
  40488f:	48 89 c7             	mov    %rax,%rdi
  404892:	e8 a7 04 00 00       	callq  404d3e <_ZNSt12_Vector_baseISsSaISsEE11_M_allocateEm>
  404897:	48 8b 55 f8          	mov    -0x8(%rbp),%rdx
  40489b:	48 89 02             	mov    %rax,(%rdx)
  40489e:	48 8b 45 f8          	mov    -0x8(%rbp),%rax
  4048a2:	48 8b 10             	mov    (%rax),%rdx
  4048a5:	48 8b 45 f8          	mov    -0x8(%rbp),%rax
  4048a9:	48 89 50 08          	mov    %rdx,0x8(%rax)
  4048ad:	48 8b 45 f8          	mov    -0x8(%rbp),%rax
  4048b1:	48 8b 00             	mov    (%rax),%rax
  4048b4:	48 8b 55 f0          	mov    -0x10(%rbp),%rdx
  4048b8:	48 c1 e2 03          	shl    $0x3,%rdx
  4048bc:	48 01 c2             	add    %rax,%rdx
  4048bf:	48 8b 45 f8          	mov    -0x8(%rbp),%rax
  4048c3:	48 89 50 10          	mov    %rdx,0x10(%rax)
  4048c7:	c9                   	leaveq 
  4048c8:	c3                   	retq   
  4048c9:	90                   	nop

00000000004048ca <_ZN9__gnu_cxx17__normal_iteratorIPKSsSt6vectorISsSaISsEEEC1ERKS2_>:
  4048ca:	55                   	push   %rbp
  4048cb:	48 89 e5             	mov    %rsp,%rbp
  4048ce:	48 89 7d f8          	mov    %rdi,-0x8(%rbp)
  4048d2:	48 89 75 f0          	mov    %rsi,-0x10(%rbp)
  4048d6:	48 8b 45 f0          	mov    -0x10(%rbp),%rax
  4048da:	48 8b 10             	mov    (%rax),%rdx
  4048dd:	48 8b 45 f8          	mov    -0x8(%rbp),%rax
  4048e1:	48 89 10             	mov    %rdx,(%rax)
  4048e4:	5d                   	pop    %rbp
  4048e5:	c3                   	retq   

00000000004048e6 <_ZSt18uninitialized_copyIN9__gnu_cxx17__normal_iteratorIPKSsSt6vectorISsSaISsEEEEPSsET0_T_SA_S9_>:
  4048e6:	55                   	push   %rbp
  4048e7:	48 89 e5             	mov    %rsp,%rbp
  4048ea:	48 83 ec 20          	sub    $0x20,%rsp
  4048ee:	48 89 7d f0          	mov    %rdi,-0x10(%rbp)
  4048f2:	48 89 75 e0          	mov    %rsi,-0x20(%rbp)
  4048f6:	48 89 55 e8          	mov    %rdx,-0x18(%rbp)
  4048fa:	48 8b 55 e8          	mov    -0x18(%rbp),%rdx
  4048fe:	48 8b 4d e0          	mov    -0x20(%rbp),%rcx
  404902:	48 8b 45 f0          	mov    -0x10(%rbp),%rax
  404906:	48 89 ce             	mov    %rcx,%rsi
  404909:	48 89 c7             	mov    %rax,%rdi
  40490c:	e8 84 08 00 00       	callq  405195 <_ZNSt20__uninitialized_copyILb0EE13__uninit_copyIN9__gnu_cxx17__normal_iteratorIPKSsSt6vectorISsSaISsEEEEPSsEET0_T_SC_SB_>
  404911:	c9                   	leaveq 
  404912:	c3                   	retq   
  404913:	90                   	nop

0000000000404914 <_ZNSt11_Deque_baseIPSt6vectorISsSaISsEESaIS3_EE11_Deque_implC1Ev>:
  404914:	55                   	push   %rbp
  404915:	48 89 e5             	mov    %rsp,%rbp
  404918:	48 83 ec 10          	sub    $0x10,%rsp
  40491c:	48 89 7d f8          	mov    %rdi,-0x8(%rbp)
  404920:	48 8b 45 f8          	mov    -0x8(%rbp),%rax
  404924:	48 89 c7             	mov    %rax,%rdi
  404927:	e8 16 09 00 00       	callq  405242 <_ZNSaIPSt6vectorISsSaISsEEEC1Ev>
  40492c:	48 8b 45 f8          	mov    -0x8(%rbp),%rax
  404930:	48 c7 00 00 00 00 00 	movq   $0x0,(%rax)
  404937:	48 8b 45 f8          	mov    -0x8(%rbp),%rax
  40493b:	48 c7 40 08 00 00 00 	movq   $0x0,0x8(%rax)
  404942:	00 
  404943:	48 8b 45 f8          	mov    -0x8(%rbp),%rax
  404947:	48 83 c0 10          	add    $0x10,%rax
  40494b:	48 89 c7             	mov    %rax,%rdi
  40494e:	e8 09 09 00 00       	callq  40525c <_ZNSt15_Deque_iteratorIPSt6vectorISsSaISsEERS3_PS3_EC1Ev>
  404953:	48 8b 45 f8          	mov    -0x8(%rbp),%rax
  404957:	48 83 c0 30          	add    $0x30,%rax
  40495b:	48 89 c7             	mov    %rax,%rdi
  40495e:	e8 f9 08 00 00       	callq  40525c <_ZNSt15_Deque_iteratorIPSt6vectorISsSaISsEERS3_PS3_EC1Ev>
  404963:	c9                   	leaveq 
  404964:	c3                   	retq   
  404965:	90                   	nop

0000000000404966 <_ZNSaIPSt6vectorISsSaISsEEED1Ev>:
  404966:	55                   	push   %rbp
  404967:	48 89 e5             	mov    %rsp,%rbp
  40496a:	48 83 ec 10          	sub    $0x10,%rsp
  40496e:	48 89 7d f8          	mov    %rdi,-0x8(%rbp)
  404972:	48 8b 45 f8          	mov    -0x8(%rbp),%rax
  404976:	48 89 c7             	mov    %rax,%rdi
  404979:	e8 18 09 00 00       	callq  405296 <_ZN9__gnu_cxx13new_allocatorIPSt6vectorISsSaISsEEED1Ev>
  40497e:	c9                   	leaveq 
  40497f:	c3                   	retq   

0000000000404980 <_ZNSt11_Deque_baseIPSt6vectorISsSaISsEESaIS3_EE17_M_initialize_mapEm>:
  404980:	55                   	push   %rbp
  404981:	48 89 e5             	mov    %rsp,%rbp
  404984:	53                   	push   %rbx
  404985:	48 83 ec 48          	sub    $0x48,%rsp
  404989:	48 89 7d b8          	mov    %rdi,-0x48(%rbp)
  40498d:	48 89 75 b0          	mov    %rsi,-0x50(%rbp)
  404991:	bf 08 00 00 00       	mov    $0x8,%edi
  404996:	e8 5c eb ff ff       	callq  4034f7 <_ZSt16__deque_buf_sizem>
  40499b:	48 89 c3             	mov    %rax,%rbx
  40499e:	48 8b 45 b0          	mov    -0x50(%rbp),%rax
  4049a2:	ba 00 00 00 00       	mov    $0x0,%edx
  4049a7:	48 f7 f3             	div    %rbx
  4049aa:	48 83 c0 01          	add    $0x1,%rax
  4049ae:	48 89 45 d8          	mov    %rax,-0x28(%rbp)
  4049b2:	48 8b 45 d8          	mov    -0x28(%rbp),%rax
  4049b6:	48 83 c0 02          	add    $0x2,%rax
  4049ba:	48 89 45 d0          	mov    %rax,-0x30(%rbp)
  4049be:	48 c7 45 c8 08 00 00 	movq   $0x8,-0x38(%rbp)
  4049c5:	00 
  4049c6:	48 8d 55 d0          	lea    -0x30(%rbp),%rdx
  4049ca:	48 8d 45 c8          	lea    -0x38(%rbp),%rax
  4049ce:	48 89 d6             	mov    %rdx,%rsi
  4049d1:	48 89 c7             	mov    %rax,%rdi
  4049d4:	e8 c7 08 00 00       	callq  4052a0 <_ZSt3maxImERKT_S2_S2_>
  4049d9:	48 8b 10             	mov    (%rax),%rdx
  4049dc:	48 8b 45 b8          	mov    -0x48(%rbp),%rax
  4049e0:	48 89 50 08          	mov    %rdx,0x8(%rax)
  4049e4:	48 8b 45 b8          	mov    -0x48(%rbp),%rax
  4049e8:	48 8b 50 08          	mov    0x8(%rax),%rdx
  4049ec:	48 8b 45 b8          	mov    -0x48(%rbp),%rax
  4049f0:	48 89 d6             	mov    %rdx,%rsi
  4049f3:	48 89 c7             	mov    %rax,%rdi
  4049f6:	e8 d1 08 00 00       	callq  4052cc <_ZNSt11_Deque_baseIPSt6vectorISsSaISsEESaIS3_EE15_M_allocate_mapEm>
  4049fb:	48 8b 55 b8          	mov    -0x48(%rbp),%rdx
  4049ff:	48 89 02             	mov    %rax,(%rdx)
  404a02:	48 8b 45 b8          	mov    -0x48(%rbp),%rax
  404a06:	48 8b 10             	mov    (%rax),%rdx
  404a09:	48 8b 45 b8          	mov    -0x48(%rbp),%rax
  404a0d:	48 8b 40 08          	mov    0x8(%rax),%rax
  404a11:	48 2b 45 d8          	sub    -0x28(%rbp),%rax
  404a15:	48 d1 e8             	shr    %rax
  404a18:	48 c1 e0 03          	shl    $0x3,%rax
  404a1c:	48 01 d0             	add    %rdx,%rax
  404a1f:	48 89 45 e0          	mov    %rax,-0x20(%rbp)
  404a23:	48 8b 45 d8          	mov    -0x28(%rbp),%rax
  404a27:	48 8d 14 c5 00 00 00 	lea    0x0(,%rax,8),%rdx
  404a2e:	00 
  404a2f:	48 8b 45 e0          	mov    -0x20(%rbp),%rax
  404a33:	48 01 d0             	add    %rdx,%rax
  404a36:	48 89 45 e8          	mov    %rax,-0x18(%rbp)
  404a3a:	48 8b 55 e8          	mov    -0x18(%rbp),%rdx
  404a3e:	48 8b 4d e0          	mov    -0x20(%rbp),%rcx
  404a42:	48 8b 45 b8          	mov    -0x48(%rbp),%rax
  404a46:	48 89 ce             	mov    %rcx,%rsi
  404a49:	48 89 c7             	mov    %rax,%rdi
  404a4c:	e8 ed 08 00 00       	callq  40533e <_ZNSt11_Deque_baseIPSt6vectorISsSaISsEESaIS3_EE15_M_create_nodesEPPS3_S7_>
  404a51:	48 8b 45 b8          	mov    -0x48(%rbp),%rax
  404a55:	48 8d 50 10          	lea    0x10(%rax),%rdx
  404a59:	48 8b 45 e0          	mov    -0x20(%rbp),%rax
  404a5d:	48 89 c6             	mov    %rax,%rsi
  404a60:	48 89 d7             	mov    %rdx,%rdi
  404a63:	e8 54 02 00 00       	callq  404cbc <_ZNSt15_Deque_iteratorIPSt6vectorISsSaISsEERS3_PS3_E11_M_set_nodeEPS5_>
  404a68:	48 8b 45 e8          	mov    -0x18(%rbp),%rax
  404a6c:	48 8d 50 f8          	lea    -0x8(%rax),%rdx
  404a70:	48 8b 45 b8          	mov    -0x48(%rbp),%rax
  404a74:	48 83 c0 30          	add    $0x30,%rax
  404a78:	48 89 d6             	mov    %rdx,%rsi
  404a7b:	48 89 c7             	mov    %rax,%rdi
  404a7e:	e8 39 02 00 00       	callq  404cbc <_ZNSt15_Deque_iteratorIPSt6vectorISsSaISsEERS3_PS3_E11_M_set_nodeEPS5_>
  404a83:	48 8b 45 b8          	mov    -0x48(%rbp),%rax
  404a87:	48 8b 50 18          	mov    0x18(%rax),%rdx
  404a8b:	48 8b 45 b8          	mov    -0x48(%rbp),%rax
  404a8f:	48 89 50 10          	mov    %rdx,0x10(%rax)
  404a93:	48 8b 45 b8          	mov    -0x48(%rbp),%rax
  404a97:	48 8b 58 38          	mov    0x38(%rax),%rbx
  404a9b:	bf 08 00 00 00       	mov    $0x8,%edi
  404aa0:	e8 52 ea ff ff       	callq  4034f7 <_ZSt16__deque_buf_sizem>
  404aa5:	48 89 c1             	mov    %rax,%rcx
  404aa8:	48 8b 45 b0          	mov    -0x50(%rbp),%rax
  404aac:	ba 00 00 00 00       	mov    $0x0,%edx
  404ab1:	48 f7 f1             	div    %rcx
  404ab4:	48 89 d1             	mov    %rdx,%rcx
  404ab7:	48 89 c8             	mov    %rcx,%rax
  404aba:	48 c1 e0 03          	shl    $0x3,%rax
  404abe:	48 8d 14 03          	lea    (%rbx,%rax,1),%rdx
  404ac2:	48 8b 45 b8          	mov    -0x48(%rbp),%rax
  404ac6:	48 89 50 30          	mov    %rdx,0x30(%rax)
  404aca:	eb 55                	jmp    404b21 <_ZNSt11_Deque_baseIPSt6vectorISsSaISsEESaIS3_EE17_M_initialize_mapEm+0x1a1>
  404acc:	48 89 c3             	mov    %rax,%rbx
  404acf:	e8 3c dd ff ff       	callq  402810 <__cxa_end_catch@plt>
  404ad4:	48 89 d8             	mov    %rbx,%rax
  404ad7:	48 89 c7             	mov    %rax,%rdi
  404ada:	e8 f1 dd ff ff       	callq  4028d0 <_Unwind_Resume@plt>
  404adf:	48 89 c7             	mov    %rax,%rdi
  404ae2:	e8 69 dd ff ff       	callq  402850 <__cxa_begin_catch@plt>
  404ae7:	48 8b 45 b8          	mov    -0x48(%rbp),%rax
  404aeb:	48 8b 50 08          	mov    0x8(%rax),%rdx
  404aef:	48 8b 45 b8          	mov    -0x48(%rbp),%rax
  404af3:	48 8b 08             	mov    (%rax),%rcx
  404af6:	48 8b 45 b8          	mov    -0x48(%rbp),%rax
  404afa:	48 89 ce             	mov    %rcx,%rsi
  404afd:	48 89 c7             	mov    %rax,%rdi
  404b00:	e8 69 00 00 00       	callq  404b6e <_ZNSt11_Deque_baseIPSt6vectorISsSaISsEESaIS3_EE17_M_deallocate_mapEPPS3_m>
  404b05:	48 8b 45 b8          	mov    -0x48(%rbp),%rax
  404b09:	48 c7 00 00 00 00 00 	movq   $0x0,(%rax)
  404b10:	48 8b 45 b8          	mov    -0x48(%rbp),%rax
  404b14:	48 c7 40 08 00 00 00 	movq   $0x0,0x8(%rax)
  404b1b:	00 
  404b1c:	e8 6f d9 ff ff       	callq  402490 <__cxa_rethrow@plt>
  404b21:	48 83 c4 48          	add    $0x48,%rsp
  404b25:	5b                   	pop    %rbx
  404b26:	5d                   	pop    %rbp
  404b27:	c3                   	retq   

0000000000404b28 <_ZNSt11_Deque_baseIPSt6vectorISsSaISsEESaIS3_EE16_M_destroy_nodesEPPS3_S7_>:
  404b28:	55                   	push   %rbp
  404b29:	48 89 e5             	mov    %rsp,%rbp
  404b2c:	48 83 ec 30          	sub    $0x30,%rsp
  404b30:	48 89 7d e8          	mov    %rdi,-0x18(%rbp)
  404b34:	48 89 75 e0          	mov    %rsi,-0x20(%rbp)
  404b38:	48 89 55 d8          	mov    %rdx,-0x28(%rbp)
  404b3c:	48 8b 45 e0          	mov    -0x20(%rbp),%rax
  404b40:	48 89 45 f8          	mov    %rax,-0x8(%rbp)
  404b44:	eb 1b                	jmp    404b61 <_ZNSt11_Deque_baseIPSt6vectorISsSaISsEESaIS3_EE16_M_destroy_nodesEPPS3_S7_+0x39>
  404b46:	48 8b 45 f8          	mov    -0x8(%rbp),%rax
  404b4a:	48 8b 10             	mov    (%rax),%rdx
  404b4d:	48 8b 45 e8          	mov    -0x18(%rbp),%rax
  404b51:	48 89 d6             	mov    %rdx,%rsi
  404b54:	48 89 c7             	mov    %rax,%rdi
  404b57:	e8 b0 01 00 00       	callq  404d0c <_ZNSt11_Deque_baseIPSt6vectorISsSaISsEESaIS3_EE18_M_deallocate_nodeEPS3_>
  404b5c:	48 83 45 f8 08       	addq   $0x8,-0x8(%rbp)
  404b61:	48 8b 45 f8          	mov    -0x8(%rbp),%rax
  404b65:	48 3b 45 d8          	cmp    -0x28(%rbp),%rax
  404b69:	72 db                	jb     404b46 <_ZNSt11_Deque_baseIPSt6vectorISsSaISsEESaIS3_EE16_M_destroy_nodesEPPS3_S7_+0x1e>
  404b6b:	c9                   	leaveq 
  404b6c:	c3                   	retq   
  404b6d:	90                   	nop

0000000000404b6e <_ZNSt11_Deque_baseIPSt6vectorISsSaISsEESaIS3_EE17_M_deallocate_mapEPPS3_m>:
  404b6e:	55                   	push   %rbp
  404b6f:	48 89 e5             	mov    %rsp,%rbp
  404b72:	48 83 ec 30          	sub    $0x30,%rsp
  404b76:	48 89 7d e8          	mov    %rdi,-0x18(%rbp)
  404b7a:	48 89 75 e0          	mov    %rsi,-0x20(%rbp)
  404b7e:	48 89 55 d8          	mov    %rdx,-0x28(%rbp)
  404b82:	48 8d 45 ff          	lea    -0x1(%rbp),%rax
  404b86:	48 8b 55 e8          	mov    -0x18(%rbp),%rdx
  404b8a:	48 89 d6             	mov    %rdx,%rsi
  404b8d:	48 89 c7             	mov    %rax,%rdi
  404b90:	e8 2b 08 00 00       	callq  4053c0 <_ZNKSt11_Deque_baseIPSt6vectorISsSaISsEESaIS3_EE20_M_get_map_allocatorEv>
  404b95:	48 8b 55 d8          	mov    -0x28(%rbp),%rdx
  404b99:	48 8b 4d e0          	mov    -0x20(%rbp),%rcx
  404b9d:	48 8d 45 ff          	lea    -0x1(%rbp),%rax
  404ba1:	48 89 ce             	mov    %rcx,%rsi
  404ba4:	48 89 c7             	mov    %rax,%rdi
  404ba7:	e8 62 08 00 00       	callq  40540e <_ZN9__gnu_cxx13new_allocatorIPPSt6vectorISsSaISsEEE10deallocateEPS5_m>
  404bac:	48 8d 45 ff          	lea    -0x1(%rbp),%rax
  404bb0:	48 89 c7             	mov    %rax,%rdi
  404bb3:	e8 3c 08 00 00       	callq  4053f4 <_ZNSaIPPSt6vectorISsSaISsEEED1Ev>
  404bb8:	c9                   	leaveq 
  404bb9:	c3                   	retq   

0000000000404bba <_ZSt24__uninitialized_fill_n_aIPSsmSsSsEvT_T0_RKT1_RSaIT2_E>:
  404bba:	55                   	push   %rbp
  404bbb:	48 89 e5             	mov    %rsp,%rbp
  404bbe:	48 83 ec 20          	sub    $0x20,%rsp
  404bc2:	48 89 7d f8          	mov    %rdi,-0x8(%rbp)
  404bc6:	48 89 75 f0          	mov    %rsi,-0x10(%rbp)
  404bca:	48 89 55 e8          	mov    %rdx,-0x18(%rbp)
  404bce:	48 89 4d e0          	mov    %rcx,-0x20(%rbp)
  404bd2:	48 8b 55 e8          	mov    -0x18(%rbp),%rdx
  404bd6:	48 8b 4d f0          	mov    -0x10(%rbp),%rcx
  404bda:	48 8b 45 f8          	mov    -0x8(%rbp),%rax
  404bde:	48 89 ce             	mov    %rcx,%rsi
  404be1:	48 89 c7             	mov    %rax,%rdi
  404be4:	e8 47 08 00 00       	callq  405430 <_ZSt20uninitialized_fill_nIPSsmSsEvT_T0_RKT1_>
  404be9:	c9                   	leaveq 
  404bea:	c3                   	retq   
  404beb:	90                   	nop

0000000000404bec <_ZNSt12_Vector_baseISsSaISsEE12_Vector_implC1Ev>:
  404bec:	55                   	push   %rbp
  404bed:	48 89 e5             	mov    %rsp,%rbp
  404bf0:	48 83 ec 10          	sub    $0x10,%rsp
  404bf4:	48 89 7d f8          	mov    %rdi,-0x8(%rbp)
  404bf8:	48 8b 45 f8          	mov    -0x8(%rbp),%rax
  404bfc:	48 89 c7             	mov    %rax,%rdi
  404bff:	e8 0c eb ff ff       	callq  403710 <_ZNSaISsEC1Ev>
  404c04:	48 8b 45 f8          	mov    -0x8(%rbp),%rax
  404c08:	48 c7 00 00 00 00 00 	movq   $0x0,(%rax)
  404c0f:	48 8b 45 f8          	mov    -0x8(%rbp),%rax
  404c13:	48 c7 40 08 00 00 00 	movq   $0x0,0x8(%rax)
  404c1a:	00 
  404c1b:	48 8b 45 f8          	mov    -0x8(%rbp),%rax
  404c1f:	48 c7 40 10 00 00 00 	movq   $0x0,0x10(%rax)
  404c26:	00 
  404c27:	c9                   	leaveq 
  404c28:	c3                   	retq   
  404c29:	90                   	nop

0000000000404c2a <_ZNSt5dequeIPSt6vectorISsSaISsEESaIS3_EE22_M_reserve_map_at_backEm>:
  404c2a:	55                   	push   %rbp
  404c2b:	48 89 e5             	mov    %rsp,%rbp
  404c2e:	48 83 ec 10          	sub    $0x10,%rsp
  404c32:	48 89 7d f8          	mov    %rdi,-0x8(%rbp)
  404c36:	48 89 75 f0          	mov    %rsi,-0x10(%rbp)
  404c3a:	48 8b 45 f0          	mov    -0x10(%rbp),%rax
  404c3e:	48 8d 70 01          	lea    0x1(%rax),%rsi
  404c42:	48 8b 45 f8          	mov    -0x8(%rbp),%rax
  404c46:	48 8b 50 08          	mov    0x8(%rax),%rdx
  404c4a:	48 8b 45 f8          	mov    -0x8(%rbp),%rax
  404c4e:	48 8b 40 48          	mov    0x48(%rax),%rax
  404c52:	48 89 c1             	mov    %rax,%rcx
  404c55:	48 8b 45 f8          	mov    -0x8(%rbp),%rax
  404c59:	48 8b 00             	mov    (%rax),%rax
  404c5c:	48 29 c1             	sub    %rax,%rcx
  404c5f:	48 89 c8             	mov    %rcx,%rax
  404c62:	48 c1 f8 03          	sar    $0x3,%rax
  404c66:	48 29 c2             	sub    %rax,%rdx
  404c69:	48 89 d0             	mov    %rdx,%rax
  404c6c:	48 39 c6             	cmp    %rax,%rsi
  404c6f:	76 18                	jbe    404c89 <_ZNSt5dequeIPSt6vectorISsSaISsEESaIS3_EE22_M_reserve_map_at_backEm+0x5f>
  404c71:	48 8b 4d f0          	mov    -0x10(%rbp),%rcx
  404c75:	48 8b 45 f8          	mov    -0x8(%rbp),%rax
  404c79:	ba 00 00 00 00       	mov    $0x0,%edx
  404c7e:	48 89 ce             	mov    %rcx,%rsi
  404c81:	48 89 c7             	mov    %rax,%rdi
  404c84:	e8 d5 07 00 00       	callq  40545e <_ZNSt5dequeIPSt6vectorISsSaISsEESaIS3_EE17_M_reallocate_mapEmb>
  404c89:	c9                   	leaveq 
  404c8a:	c3                   	retq   
  404c8b:	90                   	nop

0000000000404c8c <_ZNSt11_Deque_baseIPSt6vectorISsSaISsEESaIS3_EE16_M_allocate_nodeEv>:
  404c8c:	55                   	push   %rbp
  404c8d:	48 89 e5             	mov    %rsp,%rbp
  404c90:	48 83 ec 10          	sub    $0x10,%rsp
  404c94:	48 89 7d f8          	mov    %rdi,-0x8(%rbp)
  404c98:	bf 08 00 00 00       	mov    $0x8,%edi
  404c9d:	e8 55 e8 ff ff       	callq  4034f7 <_ZSt16__deque_buf_sizem>
  404ca2:	48 89 c1             	mov    %rax,%rcx
  404ca5:	48 8b 45 f8          	mov    -0x8(%rbp),%rax
  404ca9:	ba 00 00 00 00       	mov    $0x0,%edx
  404cae:	48 89 ce             	mov    %rcx,%rsi
  404cb1:	48 89 c7             	mov    %rax,%rdi
  404cb4:	e8 cd 09 00 00       	callq  405686 <_ZN9__gnu_cxx13new_allocatorIPSt6vectorISsSaISsEEE8allocateEmPKv>
  404cb9:	c9                   	leaveq 
  404cba:	c3                   	retq   
  404cbb:	90                   	nop

0000000000404cbc <_ZNSt15_Deque_iteratorIPSt6vectorISsSaISsEERS3_PS3_E11_M_set_nodeEPS5_>:
  404cbc:	55                   	push   %rbp
  404cbd:	48 89 e5             	mov    %rsp,%rbp
  404cc0:	53                   	push   %rbx
  404cc1:	48 83 ec 18          	sub    $0x18,%rsp
  404cc5:	48 89 7d e8          	mov    %rdi,-0x18(%rbp)
  404cc9:	48 89 75 e0          	mov    %rsi,-0x20(%rbp)
  404ccd:	48 8b 45 e8          	mov    -0x18(%rbp),%rax
  404cd1:	48 8b 55 e0          	mov    -0x20(%rbp),%rdx
  404cd5:	48 89 50 18          	mov    %rdx,0x18(%rax)
  404cd9:	48 8b 45 e0          	mov    -0x20(%rbp),%rax
  404cdd:	48 8b 10             	mov    (%rax),%rdx
  404ce0:	48 8b 45 e8          	mov    -0x18(%rbp),%rax
  404ce4:	48 89 50 08          	mov    %rdx,0x8(%rax)
  404ce8:	48 8b 45 e8          	mov    -0x18(%rbp),%rax
  404cec:	48 8b 58 08          	mov    0x8(%rax),%rbx
  404cf0:	e8 d3 09 00 00       	callq  4056c8 <_ZNSt15_Deque_iteratorIPSt6vectorISsSaISsEERS3_PS3_E14_S_buffer_sizeEv>
  404cf5:	48 c1 e0 03          	shl    $0x3,%rax
  404cf9:	48 8d 14 03          	lea    (%rbx,%rax,1),%rdx
  404cfd:	48 8b 45 e8          	mov    -0x18(%rbp),%rax
  404d01:	48 89 50 10          	mov    %rdx,0x10(%rax)
  404d05:	48 83 c4 18          	add    $0x18,%rsp
  404d09:	5b                   	pop    %rbx
  404d0a:	5d                   	pop    %rbp
  404d0b:	c3                   	retq   

0000000000404d0c <_ZNSt11_Deque_baseIPSt6vectorISsSaISsEESaIS3_EE18_M_deallocate_nodeEPS3_>:
  404d0c:	55                   	push   %rbp
  404d0d:	48 89 e5             	mov    %rsp,%rbp
  404d10:	48 83 ec 10          	sub    $0x10,%rsp
  404d14:	48 89 7d f8          	mov    %rdi,-0x8(%rbp)
  404d18:	48 89 75 f0          	mov    %rsi,-0x10(%rbp)
  404d1c:	bf 08 00 00 00       	mov    $0x8,%edi
  404d21:	e8 d1 e7 ff ff       	callq  4034f7 <_ZSt16__deque_buf_sizem>
  404d26:	48 89 c2             	mov    %rax,%rdx
  404d29:	48 8b 45 f8          	mov    -0x8(%rbp),%rax
  404d2d:	48 8b 4d f0          	mov    -0x10(%rbp),%rcx
  404d31:	48 89 ce             	mov    %rcx,%rsi
  404d34:	48 89 c7             	mov    %rax,%rdi
  404d37:	e8 9c 09 00 00       	callq  4056d8 <_ZN9__gnu_cxx13new_allocatorIPSt6vectorISsSaISsEEE10deallocateEPS4_m>
  404d3c:	c9                   	leaveq 
  404d3d:	c3                   	retq   

0000000000404d3e <_ZNSt12_Vector_baseISsSaISsEE11_M_allocateEm>:
  404d3e:	55                   	push   %rbp
  404d3f:	48 89 e5             	mov    %rsp,%rbp
  404d42:	48 83 ec 10          	sub    $0x10,%rsp
  404d46:	48 89 7d f8          	mov    %rdi,-0x8(%rbp)
  404d4a:	48 89 75 f0          	mov    %rsi,-0x10(%rbp)
  404d4e:	48 83 7d f0 00       	cmpq   $0x0,-0x10(%rbp)
  404d53:	74 1a                	je     404d6f <_ZNSt12_Vector_baseISsSaISsEE11_M_allocateEm+0x31>
  404d55:	48 8b 45 f8          	mov    -0x8(%rbp),%rax
  404d59:	48 8b 4d f0          	mov    -0x10(%rbp),%rcx
  404d5d:	ba 00 00 00 00       	mov    $0x0,%edx
  404d62:	48 89 ce             	mov    %rcx,%rsi
  404d65:	48 89 c7             	mov    %rax,%rdi
  404d68:	e8 8d 09 00 00       	callq  4056fa <_ZN9__gnu_cxx13new_allocatorISsE8allocateEmPKv>
  404d6d:	eb 05                	jmp    404d74 <_ZNSt12_Vector_baseISsSaISsEE11_M_allocateEm+0x36>
  404d6f:	b8 00 00 00 00       	mov    $0x0,%eax
  404d74:	c9                   	leaveq 
  404d75:	c3                   	retq   

0000000000404d76 <_ZN9__gnu_cxx13new_allocatorISsE10deallocateEPSsm>:
  404d76:	55                   	push   %rbp
  404d77:	48 89 e5             	mov    %rsp,%rbp
  404d7a:	48 83 ec 20          	sub    $0x20,%rsp
  404d7e:	48 89 7d f8          	mov    %rdi,-0x8(%rbp)
  404d82:	48 89 75 f0          	mov    %rsi,-0x10(%rbp)
  404d86:	48 89 55 e8          	mov    %rdx,-0x18(%rbp)
  404d8a:	48 8b 45 f0          	mov    -0x10(%rbp),%rax
  404d8e:	48 89 c7             	mov    %rax,%rdi
  404d91:	e8 ca d6 ff ff       	callq  402460 <_ZdlPv@plt>
  404d96:	c9                   	leaveq 
  404d97:	c3                   	retq   

0000000000404d98 <_ZN9__gnu_cxx17__normal_iteratorIPSsSt6vectorISsSaISsEEEC1ERKS1_>:
  404d98:	55                   	push   %rbp
  404d99:	48 89 e5             	mov    %rsp,%rbp
  404d9c:	48 89 7d f8          	mov    %rdi,-0x8(%rbp)
  404da0:	48 89 75 f0          	mov    %rsi,-0x10(%rbp)
  404da4:	48 8b 45 f0          	mov    -0x10(%rbp),%rax
  404da8:	48 8b 10             	mov    (%rax),%rdx
  404dab:	48 8b 45 f8          	mov    -0x8(%rbp),%rax
  404daf:	48 89 10             	mov    %rdx,(%rax)
  404db2:	5d                   	pop    %rbp
  404db3:	c3                   	retq   

0000000000404db4 <_ZSt12__miter_baseIN9__gnu_cxx17__normal_iteratorIPKSsSt6vectorISsSaISsEEEEENSt11_Miter_baseIT_E13iterator_typeES9_>:
  404db4:	55                   	push   %rbp
  404db5:	48 89 e5             	mov    %rsp,%rbp
  404db8:	48 83 ec 10          	sub    $0x10,%rsp
  404dbc:	48 89 7d f0          	mov    %rdi,-0x10(%rbp)
  404dc0:	48 8b 45 f0          	mov    -0x10(%rbp),%rax
  404dc4:	48 89 c7             	mov    %rax,%rdi
  404dc7:	e8 70 09 00 00       	callq  40573c <_ZNSt10_Iter_baseIN9__gnu_cxx17__normal_iteratorIPKSsSt6vectorISsSaISsEEEELb0EE7_S_baseES7_>
  404dcc:	c9                   	leaveq 
  404dcd:	c3                   	retq   

0000000000404dce <_ZSt14__copy_move_a2ILb0EN9__gnu_cxx17__normal_iteratorIPKSsSt6vectorISsSaISsEEEENS1_IPSsS6_EEET1_T0_SB_SA_>:
  404dce:	55                   	push   %rbp
  404dcf:	48 89 e5             	mov    %rsp,%rbp
  404dd2:	41 54                	push   %r12
  404dd4:	53                   	push   %rbx
  404dd5:	48 83 ec 40          	sub    $0x40,%rsp
  404dd9:	48 89 7d d0          	mov    %rdi,-0x30(%rbp)
  404ddd:	48 89 75 c0          	mov    %rsi,-0x40(%rbp)
  404de1:	48 89 55 b0          	mov    %rdx,-0x50(%rbp)
  404de5:	48 8b 45 b0          	mov    -0x50(%rbp),%rax
  404de9:	48 89 c7             	mov    %rax,%rdi
  404dec:	e8 73 09 00 00       	callq  405764 <_ZSt12__niter_baseIN9__gnu_cxx17__normal_iteratorIPSsSt6vectorISsSaISsEEEEENSt11_Niter_baseIT_E13iterator_typeES8_>
  404df1:	49 89 c4             	mov    %rax,%r12
  404df4:	48 8b 45 c0          	mov    -0x40(%rbp),%rax
  404df8:	48 89 c7             	mov    %rax,%rdi
  404dfb:	e8 4a 09 00 00       	callq  40574a <_ZSt12__niter_baseIN9__gnu_cxx17__normal_iteratorIPKSsSt6vectorISsSaISsEEEEENSt11_Niter_baseIT_E13iterator_typeES9_>
  404e00:	48 89 c3             	mov    %rax,%rbx
  404e03:	48 8b 45 d0          	mov    -0x30(%rbp),%rax
  404e07:	48 89 c7             	mov    %rax,%rdi
  404e0a:	e8 3b 09 00 00       	callq  40574a <_ZSt12__niter_baseIN9__gnu_cxx17__normal_iteratorIPKSsSt6vectorISsSaISsEEEEENSt11_Niter_baseIT_E13iterator_typeES9_>
  404e0f:	4c 89 e2             	mov    %r12,%rdx
  404e12:	48 89 de             	mov    %rbx,%rsi
  404e15:	48 89 c7             	mov    %rax,%rdi
  404e18:	e8 61 09 00 00       	callq  40577e <_ZSt13__copy_move_aILb0EPKSsPSsET1_T0_S4_S3_>
  404e1d:	48 89 45 e8          	mov    %rax,-0x18(%rbp)
  404e21:	48 8d 55 e8          	lea    -0x18(%rbp),%rdx
  404e25:	48 8d 45 e0          	lea    -0x20(%rbp),%rax
  404e29:	48 89 d6             	mov    %rdx,%rsi
  404e2c:	48 89 c7             	mov    %rax,%rdi
  404e2f:	e8 64 ff ff ff       	callq  404d98 <_ZN9__gnu_cxx17__normal_iteratorIPSsSt6vectorISsSaISsEEEC1ERKS1_>
  404e34:	48 8b 45 e0          	mov    -0x20(%rbp),%rax
  404e38:	48 83 c4 40          	add    $0x40,%rsp
  404e3c:	5b                   	pop    %rbx
  404e3d:	41 5c                	pop    %r12
  404e3f:	5d                   	pop    %rbp
  404e40:	c3                   	retq   

0000000000404e41 <_ZSt8_DestroyIN9__gnu_cxx17__normal_iteratorIPSsSt6vectorISsSaISsEEEEEvT_S7_>:
  404e41:	55                   	push   %rbp
  404e42:	48 89 e5             	mov    %rsp,%rbp
  404e45:	48 83 ec 20          	sub    $0x20,%rsp
  404e49:	48 89 7d f0          	mov    %rdi,-0x10(%rbp)
  404e4d:	48 89 75 e0          	mov    %rsi,-0x20(%rbp)
  404e51:	48 8b 55 e0          	mov    -0x20(%rbp),%rdx
  404e55:	48 8b 45 f0          	mov    -0x10(%rbp),%rax
  404e59:	48 89 d6             	mov    %rdx,%rsi
  404e5c:	48 89 c7             	mov    %rax,%rdi
  404e5f:	e8 4b 09 00 00       	callq  4057af <_ZNSt12_Destroy_auxILb0EE9__destroyIN9__gnu_cxx17__normal_iteratorIPSsSt6vectorISsSaISsEEEEEEvT_S9_>
  404e64:	c9                   	leaveq 
  404e65:	c3                   	retq   

0000000000404e66 <_ZSt12__miter_baseIPSsENSt11_Miter_baseIT_E13iterator_typeES2_>:
  404e66:	55                   	push   %rbp
  404e67:	48 89 e5             	mov    %rsp,%rbp
  404e6a:	48 83 ec 10          	sub    $0x10,%rsp
  404e6e:	48 89 7d f8          	mov    %rdi,-0x8(%rbp)
  404e72:	48 8b 45 f8          	mov    -0x8(%rbp),%rax
  404e76:	48 89 c7             	mov    %rax,%rdi
  404e79:	e8 84 09 00 00       	callq  405802 <_ZNSt10_Iter_baseIPSsLb0EE7_S_baseES0_>
  404e7e:	c9                   	leaveq 
  404e7f:	c3                   	retq   

0000000000404e80 <_ZSt14__copy_move_a2ILb0EPSsS0_ET1_T0_S2_S1_>:
  404e80:	55                   	push   %rbp
  404e81:	48 89 e5             	mov    %rsp,%rbp
  404e84:	41 54                	push   %r12
  404e86:	53                   	push   %rbx
  404e87:	48 83 ec 20          	sub    $0x20,%rsp
  404e8b:	48 89 7d e8          	mov    %rdi,-0x18(%rbp)
  404e8f:	48 89 75 e0          	mov    %rsi,-0x20(%rbp)
  404e93:	48 89 55 d8          	mov    %rdx,-0x28(%rbp)
  404e97:	48 8b 45 d8          	mov    -0x28(%rbp),%rax
  404e9b:	48 89 c7             	mov    %rax,%rdi
  404e9e:	e8 6d 09 00 00       	callq  405810 <_ZSt12__niter_baseIPSsENSt11_Niter_baseIT_E13iterator_typeES2_>
  404ea3:	49 89 c4             	mov    %rax,%r12
  404ea6:	48 8b 45 e0          	mov    -0x20(%rbp),%rax
  404eaa:	48 89 c7             	mov    %rax,%rdi
  404ead:	e8 5e 09 00 00       	callq  405810 <_ZSt12__niter_baseIPSsENSt11_Niter_baseIT_E13iterator_typeES2_>
  404eb2:	48 89 c3             	mov    %rax,%rbx
  404eb5:	48 8b 45 e8          	mov    -0x18(%rbp),%rax
  404eb9:	48 89 c7             	mov    %rax,%rdi
  404ebc:	e8 4f 09 00 00       	callq  405810 <_ZSt12__niter_baseIPSsENSt11_Niter_baseIT_E13iterator_typeES2_>
  404ec1:	4c 89 e2             	mov    %r12,%rdx
  404ec4:	48 89 de             	mov    %rbx,%rsi
  404ec7:	48 89 c7             	mov    %rax,%rdi
  404eca:	e8 5b 09 00 00       	callq  40582a <_ZSt13__copy_move_aILb0EPSsS0_ET1_T0_S2_S1_>
  404ecf:	48 83 c4 20          	add    $0x20,%rsp
  404ed3:	5b                   	pop    %rbx
  404ed4:	41 5c                	pop    %r12
  404ed6:	5d                   	pop    %rbp
  404ed7:	c3                   	retq   

0000000000404ed8 <_ZSt18uninitialized_copyIPSsS0_ET0_T_S2_S1_>:
  404ed8:	55                   	push   %rbp
  404ed9:	48 89 e5             	mov    %rsp,%rbp
  404edc:	48 83 ec 20          	sub    $0x20,%rsp
  404ee0:	48 89 7d f8          	mov    %rdi,-0x8(%rbp)
  404ee4:	48 89 75 f0          	mov    %rsi,-0x10(%rbp)
  404ee8:	48 89 55 e8          	mov    %rdx,-0x18(%rbp)
  404eec:	48 8b 55 e8          	mov    -0x18(%rbp),%rdx
  404ef0:	48 8b 4d f0          	mov    -0x10(%rbp),%rcx
  404ef4:	48 8b 45 f8          	mov    -0x8(%rbp),%rax
  404ef8:	48 89 ce             	mov    %rcx,%rsi
  404efb:	48 89 c7             	mov    %rax,%rdi
  404efe:	e8 58 09 00 00       	callq  40585b <_ZNSt20__uninitialized_copyILb0EE13__uninit_copyIPSsS2_EET0_T_S4_S3_>
  404f03:	c9                   	leaveq 
  404f04:	c3                   	retq   
  404f05:	90                   	nop

0000000000404f06 <_ZN9__gnu_cxx13new_allocatorISsE9constructEPSsRKSs>:
  404f06:	55                   	push   %rbp
  404f07:	48 89 e5             	mov    %rsp,%rbp
  404f0a:	41 55                	push   %r13
  404f0c:	41 54                	push   %r12
  404f0e:	53                   	push   %rbx
  404f0f:	48 83 ec 28          	sub    $0x28,%rsp
  404f13:	48 89 7d d8          	mov    %rdi,-0x28(%rbp)
  404f17:	48 89 75 d0          	mov    %rsi,-0x30(%rbp)
  404f1b:	48 89 55 c8          	mov    %rdx,-0x38(%rbp)
  404f1f:	4c 8b 65 d0          	mov    -0x30(%rbp),%r12
  404f23:	4c 89 e6             	mov    %r12,%rsi
  404f26:	bf 08 00 00 00       	mov    $0x8,%edi
  404f2b:	e8 a7 e5 ff ff       	callq  4034d7 <_ZnwmPv>
  404f30:	48 89 c3             	mov    %rax,%rbx
  404f33:	48 85 db             	test   %rbx,%rbx
  404f36:	74 11                	je     404f49 <_ZN9__gnu_cxx13new_allocatorISsE9constructEPSsRKSs+0x43>
  404f38:	48 8b 45 c8          	mov    -0x38(%rbp),%rax
  404f3c:	48 89 c6             	mov    %rax,%rsi
  404f3f:	48 89 df             	mov    %rbx,%rdi
  404f42:	e8 c9 d5 ff ff       	callq  402510 <_ZNSsC1ERKSs@plt>
  404f47:	eb 1b                	jmp    404f64 <_ZN9__gnu_cxx13new_allocatorISsE9constructEPSsRKSs+0x5e>
  404f49:	eb 19                	jmp    404f64 <_ZN9__gnu_cxx13new_allocatorISsE9constructEPSsRKSs+0x5e>
  404f4b:	49 89 c5             	mov    %rax,%r13
  404f4e:	4c 89 e6             	mov    %r12,%rsi
  404f51:	48 89 df             	mov    %rbx,%rdi
  404f54:	e8 90 e5 ff ff       	callq  4034e9 <_ZdlPvS_>
  404f59:	4c 89 e8             	mov    %r13,%rax
  404f5c:	48 89 c7             	mov    %rax,%rdi
  404f5f:	e8 6c d9 ff ff       	callq  4028d0 <_Unwind_Resume@plt>
  404f64:	48 83 c4 28          	add    $0x28,%rsp
  404f68:	5b                   	pop    %rbx
  404f69:	41 5c                	pop    %r12
  404f6b:	41 5d                	pop    %r13
  404f6d:	5d                   	pop    %rbp
  404f6e:	c3                   	retq   
  404f6f:	90                   	nop

0000000000404f70 <_ZNK9__gnu_cxx17__normal_iteratorIPSsSt6vectorISsSaISsEEE4baseEv>:
  404f70:	55                   	push   %rbp
  404f71:	48 89 e5             	mov    %rsp,%rbp
  404f74:	48 89 7d f8          	mov    %rdi,-0x8(%rbp)
  404f78:	48 8b 45 f8          	mov    -0x8(%rbp),%rax
  404f7c:	5d                   	pop    %rbp
  404f7d:	c3                   	retq   

0000000000404f7e <_ZSt13copy_backwardIPSsS0_ET0_T_S2_S1_>:
  404f7e:	55                   	push   %rbp
  404f7f:	48 89 e5             	mov    %rsp,%rbp
  404f82:	53                   	push   %rbx
  404f83:	48 83 ec 28          	sub    $0x28,%rsp
  404f87:	48 89 7d e8          	mov    %rdi,-0x18(%rbp)
  404f8b:	48 89 75 e0          	mov    %rsi,-0x20(%rbp)
  404f8f:	48 89 55 d8          	mov    %rdx,-0x28(%rbp)
  404f93:	48 8b 45 e0          	mov    -0x20(%rbp),%rax
  404f97:	48 89 c7             	mov    %rax,%rdi
  404f9a:	e8 c7 fe ff ff       	callq  404e66 <_ZSt12__miter_baseIPSsENSt11_Miter_baseIT_E13iterator_typeES2_>
  404f9f:	48 89 c3             	mov    %rax,%rbx
  404fa2:	48 8b 45 e8          	mov    -0x18(%rbp),%rax
  404fa6:	48 89 c7             	mov    %rax,%rdi
  404fa9:	e8 b8 fe ff ff       	callq  404e66 <_ZSt12__miter_baseIPSsENSt11_Miter_baseIT_E13iterator_typeES2_>
  404fae:	48 8b 55 d8          	mov    -0x28(%rbp),%rdx
  404fb2:	48 89 de             	mov    %rbx,%rsi
  404fb5:	48 89 c7             	mov    %rax,%rdi
  404fb8:	e8 2c 09 00 00       	callq  4058e9 <_ZSt23__copy_move_backward_a2ILb0EPSsS0_ET1_T0_S2_S1_>
  404fbd:	48 83 c4 28          	add    $0x28,%rsp
  404fc1:	5b                   	pop    %rbx
  404fc2:	5d                   	pop    %rbp
  404fc3:	c3                   	retq   

0000000000404fc4 <_ZNK9__gnu_cxx17__normal_iteratorIPSsSt6vectorISsSaISsEEEdeEv>:
  404fc4:	55                   	push   %rbp
  404fc5:	48 89 e5             	mov    %rsp,%rbp
  404fc8:	48 89 7d f8          	mov    %rdi,-0x8(%rbp)
  404fcc:	48 8b 45 f8          	mov    -0x8(%rbp),%rax
  404fd0:	48 8b 00             	mov    (%rax),%rax
  404fd3:	5d                   	pop    %rbp
  404fd4:	c3                   	retq   
  404fd5:	90                   	nop

0000000000404fd6 <_ZNKSt6vectorISsSaISsEE12_M_check_lenEmPKc>:
  404fd6:	55                   	push   %rbp
  404fd7:	48 89 e5             	mov    %rsp,%rbp
  404fda:	53                   	push   %rbx
  404fdb:	48 83 ec 38          	sub    $0x38,%rsp
  404fdf:	48 89 7d d8          	mov    %rdi,-0x28(%rbp)
  404fe3:	48 89 75 d0          	mov    %rsi,-0x30(%rbp)
  404fe7:	48 89 55 c8          	mov    %rdx,-0x38(%rbp)
  404feb:	48 8b 45 d8          	mov    -0x28(%rbp),%rax
  404fef:	48 89 c7             	mov    %rax,%rdi
  404ff2:	e8 4b 09 00 00       	callq  405942 <_ZNKSt6vectorISsSaISsEE8max_sizeEv>
  404ff7:	48 89 c3             	mov    %rax,%rbx
  404ffa:	48 8b 45 d8          	mov    -0x28(%rbp),%rax
  404ffe:	48 89 c7             	mov    %rax,%rdi
  405001:	e8 8a e8 ff ff       	callq  403890 <_ZNKSt6vectorISsSaISsEE4sizeEv>
  405006:	48 29 c3             	sub    %rax,%rbx
  405009:	48 89 da             	mov    %rbx,%rdx
  40500c:	48 8b 45 d0          	mov    -0x30(%rbp),%rax
  405010:	48 39 c2             	cmp    %rax,%rdx
  405013:	0f 92 c0             	setb   %al
  405016:	84 c0                	test   %al,%al
  405018:	74 0c                	je     405026 <_ZNKSt6vectorISsSaISsEE12_M_check_lenEmPKc+0x50>
  40501a:	48 8b 45 c8          	mov    -0x38(%rbp),%rax
  40501e:	48 89 c7             	mov    %rax,%rdi
  405021:	e8 4a d3 ff ff       	callq  402370 <_ZSt20__throw_length_errorPKc@plt>
  405026:	48 8b 45 d8          	mov    -0x28(%rbp),%rax
  40502a:	48 89 c7             	mov    %rax,%rdi
  40502d:	e8 5e e8 ff ff       	callq  403890 <_ZNKSt6vectorISsSaISsEE4sizeEv>
  405032:	48 89 c3             	mov    %rax,%rbx
  405035:	48 8b 45 d8          	mov    -0x28(%rbp),%rax
  405039:	48 89 c7             	mov    %rax,%rdi
  40503c:	e8 4f e8 ff ff       	callq  403890 <_ZNKSt6vectorISsSaISsEE4sizeEv>
  405041:	48 89 45 e0          	mov    %rax,-0x20(%rbp)
  405045:	48 8d 55 d0          	lea    -0x30(%rbp),%rdx
  405049:	48 8d 45 e0          	lea    -0x20(%rbp),%rax
  40504d:	48 89 d6             	mov    %rdx,%rsi
  405050:	48 89 c7             	mov    %rax,%rdi
  405053:	e8 48 02 00 00       	callq  4052a0 <_ZSt3maxImERKT_S2_S2_>
  405058:	48 8b 00             	mov    (%rax),%rax
  40505b:	48 01 d8             	add    %rbx,%rax
  40505e:	48 89 45 e8          	mov    %rax,-0x18(%rbp)
  405062:	48 8b 45 d8          	mov    -0x28(%rbp),%rax
  405066:	48 89 c7             	mov    %rax,%rdi
  405069:	e8 22 e8 ff ff       	callq  403890 <_ZNKSt6vectorISsSaISsEE4sizeEv>
  40506e:	48 3b 45 e8          	cmp    -0x18(%rbp),%rax
  405072:	77 12                	ja     405086 <_ZNKSt6vectorISsSaISsEE12_M_check_lenEmPKc+0xb0>
  405074:	48 8b 45 d8          	mov    -0x28(%rbp),%rax
  405078:	48 89 c7             	mov    %rax,%rdi
  40507b:	e8 c2 08 00 00       	callq  405942 <_ZNKSt6vectorISsSaISsEE8max_sizeEv>
  405080:	48 3b 45 e8          	cmp    -0x18(%rbp),%rax
  405084:	73 0e                	jae    405094 <_ZNKSt6vectorISsSaISsEE12_M_check_lenEmPKc+0xbe>
  405086:	48 8b 45 d8          	mov    -0x28(%rbp),%rax
  40508a:	48 89 c7             	mov    %rax,%rdi
  40508d:	e8 b0 08 00 00       	callq  405942 <_ZNKSt6vectorISsSaISsEE8max_sizeEv>
  405092:	eb 04                	jmp    405098 <_ZNKSt6vectorISsSaISsEE12_M_check_lenEmPKc+0xc2>
  405094:	48 8b 45 e8          	mov    -0x18(%rbp),%rax
  405098:	48 83 c4 38          	add    $0x38,%rsp
  40509c:	5b                   	pop    %rbx
  40509d:	5d                   	pop    %rbp
  40509e:	c3                   	retq   

000000000040509f <_ZN9__gnu_cxxmiIPSsSt6vectorISsSaISsEEEENS_17__normal_iteratorIT_T0_E15difference_typeERKS8_SB_>:
  40509f:	55                   	push   %rbp
  4050a0:	48 89 e5             	mov    %rsp,%rbp
  4050a3:	53                   	push   %rbx
  4050a4:	48 83 ec 18          	sub    $0x18,%rsp
  4050a8:	48 89 7d e8          	mov    %rdi,-0x18(%rbp)
  4050ac:	48 89 75 e0          	mov    %rsi,-0x20(%rbp)
  4050b0:	48 8b 45 e8          	mov    -0x18(%rbp),%rax
  4050b4:	48 89 c7             	mov    %rax,%rdi
  4050b7:	e8 b4 fe ff ff       	callq  404f70 <_ZNK9__gnu_cxx17__normal_iteratorIPSsSt6vectorISsSaISsEEE4baseEv>
  4050bc:	48 8b 00             	mov    (%rax),%rax
  4050bf:	48 89 c3             	mov    %rax,%rbx
  4050c2:	48 8b 45 e0          	mov    -0x20(%rbp),%rax
  4050c6:	48 89 c7             	mov    %rax,%rdi
  4050c9:	e8 a2 fe ff ff       	callq  404f70 <_ZNK9__gnu_cxx17__normal_iteratorIPSsSt6vectorISsSaISsEEE4baseEv>
  4050ce:	48 8b 00             	mov    (%rax),%rax
  4050d1:	48 29 c3             	sub    %rax,%rbx
  4050d4:	48 89 d8             	mov    %rbx,%rax
  4050d7:	48 c1 f8 03          	sar    $0x3,%rax
  4050db:	48 83 c4 18          	add    $0x18,%rsp
  4050df:	5b                   	pop    %rbx
  4050e0:	5d                   	pop    %rbp
  4050e1:	c3                   	retq   

00000000004050e2 <_ZSt34__uninitialized_move_if_noexcept_aIPSsS0_SaISsEET0_T_S3_S2_RT1_>:
  4050e2:	55                   	push   %rbp
  4050e3:	48 89 e5             	mov    %rsp,%rbp
  4050e6:	48 83 ec 20          	sub    $0x20,%rsp
  4050ea:	48 89 7d f8          	mov    %rdi,-0x8(%rbp)
  4050ee:	48 89 75 f0          	mov    %rsi,-0x10(%rbp)
  4050f2:	48 89 55 e8          	mov    %rdx,-0x18(%rbp)
  4050f6:	48 89 4d e0          	mov    %rcx,-0x20(%rbp)
  4050fa:	48 8b 4d e0          	mov    -0x20(%rbp),%rcx
  4050fe:	48 8b 55 e8          	mov    -0x18(%rbp),%rdx
  405102:	48 8b 75 f0          	mov    -0x10(%rbp),%rsi
  405106:	48 8b 45 f8          	mov    -0x8(%rbp),%rax
  40510a:	48 89 c7             	mov    %rax,%rdi
  40510d:	e8 fe f2 ff ff       	callq  404410 <_ZSt22__uninitialized_copy_aIPSsS0_SsET0_T_S2_S1_RSaIT1_E>
  405112:	c9                   	leaveq 
  405113:	c3                   	retq   

0000000000405114 <_ZN9__gnu_cxx14__alloc_traitsISaISsEE7destroyERS1_PSs>:
  405114:	55                   	push   %rbp
  405115:	48 89 e5             	mov    %rsp,%rbp
  405118:	48 83 ec 10          	sub    $0x10,%rsp
  40511c:	48 89 7d f8          	mov    %rdi,-0x8(%rbp)
  405120:	48 89 75 f0          	mov    %rsi,-0x10(%rbp)
  405124:	48 8b 55 f0          	mov    -0x10(%rbp),%rdx
  405128:	48 8b 45 f8          	mov    -0x8(%rbp),%rax
  40512c:	48 89 d6             	mov    %rdx,%rsi
  40512f:	48 89 c7             	mov    %rax,%rdi
  405132:	e8 2d 08 00 00       	callq  405964 <_ZN9__gnu_cxx13new_allocatorISsE7destroyEPSs>
  405137:	c9                   	leaveq 
  405138:	c3                   	retq   

0000000000405139 <_ZNSt12_Destroy_auxILb0EE9__destroyIPSsEEvT_S3_>:
  405139:	55                   	push   %rbp
  40513a:	48 89 e5             	mov    %rsp,%rbp
  40513d:	48 83 ec 10          	sub    $0x10,%rsp
  405141:	48 89 7d f8          	mov    %rdi,-0x8(%rbp)
  405145:	48 89 75 f0          	mov    %rsi,-0x10(%rbp)
  405149:	eb 19                	jmp    405164 <_ZNSt12_Destroy_auxILb0EE9__destroyIPSsEEvT_S3_+0x2b>
  40514b:	48 8b 45 f8          	mov    -0x8(%rbp),%rax
  40514f:	48 89 c7             	mov    %rax,%rdi
  405152:	e8 2b 08 00 00       	callq  405982 <_ZSt11__addressofISsEPT_RS0_>
  405157:	48 89 c7             	mov    %rax,%rdi
  40515a:	e8 31 08 00 00       	callq  405990 <_ZSt8_DestroyISsEvPT_>
  40515f:	48 83 45 f8 08       	addq   $0x8,-0x8(%rbp)
  405164:	48 8b 45 f8          	mov    -0x8(%rbp),%rax
  405168:	48 3b 45 f0          	cmp    -0x10(%rbp),%rax
  40516c:	75 dd                	jne    40514b <_ZNSt12_Destroy_auxILb0EE9__destroyIPSsEEvT_S3_+0x12>
  40516e:	c9                   	leaveq 
  40516f:	c3                   	retq   

0000000000405170 <_ZNSaISsEC1ERKS_>:
  405170:	55                   	push   %rbp
  405171:	48 89 e5             	mov    %rsp,%rbp
  405174:	48 83 ec 10          	sub    $0x10,%rsp
  405178:	48 89 7d f8          	mov    %rdi,-0x8(%rbp)
  40517c:	48 89 75 f0          	mov    %rsi,-0x10(%rbp)
  405180:	48 8b 55 f0          	mov    -0x10(%rbp),%rdx
  405184:	48 8b 45 f8          	mov    -0x8(%rbp),%rax
  405188:	48 89 d6             	mov    %rdx,%rsi
  40518b:	48 89 c7             	mov    %rax,%rdi
  40518e:	e8 17 08 00 00       	callq  4059aa <_ZN9__gnu_cxx13new_allocatorISsEC1ERKS1_>
  405193:	c9                   	leaveq 
  405194:	c3                   	retq   

0000000000405195 <_ZNSt20__uninitialized_copyILb0EE13__uninit_copyIN9__gnu_cxx17__normal_iteratorIPKSsSt6vectorISsSaISsEEEEPSsEET0_T_SC_SB_>:
  405195:	55                   	push   %rbp
  405196:	48 89 e5             	mov    %rsp,%rbp
  405199:	53                   	push   %rbx
  40519a:	48 83 ec 38          	sub    $0x38,%rsp
  40519e:	48 89 7d d0          	mov    %rdi,-0x30(%rbp)
  4051a2:	48 89 75 c0          	mov    %rsi,-0x40(%rbp)
  4051a6:	48 89 55 c8          	mov    %rdx,-0x38(%rbp)
  4051aa:	48 8b 45 c8          	mov    -0x38(%rbp),%rax
  4051ae:	48 89 45 e8          	mov    %rax,-0x18(%rbp)
  4051b2:	eb 37                	jmp    4051eb <_ZNSt20__uninitialized_copyILb0EE13__uninit_copyIN9__gnu_cxx17__normal_iteratorIPKSsSt6vectorISsSaISsEEEEPSsEET0_T_SC_SB_+0x56>
  4051b4:	48 8d 45 d0          	lea    -0x30(%rbp),%rax
  4051b8:	48 89 c7             	mov    %rax,%rdi
  4051bb:	e8 54 08 00 00       	callq  405a14 <_ZNK9__gnu_cxx17__normal_iteratorIPKSsSt6vectorISsSaISsEEEdeEv>
  4051c0:	48 89 c3             	mov    %rax,%rbx
  4051c3:	48 8b 45 e8          	mov    -0x18(%rbp),%rax
  4051c7:	48 89 c7             	mov    %rax,%rdi
  4051ca:	e8 b3 07 00 00       	callq  405982 <_ZSt11__addressofISsEPT_RS0_>
  4051cf:	48 89 de             	mov    %rbx,%rsi
  4051d2:	48 89 c7             	mov    %rax,%rdi
  4051d5:	e8 4b 08 00 00       	callq  405a25 <_ZSt10_ConstructISsSsEvPT_RKT0_>
  4051da:	48 8d 45 d0          	lea    -0x30(%rbp),%rax
  4051de:	48 89 c7             	mov    %rax,%rdi
  4051e1:	e8 0e 08 00 00       	callq  4059f4 <_ZN9__gnu_cxx17__normal_iteratorIPKSsSt6vectorISsSaISsEEEppEv>
  4051e6:	48 83 45 e8 08       	addq   $0x8,-0x18(%rbp)
  4051eb:	48 8d 55 c0          	lea    -0x40(%rbp),%rdx
  4051ef:	48 8d 45 d0          	lea    -0x30(%rbp),%rax
  4051f3:	48 89 d6             	mov    %rdx,%rsi
  4051f6:	48 89 c7             	mov    %rax,%rdi
  4051f9:	e8 ba 07 00 00       	callq  4059b8 <_ZN9__gnu_cxxneIPKSsSt6vectorISsSaISsEEEEbRKNS_17__normal_iteratorIT_T0_EESB_>
  4051fe:	84 c0                	test   %al,%al
  405200:	75 b2                	jne    4051b4 <_ZNSt20__uninitialized_copyILb0EE13__uninit_copyIN9__gnu_cxx17__normal_iteratorIPKSsSt6vectorISsSaISsEEEEPSsEET0_T_SC_SB_+0x1f>
  405202:	48 8b 45 e8          	mov    -0x18(%rbp),%rax
  405206:	eb 33                	jmp    40523b <_ZNSt20__uninitialized_copyILb0EE13__uninit_copyIN9__gnu_cxx17__normal_iteratorIPKSsSt6vectorISsSaISsEEEEPSsEET0_T_SC_SB_+0xa6>
  405208:	48 89 c3             	mov    %rax,%rbx
  40520b:	e8 00 d6 ff ff       	callq  402810 <__cxa_end_catch@plt>
  405210:	48 89 d8             	mov    %rbx,%rax
  405213:	48 89 c7             	mov    %rax,%rdi
  405216:	e8 b5 d6 ff ff       	callq  4028d0 <_Unwind_Resume@plt>
  40521b:	48 89 c7             	mov    %rax,%rdi
  40521e:	e8 2d d6 ff ff       	callq  402850 <__cxa_begin_catch@plt>
  405223:	48 8b 55 e8          	mov    -0x18(%rbp),%rdx
  405227:	48 8b 45 c8          	mov    -0x38(%rbp),%rax
  40522b:	48 89 d6             	mov    %rdx,%rsi
  40522e:	48 89 c7             	mov    %rax,%rdi
  405231:	e8 d1 f5 ff ff       	callq  404807 <_ZSt8_DestroyIPSsEvT_S1_>
  405236:	e8 55 d2 ff ff       	callq  402490 <__cxa_rethrow@plt>
  40523b:	48 83 c4 38          	add    $0x38,%rsp
  40523f:	5b                   	pop    %rbx
  405240:	5d                   	pop    %rbp
  405241:	c3                   	retq   

0000000000405242 <_ZNSaIPSt6vectorISsSaISsEEEC1Ev>:
  405242:	55                   	push   %rbp
  405243:	48 89 e5             	mov    %rsp,%rbp
  405246:	48 83 ec 10          	sub    $0x10,%rsp
  40524a:	48 89 7d f8          	mov    %rdi,-0x8(%rbp)
  40524e:	48 8b 45 f8          	mov    -0x8(%rbp),%rax
  405252:	48 89 c7             	mov    %rax,%rdi
  405255:	e8 30 08 00 00       	callq  405a8a <_ZN9__gnu_cxx13new_allocatorIPSt6vectorISsSaISsEEEC1Ev>
  40525a:	c9                   	leaveq 
  40525b:	c3                   	retq   

000000000040525c <_ZNSt15_Deque_iteratorIPSt6vectorISsSaISsEERS3_PS3_EC1Ev>:
  40525c:	55                   	push   %rbp
  40525d:	48 89 e5             	mov    %rsp,%rbp
  405260:	48 89 7d f8          	mov    %rdi,-0x8(%rbp)
  405264:	48 8b 45 f8          	mov    -0x8(%rbp),%rax
  405268:	48 c7 00 00 00 00 00 	movq   $0x0,(%rax)
  40526f:	48 8b 45 f8          	mov    -0x8(%rbp),%rax
  405273:	48 c7 40 08 00 00 00 	movq   $0x0,0x8(%rax)
  40527a:	00 
  40527b:	48 8b 45 f8          	mov    -0x8(%rbp),%rax
  40527f:	48 c7 40 10 00 00 00 	movq   $0x0,0x10(%rax)
  405286:	00 
  405287:	48 8b 45 f8          	mov    -0x8(%rbp),%rax
  40528b:	48 c7 40 18 00 00 00 	movq   $0x0,0x18(%rax)
  405292:	00 
  405293:	5d                   	pop    %rbp
  405294:	c3                   	retq   
  405295:	90                   	nop

0000000000405296 <_ZN9__gnu_cxx13new_allocatorIPSt6vectorISsSaISsEEED1Ev>:
  405296:	55                   	push   %rbp
  405297:	48 89 e5             	mov    %rsp,%rbp
  40529a:	48 89 7d f8          	mov    %rdi,-0x8(%rbp)
  40529e:	5d                   	pop    %rbp
  40529f:	c3                   	retq   

00000000004052a0 <_ZSt3maxImERKT_S2_S2_>:
  4052a0:	55                   	push   %rbp
  4052a1:	48 89 e5             	mov    %rsp,%rbp
  4052a4:	48 89 7d f8          	mov    %rdi,-0x8(%rbp)
  4052a8:	48 89 75 f0          	mov    %rsi,-0x10(%rbp)
  4052ac:	48 8b 45 f8          	mov    -0x8(%rbp),%rax
  4052b0:	48 8b 10             	mov    (%rax),%rdx
  4052b3:	48 8b 45 f0          	mov    -0x10(%rbp),%rax
  4052b7:	48 8b 00             	mov    (%rax),%rax
  4052ba:	48 39 c2             	cmp    %rax,%rdx
  4052bd:	73 06                	jae    4052c5 <_ZSt3maxImERKT_S2_S2_+0x25>
  4052bf:	48 8b 45 f0          	mov    -0x10(%rbp),%rax
  4052c3:	eb 04                	jmp    4052c9 <_ZSt3maxImERKT_S2_S2_+0x29>
  4052c5:	48 8b 45 f8          	mov    -0x8(%rbp),%rax
  4052c9:	5d                   	pop    %rbp
  4052ca:	c3                   	retq   
  4052cb:	90                   	nop

00000000004052cc <_ZNSt11_Deque_baseIPSt6vectorISsSaISsEESaIS3_EE15_M_allocate_mapEm>:
  4052cc:	55                   	push   %rbp
  4052cd:	48 89 e5             	mov    %rsp,%rbp
  4052d0:	53                   	push   %rbx
  4052d1:	48 83 ec 28          	sub    $0x28,%rsp
  4052d5:	48 89 7d d8          	mov    %rdi,-0x28(%rbp)
  4052d9:	48 89 75 d0          	mov    %rsi,-0x30(%rbp)
  4052dd:	48 8d 45 ef          	lea    -0x11(%rbp),%rax
  4052e1:	48 8b 55 d8          	mov    -0x28(%rbp),%rdx
  4052e5:	48 89 d6             	mov    %rdx,%rsi
  4052e8:	48 89 c7             	mov    %rax,%rdi
  4052eb:	e8 d0 00 00 00       	callq  4053c0 <_ZNKSt11_Deque_baseIPSt6vectorISsSaISsEESaIS3_EE20_M_get_map_allocatorEv>
  4052f0:	48 8b 4d d0          	mov    -0x30(%rbp),%rcx
  4052f4:	48 8d 45 ef          	lea    -0x11(%rbp),%rax
  4052f8:	ba 00 00 00 00       	mov    $0x0,%edx
  4052fd:	48 89 ce             	mov    %rcx,%rsi
  405300:	48 89 c7             	mov    %rax,%rdi
  405303:	e8 8c 07 00 00       	callq  405a94 <_ZN9__gnu_cxx13new_allocatorIPPSt6vectorISsSaISsEEE8allocateEmPKv>
  405308:	48 89 c3             	mov    %rax,%rbx
  40530b:	48 8d 45 ef          	lea    -0x11(%rbp),%rax
  40530f:	48 89 c7             	mov    %rax,%rdi
  405312:	e8 dd 00 00 00       	callq  4053f4 <_ZNSaIPPSt6vectorISsSaISsEEED1Ev>
  405317:	48 89 d8             	mov    %rbx,%rax
  40531a:	eb 1a                	jmp    405336 <_ZNSt11_Deque_baseIPSt6vectorISsSaISsEESaIS3_EE15_M_allocate_mapEm+0x6a>
  40531c:	48 89 c3             	mov    %rax,%rbx
  40531f:	48 8d 45 ef          	lea    -0x11(%rbp),%rax
  405323:	48 89 c7             	mov    %rax,%rdi
  405326:	e8 c9 00 00 00       	callq  4053f4 <_ZNSaIPPSt6vectorISsSaISsEEED1Ev>
  40532b:	48 89 d8             	mov    %rbx,%rax
  40532e:	48 89 c7             	mov    %rax,%rdi
  405331:	e8 9a d5 ff ff       	callq  4028d0 <_Unwind_Resume@plt>
  405336:	48 83 c4 28          	add    $0x28,%rsp
  40533a:	5b                   	pop    %rbx
  40533b:	5d                   	pop    %rbp
  40533c:	c3                   	retq   
  40533d:	90                   	nop

000000000040533e <_ZNSt11_Deque_baseIPSt6vectorISsSaISsEESaIS3_EE15_M_create_nodesEPPS3_S7_>:
  40533e:	55                   	push   %rbp
  40533f:	48 89 e5             	mov    %rsp,%rbp
  405342:	53                   	push   %rbx
  405343:	48 83 ec 38          	sub    $0x38,%rsp
  405347:	48 89 7d d8          	mov    %rdi,-0x28(%rbp)
  40534b:	48 89 75 d0          	mov    %rsi,-0x30(%rbp)
  40534f:	48 89 55 c8          	mov    %rdx,-0x38(%rbp)
  405353:	48 8b 45 d0          	mov    -0x30(%rbp),%rax
  405357:	48 89 45 e8          	mov    %rax,-0x18(%rbp)
  40535b:	eb 18                	jmp    405375 <_ZNSt11_Deque_baseIPSt6vectorISsSaISsEESaIS3_EE15_M_create_nodesEPPS3_S7_+0x37>
  40535d:	48 8b 45 d8          	mov    -0x28(%rbp),%rax
  405361:	48 89 c7             	mov    %rax,%rdi
  405364:	e8 23 f9 ff ff       	callq  404c8c <_ZNSt11_Deque_baseIPSt6vectorISsSaISsEESaIS3_EE16_M_allocate_nodeEv>
  405369:	48 8b 55 e8          	mov    -0x18(%rbp),%rdx
  40536d:	48 89 02             	mov    %rax,(%rdx)
  405370:	48 83 45 e8 08       	addq   $0x8,-0x18(%rbp)
  405375:	48 8b 45 e8          	mov    -0x18(%rbp),%rax
  405379:	48 3b 45 c8          	cmp    -0x38(%rbp),%rax
  40537d:	72 de                	jb     40535d <_ZNSt11_Deque_baseIPSt6vectorISsSaISsEESaIS3_EE15_M_create_nodesEPPS3_S7_+0x1f>
  40537f:	eb 37                	jmp    4053b8 <_ZNSt11_Deque_baseIPSt6vectorISsSaISsEESaIS3_EE15_M_create_nodesEPPS3_S7_+0x7a>
  405381:	48 89 c3             	mov    %rax,%rbx
  405384:	e8 87 d4 ff ff       	callq  402810 <__cxa_end_catch@plt>
  405389:	48 89 d8             	mov    %rbx,%rax
  40538c:	48 89 c7             	mov    %rax,%rdi
  40538f:	e8 3c d5 ff ff       	callq  4028d0 <_Unwind_Resume@plt>
  405394:	48 89 c7             	mov    %rax,%rdi
  405397:	e8 b4 d4 ff ff       	callq  402850 <__cxa_begin_catch@plt>
  40539c:	48 8b 55 e8          	mov    -0x18(%rbp),%rdx
  4053a0:	48 8b 4d d0          	mov    -0x30(%rbp),%rcx
  4053a4:	48 8b 45 d8          	mov    -0x28(%rbp),%rax
  4053a8:	48 89 ce             	mov    %rcx,%rsi
  4053ab:	48 89 c7             	mov    %rax,%rdi
  4053ae:	e8 75 f7 ff ff       	callq  404b28 <_ZNSt11_Deque_baseIPSt6vectorISsSaISsEESaIS3_EE16_M_destroy_nodesEPPS3_S7_>
  4053b3:	e8 d8 d0 ff ff       	callq  402490 <__cxa_rethrow@plt>
  4053b8:	48 83 c4 38          	add    $0x38,%rsp
  4053bc:	5b                   	pop    %rbx
  4053bd:	5d                   	pop    %rbp
  4053be:	c3                   	retq   
  4053bf:	90                   	nop

00000000004053c0 <_ZNKSt11_Deque_baseIPSt6vectorISsSaISsEESaIS3_EE20_M_get_map_allocatorEv>:
  4053c0:	55                   	push   %rbp
  4053c1:	48 89 e5             	mov    %rsp,%rbp
  4053c4:	48 83 ec 10          	sub    $0x10,%rsp
  4053c8:	48 89 7d f8          	mov    %rdi,-0x8(%rbp)
  4053cc:	48 89 75 f0          	mov    %rsi,-0x10(%rbp)
  4053d0:	48 8b 45 f0          	mov    -0x10(%rbp),%rax
  4053d4:	48 89 c7             	mov    %rax,%rdi
  4053d7:	e8 fa 06 00 00       	callq  405ad6 <_ZNKSt11_Deque_baseIPSt6vectorISsSaISsEESaIS3_EE19_M_get_Tp_allocatorEv>
  4053dc:	48 89 c2             	mov    %rax,%rdx
  4053df:	48 8b 45 f8          	mov    -0x8(%rbp),%rax
  4053e3:	48 89 d6             	mov    %rdx,%rsi
  4053e6:	48 89 c7             	mov    %rax,%rdi
  4053e9:	e8 f6 06 00 00       	callq  405ae4 <_ZNSaIPPSt6vectorISsSaISsEEEC1IS2_EERKSaIT_E>
  4053ee:	48 8b 45 f8          	mov    -0x8(%rbp),%rax
  4053f2:	c9                   	leaveq 
  4053f3:	c3                   	retq   

00000000004053f4 <_ZNSaIPPSt6vectorISsSaISsEEED1Ev>:
  4053f4:	55                   	push   %rbp
  4053f5:	48 89 e5             	mov    %rsp,%rbp
  4053f8:	48 83 ec 10          	sub    $0x10,%rsp
  4053fc:	48 89 7d f8          	mov    %rdi,-0x8(%rbp)
  405400:	48 8b 45 f8          	mov    -0x8(%rbp),%rax
  405404:	48 89 c7             	mov    %rax,%rdi
  405407:	e8 f6 06 00 00       	callq  405b02 <_ZN9__gnu_cxx13new_allocatorIPPSt6vectorISsSaISsEEED1Ev>
  40540c:	c9                   	leaveq 
  40540d:	c3                   	retq   

000000000040540e <_ZN9__gnu_cxx13new_allocatorIPPSt6vectorISsSaISsEEE10deallocateEPS5_m>:
  40540e:	55                   	push   %rbp
  40540f:	48 89 e5             	mov    %rsp,%rbp
  405412:	48 83 ec 20          	sub    $0x20,%rsp
  405416:	48 89 7d f8          	mov    %rdi,-0x8(%rbp)
  40541a:	48 89 75 f0          	mov    %rsi,-0x10(%rbp)
  40541e:	48 89 55 e8          	mov    %rdx,-0x18(%rbp)
  405422:	48 8b 45 f0          	mov    -0x10(%rbp),%rax
  405426:	48 89 c7             	mov    %rax,%rdi
  405429:	e8 32 d0 ff ff       	callq  402460 <_ZdlPv@plt>
  40542e:	c9                   	leaveq 
  40542f:	c3                   	retq   

0000000000405430 <_ZSt20uninitialized_fill_nIPSsmSsEvT_T0_RKT1_>:
  405430:	55                   	push   %rbp
  405431:	48 89 e5             	mov    %rsp,%rbp
  405434:	48 83 ec 20          	sub    $0x20,%rsp
  405438:	48 89 7d f8          	mov    %rdi,-0x8(%rbp)
  40543c:	48 89 75 f0          	mov    %rsi,-0x10(%rbp)
  405440:	48 89 55 e8          	mov    %rdx,-0x18(%rbp)
  405444:	48 8b 55 e8          	mov    -0x18(%rbp),%rdx
  405448:	48 8b 4d f0          	mov    -0x10(%rbp),%rcx
  40544c:	48 8b 45 f8          	mov    -0x8(%rbp),%rax
  405450:	48 89 ce             	mov    %rcx,%rsi
  405453:	48 89 c7             	mov    %rax,%rdi
  405456:	e8 b1 06 00 00       	callq  405b0c <_ZNSt22__uninitialized_fill_nILb0EE15__uninit_fill_nIPSsmSsEEvT_T0_RKT1_>
  40545b:	c9                   	leaveq 
  40545c:	c3                   	retq   
  40545d:	90                   	nop

000000000040545e <_ZNSt5dequeIPSt6vectorISsSaISsEESaIS3_EE17_M_reallocate_mapEmb>:
  40545e:	55                   	push   %rbp
  40545f:	48 89 e5             	mov    %rsp,%rbp
  405462:	53                   	push   %rbx
  405463:	48 83 ec 58          	sub    $0x58,%rsp
  405467:	48 89 7d b8          	mov    %rdi,-0x48(%rbp)
  40546b:	48 89 75 b0          	mov    %rsi,-0x50(%rbp)
  40546f:	89 d0                	mov    %edx,%eax
  405471:	88 45 ac             	mov    %al,-0x54(%rbp)
  405474:	48 8b 45 b8          	mov    -0x48(%rbp),%rax
  405478:	48 8b 40 48          	mov    0x48(%rax),%rax
  40547c:	48 89 c2             	mov    %rax,%rdx
  40547f:	48 8b 45 b8          	mov    -0x48(%rbp),%rax
  405483:	48 8b 40 28          	mov    0x28(%rax),%rax
  405487:	48 29 c2             	sub    %rax,%rdx
  40548a:	48 89 d0             	mov    %rdx,%rax
  40548d:	48 c1 f8 03          	sar    $0x3,%rax
  405491:	48 83 c0 01          	add    $0x1,%rax
  405495:	48 89 45 d0          	mov    %rax,-0x30(%rbp)
  405499:	48 8b 55 b0          	mov    -0x50(%rbp),%rdx
  40549d:	48 8b 45 d0          	mov    -0x30(%rbp),%rax
  4054a1:	48 01 d0             	add    %rdx,%rax
  4054a4:	48 89 45 d8          	mov    %rax,-0x28(%rbp)
  4054a8:	48 8b 45 b8          	mov    -0x48(%rbp),%rax
  4054ac:	48 8b 40 08          	mov    0x8(%rax),%rax
  4054b0:	48 8b 55 d8          	mov    -0x28(%rbp),%rdx
  4054b4:	48 01 d2             	add    %rdx,%rdx
  4054b7:	48 39 d0             	cmp    %rdx,%rax
  4054ba:	0f 86 aa 00 00 00    	jbe    40556a <_ZNSt5dequeIPSt6vectorISsSaISsEESaIS3_EE17_M_reallocate_mapEmb+0x10c>
  4054c0:	48 8b 45 b8          	mov    -0x48(%rbp),%rax
  4054c4:	48 8b 10             	mov    (%rax),%rdx
  4054c7:	48 8b 45 b8          	mov    -0x48(%rbp),%rax
  4054cb:	48 8b 40 08          	mov    0x8(%rax),%rax
  4054cf:	48 2b 45 d8          	sub    -0x28(%rbp),%rax
  4054d3:	48 d1 e8             	shr    %rax
  4054d6:	48 8d 0c c5 00 00 00 	lea    0x0(,%rax,8),%rcx
  4054dd:	00 
  4054de:	80 7d ac 00          	cmpb   $0x0,-0x54(%rbp)
  4054e2:	74 0a                	je     4054ee <_ZNSt5dequeIPSt6vectorISsSaISsEESaIS3_EE17_M_reallocate_mapEmb+0x90>
  4054e4:	48 8b 45 b0          	mov    -0x50(%rbp),%rax
  4054e8:	48 c1 e0 03          	shl    $0x3,%rax
  4054ec:	eb 05                	jmp    4054f3 <_ZNSt5dequeIPSt6vectorISsSaISsEESaIS3_EE17_M_reallocate_mapEmb+0x95>
  4054ee:	b8 00 00 00 00       	mov    $0x0,%eax
  4054f3:	48 01 c8             	add    %rcx,%rax
  4054f6:	48 01 d0             	add    %rdx,%rax
  4054f9:	48 89 45 c8          	mov    %rax,-0x38(%rbp)
  4054fd:	48 8b 45 b8          	mov    -0x48(%rbp),%rax
  405501:	48 8b 40 28          	mov    0x28(%rax),%rax
  405505:	48 3b 45 c8          	cmp    -0x38(%rbp),%rax
  405509:	76 28                	jbe    405533 <_ZNSt5dequeIPSt6vectorISsSaISsEESaIS3_EE17_M_reallocate_mapEmb+0xd5>
  40550b:	48 8b 45 b8          	mov    -0x48(%rbp),%rax
  40550f:	48 8b 40 48          	mov    0x48(%rax),%rax
  405513:	48 8d 48 08          	lea    0x8(%rax),%rcx
  405517:	48 8b 45 b8          	mov    -0x48(%rbp),%rax
  40551b:	48 8b 40 28          	mov    0x28(%rax),%rax
  40551f:	48 8b 55 c8          	mov    -0x38(%rbp),%rdx
  405523:	48 89 ce             	mov    %rcx,%rsi
  405526:	48 89 c7             	mov    %rax,%rdi
  405529:	e8 65 06 00 00       	callq  405b93 <_ZSt4copyIPPPSt6vectorISsSaISsEES5_ET0_T_S7_S6_>
  40552e:	e9 0f 01 00 00       	jmpq   405642 <_ZNSt5dequeIPSt6vectorISsSaISsEESaIS3_EE17_M_reallocate_mapEmb+0x1e4>
  405533:	48 8b 45 d0          	mov    -0x30(%rbp),%rax
  405537:	48 8d 14 c5 00 00 00 	lea    0x0(,%rax,8),%rdx
  40553e:	00 
  40553f:	48 8b 45 c8          	mov    -0x38(%rbp),%rax
  405543:	48 01 c2             	add    %rax,%rdx
  405546:	48 8b 45 b8          	mov    -0x48(%rbp),%rax
  40554a:	48 8b 40 48          	mov    0x48(%rax),%rax
  40554e:	48 8d 48 08          	lea    0x8(%rax),%rcx
  405552:	48 8b 45 b8          	mov    -0x48(%rbp),%rax
  405556:	48 8b 40 28          	mov    0x28(%rax),%rax
  40555a:	48 89 ce             	mov    %rcx,%rsi
  40555d:	48 89 c7             	mov    %rax,%rdi
  405560:	e8 74 06 00 00       	callq  405bd9 <_ZSt13copy_backwardIPPPSt6vectorISsSaISsEES5_ET0_T_S7_S6_>
  405565:	e9 d8 00 00 00       	jmpq   405642 <_ZNSt5dequeIPSt6vectorISsSaISsEESaIS3_EE17_M_reallocate_mapEmb+0x1e4>
  40556a:	48 8b 45 b8          	mov    -0x48(%rbp),%rax
  40556e:	48 8b 58 08          	mov    0x8(%rax),%rbx
  405572:	48 8b 45 b8          	mov    -0x48(%rbp),%rax
  405576:	48 8d 50 08          	lea    0x8(%rax),%rdx
  40557a:	48 8d 45 b0          	lea    -0x50(%rbp),%rax
  40557e:	48 89 c6             	mov    %rax,%rsi
  405581:	48 89 d7             	mov    %rdx,%rdi
  405584:	e8 17 fd ff ff       	callq  4052a0 <_ZSt3maxImERKT_S2_S2_>
  405589:	48 8b 00             	mov    (%rax),%rax
  40558c:	48 01 d8             	add    %rbx,%rax
  40558f:	48 83 c0 02          	add    $0x2,%rax
  405593:	48 89 45 e0          	mov    %rax,-0x20(%rbp)
  405597:	48 8b 45 b8          	mov    -0x48(%rbp),%rax
  40559b:	48 8b 55 e0          	mov    -0x20(%rbp),%rdx
  40559f:	48 89 d6             	mov    %rdx,%rsi
  4055a2:	48 89 c7             	mov    %rax,%rdi
  4055a5:	e8 22 fd ff ff       	callq  4052cc <_ZNSt11_Deque_baseIPSt6vectorISsSaISsEESaIS3_EE15_M_allocate_mapEm>
  4055aa:	48 89 45 e8          	mov    %rax,-0x18(%rbp)
  4055ae:	48 8b 45 d8          	mov    -0x28(%rbp),%rax
  4055b2:	48 8b 55 e0          	mov    -0x20(%rbp),%rdx
  4055b6:	48 29 c2             	sub    %rax,%rdx
  4055b9:	48 89 d0             	mov    %rdx,%rax
  4055bc:	48 d1 e8             	shr    %rax
  4055bf:	48 8d 14 c5 00 00 00 	lea    0x0(,%rax,8),%rdx
  4055c6:	00 
  4055c7:	80 7d ac 00          	cmpb   $0x0,-0x54(%rbp)
  4055cb:	74 0a                	je     4055d7 <_ZNSt5dequeIPSt6vectorISsSaISsEESaIS3_EE17_M_reallocate_mapEmb+0x179>
  4055cd:	48 8b 45 b0          	mov    -0x50(%rbp),%rax
  4055d1:	48 c1 e0 03          	shl    $0x3,%rax
  4055d5:	eb 05                	jmp    4055dc <_ZNSt5dequeIPSt6vectorISsSaISsEESaIS3_EE17_M_reallocate_mapEmb+0x17e>
  4055d7:	b8 00 00 00 00       	mov    $0x0,%eax
  4055dc:	48 01 c2             	add    %rax,%rdx
  4055df:	48 8b 45 e8          	mov    -0x18(%rbp),%rax
  4055e3:	48 01 d0             	add    %rdx,%rax
  4055e6:	48 89 45 c8          	mov    %rax,-0x38(%rbp)
  4055ea:	48 8b 45 b8          	mov    -0x48(%rbp),%rax
  4055ee:	48 8b 40 48          	mov    0x48(%rax),%rax
  4055f2:	48 8d 48 08          	lea    0x8(%rax),%rcx
  4055f6:	48 8b 45 b8          	mov    -0x48(%rbp),%rax
  4055fa:	48 8b 40 28          	mov    0x28(%rax),%rax
  4055fe:	48 8b 55 c8          	mov    -0x38(%rbp),%rdx
  405602:	48 89 ce             	mov    %rcx,%rsi
  405605:	48 89 c7             	mov    %rax,%rdi
  405608:	e8 86 05 00 00       	callq  405b93 <_ZSt4copyIPPPSt6vectorISsSaISsEES5_ET0_T_S7_S6_>
  40560d:	48 8b 45 b8          	mov    -0x48(%rbp),%rax
  405611:	48 8b 50 08          	mov    0x8(%rax),%rdx
  405615:	48 8b 45 b8          	mov    -0x48(%rbp),%rax
  405619:	48 8b 08             	mov    (%rax),%rcx
  40561c:	48 8b 45 b8          	mov    -0x48(%rbp),%rax
  405620:	48 89 ce             	mov    %rcx,%rsi
  405623:	48 89 c7             	mov    %rax,%rdi
  405626:	e8 43 f5 ff ff       	callq  404b6e <_ZNSt11_Deque_baseIPSt6vectorISsSaISsEESaIS3_EE17_M_deallocate_mapEPPS3_m>
  40562b:	48 8b 45 b8          	mov    -0x48(%rbp),%rax
  40562f:	48 8b 55 e8          	mov    -0x18(%rbp),%rdx
  405633:	48 89 10             	mov    %rdx,(%rax)
  405636:	48 8b 45 b8          	mov    -0x48(%rbp),%rax
  40563a:	48 8b 55 e0          	mov    -0x20(%rbp),%rdx
  40563e:	48 89 50 08          	mov    %rdx,0x8(%rax)
  405642:	48 8b 45 b8          	mov    -0x48(%rbp),%rax
  405646:	48 8d 50 10          	lea    0x10(%rax),%rdx
  40564a:	48 8b 45 c8          	mov    -0x38(%rbp),%rax
  40564e:	48 89 c6             	mov    %rax,%rsi
  405651:	48 89 d7             	mov    %rdx,%rdi
  405654:	e8 63 f6 ff ff       	callq  404cbc <_ZNSt15_Deque_iteratorIPSt6vectorISsSaISsEERS3_PS3_E11_M_set_nodeEPS5_>
  405659:	48 8b 45 d0          	mov    -0x30(%rbp),%rax
  40565d:	48 c1 e0 03          	shl    $0x3,%rax
  405661:	48 8d 50 f8          	lea    -0x8(%rax),%rdx
  405665:	48 8b 45 c8          	mov    -0x38(%rbp),%rax
  405669:	48 01 c2             	add    %rax,%rdx
  40566c:	48 8b 45 b8          	mov    -0x48(%rbp),%rax
  405670:	48 83 c0 30          	add    $0x30,%rax
  405674:	48 89 d6             	mov    %rdx,%rsi
  405677:	48 89 c7             	mov    %rax,%rdi
  40567a:	e8 3d f6 ff ff       	callq  404cbc <_ZNSt15_Deque_iteratorIPSt6vectorISsSaISsEERS3_PS3_E11_M_set_nodeEPS5_>
  40567f:	48 83 c4 58          	add    $0x58,%rsp
  405683:	5b                   	pop    %rbx
  405684:	5d                   	pop    %rbp
  405685:	c3                   	retq   

0000000000405686 <_ZN9__gnu_cxx13new_allocatorIPSt6vectorISsSaISsEEE8allocateEmPKv>:
  405686:	55                   	push   %rbp
  405687:	48 89 e5             	mov    %rsp,%rbp
  40568a:	48 83 ec 20          	sub    $0x20,%rsp
  40568e:	48 89 7d f8          	mov    %rdi,-0x8(%rbp)
  405692:	48 89 75 f0          	mov    %rsi,-0x10(%rbp)
  405696:	48 89 55 e8          	mov    %rdx,-0x18(%rbp)
  40569a:	48 8b 45 f8          	mov    -0x8(%rbp),%rax
  40569e:	48 89 c7             	mov    %rax,%rdi
  4056a1:	e8 7a 05 00 00       	callq  405c20 <_ZNK9__gnu_cxx13new_allocatorIPSt6vectorISsSaISsEEE8max_sizeEv>
  4056a6:	48 3b 45 f0          	cmp    -0x10(%rbp),%rax
  4056aa:	0f 92 c0             	setb   %al
  4056ad:	84 c0                	test   %al,%al
  4056af:	74 05                	je     4056b6 <_ZN9__gnu_cxx13new_allocatorIPSt6vectorISsSaISsEEE8allocateEmPKv+0x30>
  4056b1:	e8 6a d1 ff ff       	callq  402820 <_ZSt17__throw_bad_allocv@plt>
  4056b6:	48 8b 45 f0          	mov    -0x10(%rbp),%rax
  4056ba:	48 c1 e0 03          	shl    $0x3,%rax
  4056be:	48 89 c7             	mov    %rax,%rdi
  4056c1:	e8 fa d1 ff ff       	callq  4028c0 <_Znwm@plt>
  4056c6:	c9                   	leaveq 
  4056c7:	c3                   	retq   

00000000004056c8 <_ZNSt15_Deque_iteratorIPSt6vectorISsSaISsEERS3_PS3_E14_S_buffer_sizeEv>:
  4056c8:	55                   	push   %rbp
  4056c9:	48 89 e5             	mov    %rsp,%rbp
  4056cc:	bf 08 00 00 00       	mov    $0x8,%edi
  4056d1:	e8 21 de ff ff       	callq  4034f7 <_ZSt16__deque_buf_sizem>
  4056d6:	5d                   	pop    %rbp
  4056d7:	c3                   	retq   

00000000004056d8 <_ZN9__gnu_cxx13new_allocatorIPSt6vectorISsSaISsEEE10deallocateEPS4_m>:
  4056d8:	55                   	push   %rbp
  4056d9:	48 89 e5             	mov    %rsp,%rbp
  4056dc:	48 83 ec 20          	sub    $0x20,%rsp
  4056e0:	48 89 7d f8          	mov    %rdi,-0x8(%rbp)
  4056e4:	48 89 75 f0          	mov    %rsi,-0x10(%rbp)
  4056e8:	48 89 55 e8          	mov    %rdx,-0x18(%rbp)
  4056ec:	48 8b 45 f0          	mov    -0x10(%rbp),%rax
  4056f0:	48 89 c7             	mov    %rax,%rdi
  4056f3:	e8 68 cd ff ff       	callq  402460 <_ZdlPv@plt>
  4056f8:	c9                   	leaveq 
  4056f9:	c3                   	retq   

00000000004056fa <_ZN9__gnu_cxx13new_allocatorISsE8allocateEmPKv>:
  4056fa:	55                   	push   %rbp
  4056fb:	48 89 e5             	mov    %rsp,%rbp
  4056fe:	48 83 ec 20          	sub    $0x20,%rsp
  405702:	48 89 7d f8          	mov    %rdi,-0x8(%rbp)
  405706:	48 89 75 f0          	mov    %rsi,-0x10(%rbp)
  40570a:	48 89 55 e8          	mov    %rdx,-0x18(%rbp)
  40570e:	48 8b 45 f8          	mov    -0x8(%rbp),%rax
  405712:	48 89 c7             	mov    %rax,%rdi
  405715:	e8 1a 05 00 00       	callq  405c34 <_ZNK9__gnu_cxx13new_allocatorISsE8max_sizeEv>
  40571a:	48 3b 45 f0          	cmp    -0x10(%rbp),%rax
  40571e:	0f 92 c0             	setb   %al
  405721:	84 c0                	test   %al,%al
  405723:	74 05                	je     40572a <_ZN9__gnu_cxx13new_allocatorISsE8allocateEmPKv+0x30>
  405725:	e8 f6 d0 ff ff       	callq  402820 <_ZSt17__throw_bad_allocv@plt>
  40572a:	48 8b 45 f0          	mov    -0x10(%rbp),%rax
  40572e:	48 c1 e0 03          	shl    $0x3,%rax
  405732:	48 89 c7             	mov    %rax,%rdi
  405735:	e8 86 d1 ff ff       	callq  4028c0 <_Znwm@plt>
  40573a:	c9                   	leaveq 
  40573b:	c3                   	retq   

000000000040573c <_ZNSt10_Iter_baseIN9__gnu_cxx17__normal_iteratorIPKSsSt6vectorISsSaISsEEEELb0EE7_S_baseES7_>:
  40573c:	55                   	push   %rbp
  40573d:	48 89 e5             	mov    %rsp,%rbp
  405740:	48 89 7d f0          	mov    %rdi,-0x10(%rbp)
  405744:	48 8b 45 f0          	mov    -0x10(%rbp),%rax
  405748:	5d                   	pop    %rbp
  405749:	c3                   	retq   

000000000040574a <_ZSt12__niter_baseIN9__gnu_cxx17__normal_iteratorIPKSsSt6vectorISsSaISsEEEEENSt11_Niter_baseIT_E13iterator_typeES9_>:
  40574a:	55                   	push   %rbp
  40574b:	48 89 e5             	mov    %rsp,%rbp
  40574e:	48 83 ec 10          	sub    $0x10,%rsp
  405752:	48 89 7d f0          	mov    %rdi,-0x10(%rbp)
  405756:	48 8b 45 f0          	mov    -0x10(%rbp),%rax
  40575a:	48 89 c7             	mov    %rax,%rdi
  40575d:	e8 e6 04 00 00       	callq  405c48 <_ZNSt10_Iter_baseIN9__gnu_cxx17__normal_iteratorIPKSsSt6vectorISsSaISsEEEELb1EE7_S_baseES7_>
  405762:	c9                   	leaveq 
  405763:	c3                   	retq   

0000000000405764 <_ZSt12__niter_baseIN9__gnu_cxx17__normal_iteratorIPSsSt6vectorISsSaISsEEEEENSt11_Niter_baseIT_E13iterator_typeES8_>:
  405764:	55                   	push   %rbp
  405765:	48 89 e5             	mov    %rsp,%rbp
  405768:	48 83 ec 10          	sub    $0x10,%rsp
  40576c:	48 89 7d f0          	mov    %rdi,-0x10(%rbp)
  405770:	48 8b 45 f0          	mov    -0x10(%rbp),%rax
  405774:	48 89 c7             	mov    %rax,%rdi
  405777:	e8 e9 04 00 00       	callq  405c65 <_ZNSt10_Iter_baseIN9__gnu_cxx17__normal_iteratorIPSsSt6vectorISsSaISsEEEELb1EE7_S_baseES6_>
  40577c:	c9                   	leaveq 
  40577d:	c3                   	retq   

000000000040577e <_ZSt13__copy_move_aILb0EPKSsPSsET1_T0_S4_S3_>:
  40577e:	55                   	push   %rbp
  40577f:	48 89 e5             	mov    %rsp,%rbp
  405782:	48 83 ec 30          	sub    $0x30,%rsp
  405786:	48 89 7d e8          	mov    %rdi,-0x18(%rbp)
  40578a:	48 89 75 e0          	mov    %rsi,-0x20(%rbp)
  40578e:	48 89 55 d8          	mov    %rdx,-0x28(%rbp)
  405792:	c6 45 ff 00          	movb   $0x0,-0x1(%rbp)
  405796:	48 8b 55 d8          	mov    -0x28(%rbp),%rdx
  40579a:	48 8b 4d e0          	mov    -0x20(%rbp),%rcx
  40579e:	48 8b 45 e8          	mov    -0x18(%rbp),%rax
  4057a2:	48 89 ce             	mov    %rcx,%rsi
  4057a5:	48 89 c7             	mov    %rax,%rdi
  4057a8:	e8 d5 04 00 00       	callq  405c82 <_ZNSt11__copy_moveILb0ELb0ESt26random_access_iterator_tagE8__copy_mIPKSsPSsEET0_T_S7_S6_>
  4057ad:	c9                   	leaveq 
  4057ae:	c3                   	retq   

00000000004057af <_ZNSt12_Destroy_auxILb0EE9__destroyIN9__gnu_cxx17__normal_iteratorIPSsSt6vectorISsSaISsEEEEEEvT_S9_>:
  4057af:	55                   	push   %rbp
  4057b0:	48 89 e5             	mov    %rsp,%rbp
  4057b3:	48 83 ec 20          	sub    $0x20,%rsp
  4057b7:	48 89 7d f0          	mov    %rdi,-0x10(%rbp)
  4057bb:	48 89 75 e0          	mov    %rsi,-0x20(%rbp)
  4057bf:	eb 28                	jmp    4057e9 <_ZNSt12_Destroy_auxILb0EE9__destroyIN9__gnu_cxx17__normal_iteratorIPSsSt6vectorISsSaISsEEEEEEvT_S9_+0x3a>
  4057c1:	48 8d 45 f0          	lea    -0x10(%rbp),%rax
  4057c5:	48 89 c7             	mov    %rax,%rdi
  4057c8:	e8 f7 f7 ff ff       	callq  404fc4 <_ZNK9__gnu_cxx17__normal_iteratorIPSsSt6vectorISsSaISsEEEdeEv>
  4057cd:	48 89 c7             	mov    %rax,%rdi
  4057d0:	e8 ad 01 00 00       	callq  405982 <_ZSt11__addressofISsEPT_RS0_>
  4057d5:	48 89 c7             	mov    %rax,%rdi
  4057d8:	e8 b3 01 00 00       	callq  405990 <_ZSt8_DestroyISsEvPT_>
  4057dd:	48 8d 45 f0          	lea    -0x10(%rbp),%rax
  4057e1:	48 89 c7             	mov    %rax,%rdi
  4057e4:	e8 31 05 00 00       	callq  405d1a <_ZN9__gnu_cxx17__normal_iteratorIPSsSt6vectorISsSaISsEEEppEv>
  4057e9:	48 8d 55 e0          	lea    -0x20(%rbp),%rdx
  4057ed:	48 8d 45 f0          	lea    -0x10(%rbp),%rax
  4057f1:	48 89 d6             	mov    %rdx,%rsi
  4057f4:	48 89 c7             	mov    %rax,%rdi
  4057f7:	e8 e1 04 00 00       	callq  405cdd <_ZN9__gnu_cxxneIPSsSt6vectorISsSaISsEEEEbRKNS_17__normal_iteratorIT_T0_EESA_>
  4057fc:	84 c0                	test   %al,%al
  4057fe:	75 c1                	jne    4057c1 <_ZNSt12_Destroy_auxILb0EE9__destroyIN9__gnu_cxx17__normal_iteratorIPSsSt6vectorISsSaISsEEEEEEvT_S9_+0x12>
  405800:	c9                   	leaveq 
  405801:	c3                   	retq   

0000000000405802 <_ZNSt10_Iter_baseIPSsLb0EE7_S_baseES0_>:
  405802:	55                   	push   %rbp
  405803:	48 89 e5             	mov    %rsp,%rbp
  405806:	48 89 7d f8          	mov    %rdi,-0x8(%rbp)
  40580a:	48 8b 45 f8          	mov    -0x8(%rbp),%rax
  40580e:	5d                   	pop    %rbp
  40580f:	c3                   	retq   

0000000000405810 <_ZSt12__niter_baseIPSsENSt11_Niter_baseIT_E13iterator_typeES2_>:
  405810:	55                   	push   %rbp
  405811:	48 89 e5             	mov    %rsp,%rbp
  405814:	48 83 ec 10          	sub    $0x10,%rsp
  405818:	48 89 7d f8          	mov    %rdi,-0x8(%rbp)
  40581c:	48 8b 45 f8          	mov    -0x8(%rbp),%rax
  405820:	48 89 c7             	mov    %rax,%rdi
  405823:	e8 da ff ff ff       	callq  405802 <_ZNSt10_Iter_baseIPSsLb0EE7_S_baseES0_>
  405828:	c9                   	leaveq 
  405829:	c3                   	retq   

000000000040582a <_ZSt13__copy_move_aILb0EPSsS0_ET1_T0_S2_S1_>:
  40582a:	55                   	push   %rbp
  40582b:	48 89 e5             	mov    %rsp,%rbp
  40582e:	48 83 ec 30          	sub    $0x30,%rsp
  405832:	48 89 7d e8          	mov    %rdi,-0x18(%rbp)
  405836:	48 89 75 e0          	mov    %rsi,-0x20(%rbp)
  40583a:	48 89 55 d8          	mov    %rdx,-0x28(%rbp)
  40583e:	c6 45 ff 00          	movb   $0x0,-0x1(%rbp)
  405842:	48 8b 55 d8          	mov    -0x28(%rbp),%rdx
  405846:	48 8b 4d e0          	mov    -0x20(%rbp),%rcx
  40584a:	48 8b 45 e8          	mov    -0x18(%rbp),%rax
  40584e:	48 89 ce             	mov    %rcx,%rsi
  405851:	48 89 c7             	mov    %rax,%rdi
  405854:	e8 e1 04 00 00       	callq  405d3a <_ZNSt11__copy_moveILb0ELb0ESt26random_access_iterator_tagE8__copy_mIPSsS3_EET0_T_S5_S4_>
  405859:	c9                   	leaveq 
  40585a:	c3                   	retq   

000000000040585b <_ZNSt20__uninitialized_copyILb0EE13__uninit_copyIPSsS2_EET0_T_S4_S3_>:
  40585b:	55                   	push   %rbp
  40585c:	48 89 e5             	mov    %rsp,%rbp
  40585f:	53                   	push   %rbx
  405860:	48 83 ec 38          	sub    $0x38,%rsp
  405864:	48 89 7d d8          	mov    %rdi,-0x28(%rbp)
  405868:	48 89 75 d0          	mov    %rsi,-0x30(%rbp)
  40586c:	48 89 55 c8          	mov    %rdx,-0x38(%rbp)
  405870:	48 8b 45 c8          	mov    -0x38(%rbp),%rax
  405874:	48 89 45 e8          	mov    %rax,-0x18(%rbp)
  405878:	eb 25                	jmp    40589f <_ZNSt20__uninitialized_copyILb0EE13__uninit_copyIPSsS2_EET0_T_S4_S3_+0x44>
  40587a:	48 8b 45 e8          	mov    -0x18(%rbp),%rax
  40587e:	48 89 c7             	mov    %rax,%rdi
  405881:	e8 fc 00 00 00       	callq  405982 <_ZSt11__addressofISsEPT_RS0_>
  405886:	48 8b 55 d8          	mov    -0x28(%rbp),%rdx
  40588a:	48 89 d6             	mov    %rdx,%rsi
  40588d:	48 89 c7             	mov    %rax,%rdi
  405890:	e8 90 01 00 00       	callq  405a25 <_ZSt10_ConstructISsSsEvPT_RKT0_>
  405895:	48 83 45 d8 08       	addq   $0x8,-0x28(%rbp)
  40589a:	48 83 45 e8 08       	addq   $0x8,-0x18(%rbp)
  40589f:	48 8b 45 d8          	mov    -0x28(%rbp),%rax
  4058a3:	48 3b 45 d0          	cmp    -0x30(%rbp),%rax
  4058a7:	75 d1                	jne    40587a <_ZNSt20__uninitialized_copyILb0EE13__uninit_copyIPSsS2_EET0_T_S4_S3_+0x1f>
  4058a9:	48 8b 45 e8          	mov    -0x18(%rbp),%rax
  4058ad:	eb 33                	jmp    4058e2 <_ZNSt20__uninitialized_copyILb0EE13__uninit_copyIPSsS2_EET0_T_S4_S3_+0x87>
  4058af:	48 89 c3             	mov    %rax,%rbx
  4058b2:	e8 59 cf ff ff       	callq  402810 <__cxa_end_catch@plt>
  4058b7:	48 89 d8             	mov    %rbx,%rax
  4058ba:	48 89 c7             	mov    %rax,%rdi
  4058bd:	e8 0e d0 ff ff       	callq  4028d0 <_Unwind_Resume@plt>
  4058c2:	48 89 c7             	mov    %rax,%rdi
  4058c5:	e8 86 cf ff ff       	callq  402850 <__cxa_begin_catch@plt>
  4058ca:	48 8b 55 e8          	mov    -0x18(%rbp),%rdx
  4058ce:	48 8b 45 c8          	mov    -0x38(%rbp),%rax
  4058d2:	48 89 d6             	mov    %rdx,%rsi
  4058d5:	48 89 c7             	mov    %rax,%rdi
  4058d8:	e8 2a ef ff ff       	callq  404807 <_ZSt8_DestroyIPSsEvT_S1_>
  4058dd:	e8 ae cb ff ff       	callq  402490 <__cxa_rethrow@plt>
  4058e2:	48 83 c4 38          	add    $0x38,%rsp
  4058e6:	5b                   	pop    %rbx
  4058e7:	5d                   	pop    %rbp
  4058e8:	c3                   	retq   

00000000004058e9 <_ZSt23__copy_move_backward_a2ILb0EPSsS0_ET1_T0_S2_S1_>:
  4058e9:	55                   	push   %rbp
  4058ea:	48 89 e5             	mov    %rsp,%rbp
  4058ed:	41 54                	push   %r12
  4058ef:	53                   	push   %rbx
  4058f0:	48 83 ec 20          	sub    $0x20,%rsp
  4058f4:	48 89 7d e8          	mov    %rdi,-0x18(%rbp)
  4058f8:	48 89 75 e0          	mov    %rsi,-0x20(%rbp)
  4058fc:	48 89 55 d8          	mov    %rdx,-0x28(%rbp)
  405900:	48 8b 45 d8          	mov    -0x28(%rbp),%rax
  405904:	48 89 c7             	mov    %rax,%rdi
  405907:	e8 04 ff ff ff       	callq  405810 <_ZSt12__niter_baseIPSsENSt11_Niter_baseIT_E13iterator_typeES2_>
  40590c:	49 89 c4             	mov    %rax,%r12
  40590f:	48 8b 45 e0          	mov    -0x20(%rbp),%rax
  405913:	48 89 c7             	mov    %rax,%rdi
  405916:	e8 f5 fe ff ff       	callq  405810 <_ZSt12__niter_baseIPSsENSt11_Niter_baseIT_E13iterator_typeES2_>
  40591b:	48 89 c3             	mov    %rax,%rbx
  40591e:	48 8b 45 e8          	mov    -0x18(%rbp),%rax
  405922:	48 89 c7             	mov    %rax,%rdi
  405925:	e8 e6 fe ff ff       	callq  405810 <_ZSt12__niter_baseIPSsENSt11_Niter_baseIT_E13iterator_typeES2_>
  40592a:	4c 89 e2             	mov    %r12,%rdx
  40592d:	48 89 de             	mov    %rbx,%rsi
  405930:	48 89 c7             	mov    %rax,%rdi
  405933:	e8 5d 04 00 00       	callq  405d95 <_ZSt22__copy_move_backward_aILb0EPSsS0_ET1_T0_S2_S1_>
  405938:	48 83 c4 20          	add    $0x20,%rsp
  40593c:	5b                   	pop    %rbx
  40593d:	41 5c                	pop    %r12
  40593f:	5d                   	pop    %rbp
  405940:	c3                   	retq   
  405941:	90                   	nop

0000000000405942 <_ZNKSt6vectorISsSaISsEE8max_sizeEv>:
  405942:	55                   	push   %rbp
  405943:	48 89 e5             	mov    %rsp,%rbp
  405946:	48 83 ec 10          	sub    $0x10,%rsp
  40594a:	48 89 7d f8          	mov    %rdi,-0x8(%rbp)
  40594e:	48 8b 45 f8          	mov    -0x8(%rbp),%rax
  405952:	48 89 c7             	mov    %rax,%rdi
  405955:	e8 1e e4 ff ff       	callq  403d78 <_ZNKSt12_Vector_baseISsSaISsEE19_M_get_Tp_allocatorEv>
  40595a:	48 89 c7             	mov    %rax,%rdi
  40595d:	e8 64 04 00 00       	callq  405dc6 <_ZN9__gnu_cxx14__alloc_traitsISaISsEE8max_sizeERKS1_>
  405962:	c9                   	leaveq 
  405963:	c3                   	retq   

0000000000405964 <_ZN9__gnu_cxx13new_allocatorISsE7destroyEPSs>:
  405964:	55                   	push   %rbp
  405965:	48 89 e5             	mov    %rsp,%rbp
  405968:	48 83 ec 10          	sub    $0x10,%rsp
  40596c:	48 89 7d f8          	mov    %rdi,-0x8(%rbp)
  405970:	48 89 75 f0          	mov    %rsi,-0x10(%rbp)
  405974:	48 8b 45 f0          	mov    -0x10(%rbp),%rax
  405978:	48 89 c7             	mov    %rax,%rdi
  40597b:	e8 20 cc ff ff       	callq  4025a0 <_ZNSsD1Ev@plt>
  405980:	c9                   	leaveq 
  405981:	c3                   	retq   

0000000000405982 <_ZSt11__addressofISsEPT_RS0_>:
  405982:	55                   	push   %rbp
  405983:	48 89 e5             	mov    %rsp,%rbp
  405986:	48 89 7d f8          	mov    %rdi,-0x8(%rbp)
  40598a:	48 8b 45 f8          	mov    -0x8(%rbp),%rax
  40598e:	5d                   	pop    %rbp
  40598f:	c3                   	retq   

0000000000405990 <_ZSt8_DestroyISsEvPT_>:
  405990:	55                   	push   %rbp
  405991:	48 89 e5             	mov    %rsp,%rbp
  405994:	48 83 ec 10          	sub    $0x10,%rsp
  405998:	48 89 7d f8          	mov    %rdi,-0x8(%rbp)
  40599c:	48 8b 45 f8          	mov    -0x8(%rbp),%rax
  4059a0:	48 89 c7             	mov    %rax,%rdi
  4059a3:	e8 f8 cb ff ff       	callq  4025a0 <_ZNSsD1Ev@plt>
  4059a8:	c9                   	leaveq 
  4059a9:	c3                   	retq   

00000000004059aa <_ZN9__gnu_cxx13new_allocatorISsEC1ERKS1_>:
  4059aa:	55                   	push   %rbp
  4059ab:	48 89 e5             	mov    %rsp,%rbp
  4059ae:	48 89 7d f8          	mov    %rdi,-0x8(%rbp)
  4059b2:	48 89 75 f0          	mov    %rsi,-0x10(%rbp)
  4059b6:	5d                   	pop    %rbp
  4059b7:	c3                   	retq   

00000000004059b8 <_ZN9__gnu_cxxneIPKSsSt6vectorISsSaISsEEEEbRKNS_17__normal_iteratorIT_T0_EESB_>:
  4059b8:	55                   	push   %rbp
  4059b9:	48 89 e5             	mov    %rsp,%rbp
  4059bc:	53                   	push   %rbx
  4059bd:	48 83 ec 18          	sub    $0x18,%rsp
  4059c1:	48 89 7d e8          	mov    %rdi,-0x18(%rbp)
  4059c5:	48 89 75 e0          	mov    %rsi,-0x20(%rbp)
  4059c9:	48 8b 45 e8          	mov    -0x18(%rbp),%rax
  4059cd:	48 89 c7             	mov    %rax,%rdi
  4059d0:	e8 0b 04 00 00       	callq  405de0 <_ZNK9__gnu_cxx17__normal_iteratorIPKSsSt6vectorISsSaISsEEE4baseEv>
  4059d5:	48 8b 18             	mov    (%rax),%rbx
  4059d8:	48 8b 45 e0          	mov    -0x20(%rbp),%rax
  4059dc:	48 89 c7             	mov    %rax,%rdi
  4059df:	e8 fc 03 00 00       	callq  405de0 <_ZNK9__gnu_cxx17__normal_iteratorIPKSsSt6vectorISsSaISsEEE4baseEv>
  4059e4:	48 8b 00             	mov    (%rax),%rax
  4059e7:	48 39 c3             	cmp    %rax,%rbx
  4059ea:	0f 95 c0             	setne  %al
  4059ed:	48 83 c4 18          	add    $0x18,%rsp
  4059f1:	5b                   	pop    %rbx
  4059f2:	5d                   	pop    %rbp
  4059f3:	c3                   	retq   

00000000004059f4 <_ZN9__gnu_cxx17__normal_iteratorIPKSsSt6vectorISsSaISsEEEppEv>:
  4059f4:	55                   	push   %rbp
  4059f5:	48 89 e5             	mov    %rsp,%rbp
  4059f8:	48 89 7d f8          	mov    %rdi,-0x8(%rbp)
  4059fc:	48 8b 45 f8          	mov    -0x8(%rbp),%rax
  405a00:	48 8b 00             	mov    (%rax),%rax
  405a03:	48 8d 50 08          	lea    0x8(%rax),%rdx
  405a07:	48 8b 45 f8          	mov    -0x8(%rbp),%rax
  405a0b:	48 89 10             	mov    %rdx,(%rax)
  405a0e:	48 8b 45 f8          	mov    -0x8(%rbp),%rax
  405a12:	5d                   	pop    %rbp
  405a13:	c3                   	retq   

0000000000405a14 <_ZNK9__gnu_cxx17__normal_iteratorIPKSsSt6vectorISsSaISsEEEdeEv>:
  405a14:	55                   	push   %rbp
  405a15:	48 89 e5             	mov    %rsp,%rbp
  405a18:	48 89 7d f8          	mov    %rdi,-0x8(%rbp)
  405a1c:	48 8b 45 f8          	mov    -0x8(%rbp),%rax
  405a20:	48 8b 00             	mov    (%rax),%rax
  405a23:	5d                   	pop    %rbp
  405a24:	c3                   	retq   

0000000000405a25 <_ZSt10_ConstructISsSsEvPT_RKT0_>:
  405a25:	55                   	push   %rbp
  405a26:	48 89 e5             	mov    %rsp,%rbp
  405a29:	41 55                	push   %r13
  405a2b:	41 54                	push   %r12
  405a2d:	53                   	push   %rbx
  405a2e:	48 83 ec 18          	sub    $0x18,%rsp
  405a32:	48 89 7d d8          	mov    %rdi,-0x28(%rbp)
  405a36:	48 89 75 d0          	mov    %rsi,-0x30(%rbp)
  405a3a:	4c 8b 65 d8          	mov    -0x28(%rbp),%r12
  405a3e:	4c 89 e6             	mov    %r12,%rsi
  405a41:	bf 08 00 00 00       	mov    $0x8,%edi
  405a46:	e8 8c da ff ff       	callq  4034d7 <_ZnwmPv>
  405a4b:	48 89 c3             	mov    %rax,%rbx
  405a4e:	48 85 db             	test   %rbx,%rbx
  405a51:	74 11                	je     405a64 <_ZSt10_ConstructISsSsEvPT_RKT0_+0x3f>
  405a53:	48 8b 45 d0          	mov    -0x30(%rbp),%rax
  405a57:	48 89 c6             	mov    %rax,%rsi
  405a5a:	48 89 df             	mov    %rbx,%rdi
  405a5d:	e8 ae ca ff ff       	callq  402510 <_ZNSsC1ERKSs@plt>
  405a62:	eb 1b                	jmp    405a7f <_ZSt10_ConstructISsSsEvPT_RKT0_+0x5a>
  405a64:	eb 19                	jmp    405a7f <_ZSt10_ConstructISsSsEvPT_RKT0_+0x5a>
  405a66:	49 89 c5             	mov    %rax,%r13
  405a69:	4c 89 e6             	mov    %r12,%rsi
  405a6c:	48 89 df             	mov    %rbx,%rdi
  405a6f:	e8 75 da ff ff       	callq  4034e9 <_ZdlPvS_>
  405a74:	4c 89 e8             	mov    %r13,%rax
  405a77:	48 89 c7             	mov    %rax,%rdi
  405a7a:	e8 51 ce ff ff       	callq  4028d0 <_Unwind_Resume@plt>
  405a7f:	48 83 c4 18          	add    $0x18,%rsp
  405a83:	5b                   	pop    %rbx
  405a84:	41 5c                	pop    %r12
  405a86:	41 5d                	pop    %r13
  405a88:	5d                   	pop    %rbp
  405a89:	c3                   	retq   

0000000000405a8a <_ZN9__gnu_cxx13new_allocatorIPSt6vectorISsSaISsEEEC1Ev>:
  405a8a:	55                   	push   %rbp
  405a8b:	48 89 e5             	mov    %rsp,%rbp
  405a8e:	48 89 7d f8          	mov    %rdi,-0x8(%rbp)
  405a92:	5d                   	pop    %rbp
  405a93:	c3                   	retq   

0000000000405a94 <_ZN9__gnu_cxx13new_allocatorIPPSt6vectorISsSaISsEEE8allocateEmPKv>:
  405a94:	55                   	push   %rbp
  405a95:	48 89 e5             	mov    %rsp,%rbp
  405a98:	48 83 ec 20          	sub    $0x20,%rsp
  405a9c:	48 89 7d f8          	mov    %rdi,-0x8(%rbp)
  405aa0:	48 89 75 f0          	mov    %rsi,-0x10(%rbp)
  405aa4:	48 89 55 e8          	mov    %rdx,-0x18(%rbp)
  405aa8:	48 8b 45 f8          	mov    -0x8(%rbp),%rax
  405aac:	48 89 c7             	mov    %rax,%rdi
  405aaf:	e8 3a 03 00 00       	callq  405dee <_ZNK9__gnu_cxx13new_allocatorIPPSt6vectorISsSaISsEEE8max_sizeEv>
  405ab4:	48 3b 45 f0          	cmp    -0x10(%rbp),%rax
  405ab8:	0f 92 c0             	setb   %al
  405abb:	84 c0                	test   %al,%al
  405abd:	74 05                	je     405ac4 <_ZN9__gnu_cxx13new_allocatorIPPSt6vectorISsSaISsEEE8allocateEmPKv+0x30>
  405abf:	e8 5c cd ff ff       	callq  402820 <_ZSt17__throw_bad_allocv@plt>
  405ac4:	48 8b 45 f0          	mov    -0x10(%rbp),%rax
  405ac8:	48 c1 e0 03          	shl    $0x3,%rax
  405acc:	48 89 c7             	mov    %rax,%rdi
  405acf:	e8 ec cd ff ff       	callq  4028c0 <_Znwm@plt>
  405ad4:	c9                   	leaveq 
  405ad5:	c3                   	retq   

0000000000405ad6 <_ZNKSt11_Deque_baseIPSt6vectorISsSaISsEESaIS3_EE19_M_get_Tp_allocatorEv>:
  405ad6:	55                   	push   %rbp
  405ad7:	48 89 e5             	mov    %rsp,%rbp
  405ada:	48 89 7d f8          	mov    %rdi,-0x8(%rbp)
  405ade:	48 8b 45 f8          	mov    -0x8(%rbp),%rax
  405ae2:	5d                   	pop    %rbp
  405ae3:	c3                   	retq   

0000000000405ae4 <_ZNSaIPPSt6vectorISsSaISsEEEC1IS2_EERKSaIT_E>:
  405ae4:	55                   	push   %rbp
  405ae5:	48 89 e5             	mov    %rsp,%rbp
  405ae8:	48 83 ec 10          	sub    $0x10,%rsp
  405aec:	48 89 7d f8          	mov    %rdi,-0x8(%rbp)
  405af0:	48 89 75 f0          	mov    %rsi,-0x10(%rbp)
  405af4:	48 8b 45 f8          	mov    -0x8(%rbp),%rax
  405af8:	48 89 c7             	mov    %rax,%rdi
  405afb:	e8 02 03 00 00       	callq  405e02 <_ZN9__gnu_cxx13new_allocatorIPPSt6vectorISsSaISsEEEC1Ev>
  405b00:	c9                   	leaveq 
  405b01:	c3                   	retq   

0000000000405b02 <_ZN9__gnu_cxx13new_allocatorIPPSt6vectorISsSaISsEEED1Ev>:
  405b02:	55                   	push   %rbp
  405b03:	48 89 e5             	mov    %rsp,%rbp
  405b06:	48 89 7d f8          	mov    %rdi,-0x8(%rbp)
  405b0a:	5d                   	pop    %rbp
  405b0b:	c3                   	retq   

0000000000405b0c <_ZNSt22__uninitialized_fill_nILb0EE15__uninit_fill_nIPSsmSsEEvT_T0_RKT1_>:
  405b0c:	55                   	push   %rbp
  405b0d:	48 89 e5             	mov    %rsp,%rbp
  405b10:	53                   	push   %rbx
  405b11:	48 83 ec 38          	sub    $0x38,%rsp
  405b15:	48 89 7d d8          	mov    %rdi,-0x28(%rbp)
  405b19:	48 89 75 d0          	mov    %rsi,-0x30(%rbp)
  405b1d:	48 89 55 c8          	mov    %rdx,-0x38(%rbp)
  405b21:	48 8b 45 d8          	mov    -0x28(%rbp),%rax
  405b25:	48 89 45 e8          	mov    %rax,-0x18(%rbp)
  405b29:	eb 25                	jmp    405b50 <_ZNSt22__uninitialized_fill_nILb0EE15__uninit_fill_nIPSsmSsEEvT_T0_RKT1_+0x44>
  405b2b:	48 8b 45 e8          	mov    -0x18(%rbp),%rax
  405b2f:	48 89 c7             	mov    %rax,%rdi
  405b32:	e8 4b fe ff ff       	callq  405982 <_ZSt11__addressofISsEPT_RS0_>
  405b37:	48 8b 55 c8          	mov    -0x38(%rbp),%rdx
  405b3b:	48 89 d6             	mov    %rdx,%rsi
  405b3e:	48 89 c7             	mov    %rax,%rdi
  405b41:	e8 df fe ff ff       	callq  405a25 <_ZSt10_ConstructISsSsEvPT_RKT0_>
  405b46:	48 83 6d d0 01       	subq   $0x1,-0x30(%rbp)
  405b4b:	48 83 45 e8 08       	addq   $0x8,-0x18(%rbp)
  405b50:	48 83 7d d0 00       	cmpq   $0x0,-0x30(%rbp)
  405b55:	75 d4                	jne    405b2b <_ZNSt22__uninitialized_fill_nILb0EE15__uninit_fill_nIPSsmSsEEvT_T0_RKT1_+0x1f>
  405b57:	eb 33                	jmp    405b8c <_ZNSt22__uninitialized_fill_nILb0EE15__uninit_fill_nIPSsmSsEEvT_T0_RKT1_+0x80>
  405b59:	48 89 c3             	mov    %rax,%rbx
  405b5c:	e8 af cc ff ff       	callq  402810 <__cxa_end_catch@plt>
  405b61:	48 89 d8             	mov    %rbx,%rax
  405b64:	48 89 c7             	mov    %rax,%rdi
  405b67:	e8 64 cd ff ff       	callq  4028d0 <_Unwind_Resume@plt>
  405b6c:	48 89 c7             	mov    %rax,%rdi
  405b6f:	e8 dc cc ff ff       	callq  402850 <__cxa_begin_catch@plt>
  405b74:	48 8b 55 e8          	mov    -0x18(%rbp),%rdx
  405b78:	48 8b 45 d8          	mov    -0x28(%rbp),%rax
  405b7c:	48 89 d6             	mov    %rdx,%rsi
  405b7f:	48 89 c7             	mov    %rax,%rdi
  405b82:	e8 80 ec ff ff       	callq  404807 <_ZSt8_DestroyIPSsEvT_S1_>
  405b87:	e8 04 c9 ff ff       	callq  402490 <__cxa_rethrow@plt>
  405b8c:	48 83 c4 38          	add    $0x38,%rsp
  405b90:	5b                   	pop    %rbx
  405b91:	5d                   	pop    %rbp
  405b92:	c3                   	retq   

0000000000405b93 <_ZSt4copyIPPPSt6vectorISsSaISsEES5_ET0_T_S7_S6_>:
  405b93:	55                   	push   %rbp
  405b94:	48 89 e5             	mov    %rsp,%rbp
  405b97:	53                   	push   %rbx
  405b98:	48 83 ec 28          	sub    $0x28,%rsp
  405b9c:	48 89 7d e8          	mov    %rdi,-0x18(%rbp)
  405ba0:	48 89 75 e0          	mov    %rsi,-0x20(%rbp)
  405ba4:	48 89 55 d8          	mov    %rdx,-0x28(%rbp)
  405ba8:	48 8b 45 e0          	mov    -0x20(%rbp),%rax
  405bac:	48 89 c7             	mov    %rax,%rdi
  405baf:	e8 58 02 00 00       	callq  405e0c <_ZSt12__miter_baseIPPPSt6vectorISsSaISsEEENSt11_Miter_baseIT_E13iterator_typeES7_>
  405bb4:	48 89 c3             	mov    %rax,%rbx
  405bb7:	48 8b 45 e8          	mov    -0x18(%rbp),%rax
  405bbb:	48 89 c7             	mov    %rax,%rdi
